 rmx_automation

 Timestamp is 4fa73819 (Sun May 06 19:48:57 2012)

 Preferred load address is 00400000

 Start         Length     Name                   Class
 0001:00000000 00074a15H .textbss                DATA
 0002:00000000 000e8d22H .text                   CODE
 0002:000e8d30 00007ff6H .text$x                 CODE
 0002:000f0d30 0000111eH .text$yc                CODE
 0002:000f1e50 000010edH .text$yd                CODE
 0003:00000000 00000104H .CRT$XCA                DATA
 0003:00000104 00000104H .CRT$XCAA               DATA
 0003:00000208 00000112H .CRT$XCU                DATA
 0003:0000031c 00000104H .CRT$XCZ                DATA
 0003:00000420 00000104H .CRT$XIA                DATA
 0003:00000524 00000104H .CRT$XIAA               DATA
 0003:00000628 00000104H .CRT$XIC                DATA
 0003:0000072c 00000104H .CRT$XIY                DATA
 0003:00000830 00000104H .CRT$XIZ                DATA
 0003:00000934 00000004H .CRT$XLA                DATA
 0003:00000938 00000004H .CRT$XLZ                DATA
 0003:00000940 0000f692H .rdata                  DATA
 0003:0000ffd4 0000011cH .rdata$T                DATA
 0003:000100f0 0000016dH .rdata$debug            DATA
 0003:00010260 00002e8bH .rdata$r                DATA
 0003:000130ec 00000104H .rtc$IAA                DATA
 0003:000131f0 0000021bH .rtc$IMZ                DATA
 0003:0001340c 00000104H .rtc$IZZ                DATA
 0003:00013510 00000104H .rtc$TAA                DATA
 0003:00013614 0000021bH .rtc$TMZ                DATA
 0003:00013830 00000104H .rtc$TZZ                DATA
 0003:00013938 00005e52H .xdata$x                DATA
 0003:00019790 00000178H .edata                  DATA
 0004:00000000 00003316H .data                   DATA
 0004:00003320 00000c98H .bss                    DATA
 0005:00000000 00000078H .idata$2                DATA
 0005:00000078 00000014H .idata$3                DATA
 0005:0000008c 00000500H .idata$4                DATA
 0005:0000058c 00000500H .idata$5                DATA
 0005:00000a8c 000010ecH .idata$6                DATA
 0006:00000000 00000101H .tls                    DATA
 0006:00000108 000001e1H .tls$                   DATA
 0006:000002e9 00000101H .tls$ZZZ                DATA
 0007:00000000 00000610H .rsrc$01                DATA
 0007:00000610 0001a059H .rsrc$02                DATA

  Address         Publics by Value              Rva+Base       Lib:Object

 0000:00000000       ___safe_se_handler_count   00000000     <absolute>
 0000:00000000       __except_list              00000000     <absolute>
 0000:00000000       ___safe_se_handler_table   00000000     <absolute>
 0000:0000002c       __tls_array                0000002c     <absolute>
 0000:00009876       __ldused                   00009876     <absolute>
 0000:00009876       __fltused                  00009876     <absolute>
 0000:00000000       ___ImageBase               00400000     <linker-defined>
 0001:00000000       __enc$textbss$begin        00401000     <linker-defined>
 0001:00074a15       __enc$textbss$end          00475a15     <linker-defined>
 0002:00005b60       _WinMain@16                0047bb60 f   main.obj
 0002:00005dd0       ?setInstance@vWin32@@SAXPAUHINSTANCE__@@@Z 0047bdd0 f i main.obj
 0002:00005e10       ??0saPlugins@@QAE@XZ       0047be10 f   main.obj
 0002:00006020       ?onRmxPostLoad@vPluginLoader@@MAEXXZ 0047c020 f i main.obj
 0002:00006060       ?setMasterPlugin@vPluginLoader@@QAEXPAVrmxMasterPlugin@@@Z 0047c060 f i main.obj
 0002:000060b0       ??_GsaPlugins@@UAEPAXI@Z   0047c0b0 f i main.obj
 0002:000060b0       ??_EsaPlugins@@UAEPAXI@Z   0047c0b0 f i main.obj
 0002:00006120       ??1saPlugins@@UAE@XZ       0047c120 f   main.obj
 0002:00006190       ?initMasterLists@saPlugins@@MAEXPAVrmxMasterPlugin@@@Z 0047c190 f   main.obj
 0002:000063f0       ?initMasterLists@vPluginLoader@@MAEXPAVrmxMasterPlugin@@@Z 0047c3f0 f i main.obj
 0002:00006430       ??0saExitFunction@@QAE@PAVcfgRoot@@@Z 0047c430 f i main.obj
 0002:000064c0       ?cb_cfgMessage@cbBase@@MAEXW4cbMessage@@PAVcfgBase@@PBD@Z 0047c4c0 f i main.obj
 0002:00006500       ?cb_cfgMessage@cbBase@@MAEXW4cbMessage@@PAVcfgBase@@_J@Z 0047c500 f i main.obj
 0002:00006540       ?cb_cfgMessage@cbBase@@MAEXW4cbMessage@@PAVcfgBase@@PBV3@2@Z 0047c540 f i main.obj
 0002:00006580       ?onInitConfig@cfgBase@@UAEXXZ 0047c580 f i main.obj
 0002:000065c0       ?onFirstLoad@cfgBase@@UAEXXZ 0047c5c0 f i main.obj
 0002:00006600       ?validateUserData@cfgBase@@UAEXPAVprmBase@@@Z 0047c600 f i main.obj
 0002:00006640       ?onNewExternalChild@cfgBase@@UAEPAV1@PBD0PAVvHPARAMLIST@@@Z 0047c640 f i main.obj
 0002:00006680       ?isCorrectChild@cfgBase@@MBEHPAV1@PAVvHPARAMLIST@@@Z 0047c680 f i main.obj
 0002:000066c0       ?onNewExternalParam@cfgBase@@UAEPAVprmBase@@PBD0@Z 0047c6c0 f i main.obj
 0002:00006700       ?getMessageName@funcBase@@MAEPBDPAVvHPLUGIN@@PAVvHLIST@@@Z 0047c700 f i main.obj
 0002:00006760       ?getName@cfgBase@@QBEPBDXZ 0047c760 f i main.obj
 0002:000067c0       ?getValueSafe@rmxData@@QBEPBDPBD@Z 0047c7c0 f i main.obj
 0002:00006840       ?onActivated@saExitFunction@@MAEXPAVvHPLUGIN@@PAVvHLIST@@1H@Z 0047c840 f i main.obj
 0002:000068a0       ??_GsaExitFunction@@UAEPAXI@Z 0047c8a0 f i main.obj
 0002:000068a0       ??_EsaExitFunction@@UAEPAXI@Z 0047c8a0 f i main.obj
 0002:00006910       ??1saExitFunction@@UAE@XZ  0047c910 f i main.obj
 0002:00006990       ??0saTest@@QAE@PAVcfgRoot@@@Z 0047c990 f i main.obj
 0002:00006a20       ?onActivated@saTest@@MAEXPAVvHPLUGIN@@PAVvHLIST@@1H@Z 0047ca20 f i main.obj
 0002:00006a60       ??_GsaTest@@UAEPAXI@Z      0047ca60 f i main.obj
 0002:00006a60       ??_EsaTest@@UAEPAXI@Z      0047ca60 f i main.obj
 0002:00006ad0       ??1saTest@@UAE@XZ          0047cad0 f i main.obj
 0002:00006b50       ??0saLaunch@@QAE@PAVcfgRoot@@@Z 0047cb50 f   main.obj
 0002:00006d20       ??_GsaLaunch@@UAEPAXI@Z    0047cd20 f i main.obj
 0002:00006d20       ??_EsaLaunch@@UAEPAXI@Z    0047cd20 f i main.obj
 0002:00006d90       ??1saLaunch@@UAE@XZ        0047cd90 f   main.obj
 0002:00006e70       ?getMasterPlugin@vPluginLoader@@QBEPAVrmxMasterPlugin@@XZ 0047ce70 f i main.obj
 0002:00006eb0       ?onActivated@saLaunch@@MAEXPAVvHPLUGIN@@PAVvHLIST@@1H@Z 0047ceb0 f   main.obj
 0002:00007020       ?getPlugin@vPluginLoader@@QBEPAVvPlugin@@PAVvHPLUGIN@@@Z 0047d020 f i main.obj
 0002:00007090       ?list_getParam@vPlugin@@QBEPBDPAVvHLIST@@PBD@Z 0047d090 f i main.obj
 0002:00007120       ??0saLaunchThread@@QAE@PBD0@Z 0047d120 f i main.obj
 0002:00007200       ??0rmxString@@QAE@PBD@Z    0047d200 f i main.obj
 0002:00007270       ??1rmxString@@UAE@XZ       0047d270 f i main.obj
 0002:000072d0       ??_GrmxString@@UAEPAXI@Z   0047d2d0 f i main.obj
 0002:000072d0       ??_ErmxString@@UAEPAXI@Z   0047d2d0 f i main.obj
 0002:00007340       ?onThreadPreBegin@rmxThread@@MAEXXZ 0047d340 f i main.obj
 0002:00007380       ?onThreadPostBegin@rmxThread@@MAEXXZ 0047d380 f i main.obj
 0002:000073c0       ?onThreadPreEnd@rmxThread@@MAEXXZ 0047d3c0 f i main.obj
 0002:00007400       ?onThreadPostEnd@rmxThread@@MAEXXZ 0047d400 f i main.obj
 0002:00007440       ?onPriorityChange@rmxThread@@MAEXXZ 0047d440 f i main.obj
 0002:00007480       ??_GsaLaunchThread@@UAEPAXI@Z 0047d480 f i main.obj
 0002:00007480       ??_EsaLaunchThread@@UAEPAXI@Z 0047d480 f i main.obj
 0002:000074f0       ??1saLaunchThread@@UAE@XZ  0047d4f0 f i main.obj
 0002:000075b0       ?threadProc@saLaunchThread@@UAEHXZ 0047d5b0 f   main.obj
 0002:00007740       ?getBuffer@rmxUtf8ToWide@@QAEPB_WXZ 0047d740 f i main.obj
 0002:00007780       ??BCBString@Bstrlib@@QBEPBDXZ 0047d780 f i main.obj
 0002:000077c0       ?threadProc@rmxThread@@UAEHXZ 0047d7c0 f i main.obj
 0002:00007810       ?onItemMoved@?$rmxList@PAVcfgBase@@@@MAEXPAVcfgBase@@0@Z 0047d810 f i main.obj
 0002:00007850       ?hasItem@?$rmxList@PAVvPlugin@@@@QBEHPAVvPlugin@@@Z 0047d850 f i main.obj
 0002:000078b0       ?findItem@?$rmxList@PAVvPlugin@@@@ABEPAUvtagLIST@1@PAVvPlugin@@@Z 0047d8b0 f i main.obj
 0002:00007990       ??_EsaExitFunction@@WCI@AEPAXI@Z 0047d990 f i main.obj
 0002:000079a0       ??_EsaExitFunction@@WEI@AEPAXI@Z 0047d9a0 f i main.obj
 0002:000079b0       ??_EsaLaunch@@WCI@AEPAXI@Z 0047d9b0 f i main.obj
 0002:000079c0       ??_EsaLaunch@@WEI@AEPAXI@Z 0047d9c0 f i main.obj
 0002:000079d0       ??_EsaTest@@WCI@AEPAXI@Z   0047d9d0 f i main.obj
 0002:000079e0       ??_EsaTest@@WEI@AEPAXI@Z   0047d9e0 f i main.obj
 0002:000079ea       _SetProcessWorkingSetSize@12 0047d9ea f   kernel32:KERNEL32.dll
 0002:000079f0       _GetCurrentProcess@0       0047d9f0 f   kernel32:KERNEL32.dll
 0002:000079f6       _DispatchMessageW@4        0047d9f6 f   user32:USER32.dll
 0002:000079fc       _TranslateMessage@4        0047d9fc f   user32:USER32.dll
 0002:00007a02       _MessageBoxW@16            0047da02 f   user32:USER32.dll
 0002:00007a08       _GetMessageW@16            0047da08 f   user32:USER32.dll
 0002:00007a0e       _ShowWindow@8              0047da0e f   user32:USER32.dll
 0002:00007a14       _SendMessageW@16           0047da14 f   user32:USER32.dll
 0002:00007a1a       _FindWindowA@8             0047da1a f   user32:USER32.dll
 0002:00007a20       _PostQuitMessage@4         0047da20 f   user32:USER32.dll
 0002:00007a26       _ShellExecuteW@24          0047da26 f   shell32:SHELL32.dll
 0002:00007a30       ??0vPluginLoader@@QAE@XZ   0047da30 f   rmx core:Loader.obj
 0002:00007f40       ?beginTransaction@vSqlite@@QAEHXZ 0047df40 f i rmx core:Loader.obj
 0002:00007fa0       ?commitTransaction@vSqlite@@QAEHXZ 0047dfa0 f i rmx core:Loader.obj
 0002:00008000       ??0rmx_server@@QAE@XZ      0047e000 f i rmx core:Loader.obj
 0002:000080e0       ?onTimer@rmx_server@@UAEXK@Z 0047e0e0 f i rmx core:Loader.obj
 0002:00008140       ??_Ermx_server@@UAEPAXI@Z  0047e140 f i rmx core:Loader.obj
 0002:00008140       ??_Grmx_server@@UAEPAXI@Z  0047e140 f i rmx core:Loader.obj
 0002:000081b0       ??1rmx_server@@UAE@XZ      0047e1b0 f i rmx core:Loader.obj
 0002:00008290       ??_EvPluginLoader@@UAEPAXI@Z 0047e290 f i rmx core:Loader.obj
 0002:00008290       ??_GvPluginLoader@@UAEPAXI@Z 0047e290 f i rmx core:Loader.obj
 0002:00008300       ??1vPluginLoader@@UAE@XZ   0047e300 f   rmx core:Loader.obj
 0002:00008630       ?onInit@vPluginLoader@@MAEXXZ 0047e630 f   rmx core:Loader.obj
 0002:00008860       ?initMasterPlugin@vPluginLoader@@MAEXPAVrmxMasterPlugin@@@Z 0047e860 f   rmx core:Loader.obj
 0002:00008fe0       ?alignCenter@cfgNull@@QAEPAV1@XZ 0047efe0 f i rmx core:Loader.obj
 0002:00009040       ?setUrl@cfgLink@@QAEPAV1@PBD@Z 0047f040 f i rmx core:Loader.obj
 0002:000090a0       ?setTitle@cfgTree@@QAEXPBD@Z 0047f0a0 f i rmx core:Loader.obj
 0002:00009100       ??0cfgLabel@@QAE@PBDPAVcfgBase@@1PAVvHPARAMLIST@@@Z 0047f100 f i rmx core:Loader.obj
 0002:00009220       ?setSavable@rmxData@@QAEX_N@Z 0047f220 f i rmx core:Loader.obj
 0002:00009290       ?cb_cfgMessage@cbBase@@MAEXW4cbMessage@@PAVcfgBase@@PBVprmBase@@2@Z 0047f290 f i rmx core:Loader.obj
 0002:000092d0       ?onMessage@cfgBase@@UAE_JPAVvHPLUGIN@@_J11@Z 0047f2d0 f i rmx core:Loader.obj
 0002:00009310       ?validateParam@cfgLabel@@MAEXPAVprmBase@@@Z 0047f310 f i rmx core:Loader.obj
 0002:000093f0       ?isNamed@prmBase@@QBE_NPBD@Z 0047f3f0 f i rmx core:Loader.obj
 0002:00009450       ?validateParam@cfgBase@@UAEXPAVprmBase@@@Z 0047f450 f i rmx core:Loader.obj
 0002:00009490       ?setLabel@cfgLabel@@QAEPAV1@PBD@Z 0047f490 f i rmx core:Loader.obj
 0002:000094f0       ?alignCenter@cfgLabel@@QAEPAV1@XZ 0047f4f0 f i rmx core:Loader.obj
 0002:00009550       ??_EcfgLabel@@UAEPAXI@Z    0047f550 f i rmx core:Loader.obj
 0002:00009550       ??_GcfgLabel@@UAEPAXI@Z    0047f550 f i rmx core:Loader.obj
 0002:000095c0       ??1cfgLabel@@UAE@XZ        0047f5c0 f i rmx core:Loader.obj
 0002:00009640       ?getHandle@vPlugin@@QBEPAVvHPLUGIN@@XZ 0047f640 f i rmx core:Loader.obj
 0002:00009680       ??0vConsolePluginCallback@@QAE@XZ 0047f680 f i rmx core:Loader.obj
 0002:000096e0       ??0vPluginCallback@@QAE@XZ 0047f6e0 f i rmx core:Loader.obj
 0002:00009750       ?appendCallback@vPluginLoader@@QAEXPAVvPluginCallback@@@Z 0047f750 f i rmx core:Loader.obj
 0002:000097b0       ?onAppendPlugin@vPluginCallback@@MAEXPAVvPlugin@@@Z 0047f7b0 f i rmx core:Loader.obj
 0002:000097f0       ?onRemovePlugin@vPluginCallback@@MAEXPAVvPlugin@@@Z 0047f7f0 f i rmx core:Loader.obj
 0002:00009830       ??_EvPluginCallback@@UAEPAXI@Z 0047f830 f i rmx core:Loader.obj
 0002:00009830       ??_GvPluginCallback@@UAEPAXI@Z 0047f830 f i rmx core:Loader.obj
 0002:000098a0       ??1vPluginCallback@@UAE@XZ 0047f8a0 f i rmx core:Loader.obj
 0002:00009910       ?removeCallback@vPluginLoader@@QAEXPAVvPluginCallback@@@Z 0047f910 f i rmx core:Loader.obj
 0002:00009970       ?onAppendPlugin@vConsolePluginCallback@@UAEXPAVvPlugin@@@Z 0047f970 f i rmx core:Loader.obj
 0002:00009a60       ??_EvConsolePluginCallback@@UAEPAXI@Z 0047fa60 f i rmx core:Loader.obj
 0002:00009a60       ??_GvConsolePluginCallback@@UAEPAXI@Z 0047fa60 f i rmx core:Loader.obj
 0002:00009ad0       ??1vConsolePluginCallback@@UAE@XZ 0047fad0 f i rmx core:Loader.obj
 0002:00009b30       ??0vFunctionPluginCallback@@QAE@XZ 0047fb30 f i rmx core:Loader.obj
 0002:00009c70       ?getFirstPlugin@vPluginLoader@@QBEPAVvPlugin@@XZ 0047fc70 f i rmx core:Loader.obj
 0002:00009cd0       ?getNextPlugin@vPluginLoader@@QBEPAVvPlugin@@PAV2@@Z 0047fcd0 f i rmx core:Loader.obj
 0002:00009d30       ??0cbRootFunction@@QAE@PAVvHPLUGIN@@@Z 0047fd30 f i rmx core:Loader.obj
 0002:00009f50       ?root_getFirstChild@vHPLUGIN@@QBEPAVvHLIST@@XZ 0047ff50 f i rmx core:Loader.obj
 0002:00009fb0       ?root_getNextChild@vHPLUGIN@@QBEPAVvHLIST@@PAV2@@Z 0047ffb0 f i rmx core:Loader.obj
 0002:0000a020       ?getRemotePlugin@cbCore@@QBEPAVvHPLUGIN@@XZ 00480020 f i rmx core:Loader.obj
 0002:0000a060       ?cb_onDelete@cbCore@@UAEXPAVvHLIST@@@Z 00480060 f i rmx core:Loader.obj
 0002:0000a0a0       ?cb_cfgMessage@cbCore@@UAEXW4cbMessage@@PBD@Z 004800a0 f i rmx core:Loader.obj
 0002:0000a0e0       ?cb_cfgMessage@cbCore@@UAEXW4cbMessage@@_J@Z 004800e0 f i rmx core:Loader.obj
 0002:0000a120       ?cb_cfgMessage@cbCore@@UAEXW4cbMessage@@PAVvHPARAM@@1@Z 00480120 f i rmx core:Loader.obj
 0002:0000a160       ??0cbRoot@@IAE@PAVvHPLUGIN@@@Z 00480160 f i rmx core:Loader.obj
 0002:0000a1d0       ?cb_cfgMessage@cbCore@@UAEXW4cbMessage@@PAVvHLIST@@1@Z 004801d0 f i rmx core:Loader.obj
 0002:0000a210       ??1cbRoot@@UAE@XZ          00480210 f i rmx core:Loader.obj
 0002:0000a270       ??_GcbRoot@@UAEPAXI@Z      00480270 f i rmx core:Loader.obj
 0002:0000a270       ??_EcbRoot@@UAEPAXI@Z      00480270 f i rmx core:Loader.obj
 0002:0000a2e0       ?cb_onInsertChild@cbRootFunction@@MAEXPAVvHLIST@@0@Z 004802e0 f i rmx core:Loader.obj
 0002:0000a4c0       ?cb_cfgMessage@cbRootFunction@@MAEXW4cbMessage@@PAVvHLIST@@1@Z 004804c0 f i rmx core:Loader.obj
 0002:0000a6b0       ??_EcbRootFunction@@UAEPAXI@Z 004806b0 f i rmx core:Loader.obj
 0002:0000a6b0       ??_GcbRootFunction@@UAEPAXI@Z 004806b0 f i rmx core:Loader.obj
 0002:0000a720       ??1cbRootFunction@@UAE@XZ  00480720 f i rmx core:Loader.obj
 0002:0000a880       ?onAppendPlugin@vFunctionPluginCallback@@MAEXPAVvPlugin@@@Z 00480880 f i rmx core:Loader.obj
 0002:0000a970       ??_GvFunctionPluginCallback@@UAEPAXI@Z 00480970 f i rmx core:Loader.obj
 0002:0000a970       ??_EvFunctionPluginCallback@@UAEPAXI@Z 00480970 f i rmx core:Loader.obj
 0002:0000a9e0       ??1vFunctionPluginCallback@@UAE@XZ 004809e0 f i rmx core:Loader.obj
 0002:0000aa40       ??0sqlPluginCallback@@QAE@XZ 00480a40 f i rmx core:Loader.obj
 0002:0000abc0       ?sql@vPluginLoader@@QBEPAVvSqlite@@XZ 00480bc0 f i rmx core:Loader.obj
 0002:0000ac00       ?onAppendPlugin@sqlPluginCallback@@MAEXPAVvPlugin@@@Z 00480c00 f i rmx core:Loader.obj
 0002:0000ad30       ??_GsqlPluginCallback@@UAEPAXI@Z 00480d30 f i rmx core:Loader.obj
 0002:0000ad30       ??_EsqlPluginCallback@@UAEPAXI@Z 00480d30 f i rmx core:Loader.obj
 0002:0000ada0       ??1sqlPluginCallback@@UAE@XZ 00480da0 f i rmx core:Loader.obj
 0002:0000ae00       ??0funcNone@@QAE@PAVcfgRoot@@@Z 00480e00 f i rmx core:Loader.obj
 0002:0000ae90       ?onActivated@funcNone@@MAEXPAVvHPLUGIN@@PAVvHLIST@@1@Z 00480e90 f i rmx core:Loader.obj
 0002:0000aed0       ??_GfuncNone@@UAEPAXI@Z    00480ed0 f i rmx core:Loader.obj
 0002:0000aed0       ??_EfuncNone@@UAEPAXI@Z    00480ed0 f i rmx core:Loader.obj
 0002:0000af40       ??1funcNone@@UAE@XZ        00480f40 f i rmx core:Loader.obj
 0002:0000afc0       ?onTimer@vPluginLoader@@MAEXK@Z 00480fc0 f   rmx core:Loader.obj
 0002:0000b150       ?isLoaded@vPluginLoader@@QBEHXZ 00481150 f i rmx core:Loader.obj
 0002:0000b190       ?getSetting@vPluginLoader@@QBEPBDPBD@Z 00481190 f   rmx core:Loader.obj
 0002:0000b1f0       ?onRmxPostInit@vPluginLoader@@MAEHXZ 004811f0 f   rmx core:Loader.obj
 0002:0000b2b0       ?onQuit@vPluginLoader@@MAEXXZ 004812b0 f   rmx core:Loader.obj
 0002:0000b340       ?appendPlugin@vPluginLoader@@QAEXPAVvPlugin@@@Z 00481340 f   rmx core:Loader.obj
 0002:0000b430       ?getName@vPlugin@@QBEPBDXZ 00481430 f i rmx core:Loader.obj
 0002:0000b4a0       ?list_getName@vPlugin@@QBEPBDPAVvHLIST@@@Z 004814a0 f i rmx core:Loader.obj
 0002:0000b520       ?removePlugin@vPluginLoader@@QAEXPAVvPlugin@@@Z 00481520 f   rmx core:Loader.obj
 0002:0000b610       ?makeDirectories@vPluginLoader@@QAEXXZ 00481610 f   rmx core:Loader.obj
 0002:0000b770       ?loadPlugin@vPluginLoader@@QAEPAVvHPLUGIN@@PBD@Z 00481770 f   rmx core:Loader.obj
 0002:0000b870       ?getPlugin@vPluginManager@@QBEPAVvPlugin@@XZ 00481870 f i rmx core:Loader.obj
 0002:0000b8b0       ?loadPlugin@vPluginLoader@@UAEPAVvPlugin@@PBDPAUHINSTANCE__@@@Z 004818b0 f   rmx core:Loader.obj
 0002:0000bb20       ?unloadPlugin@vPluginLoader@@QAEHPAVvHPLUGIN@@@Z 00481b20 f   rmx core:Loader.obj
 0002:0000bbd0       ?removePlugin@vPluginLoader@@QAEXPAUHINSTANCE__@@@Z 00481bd0 f   rmx core:Loader.obj
 0002:0000bc70       ?gethMod@vPlugin@@QBEPAUHINSTANCE__@@XZ 00481c70 f i rmx core:Loader.obj
 0002:0000bcb0       ?isMaster@vPluginLoader@@QAEHPBVvPlugin@@@Z 00481cb0 f   rmx core:Loader.obj
 0002:0000bd00       ?getPlugin@vPluginLoader@@QBEPAVvPlugin@@PBD@Z 00481d00 f   rmx core:Loader.obj
 0002:0000bde0       ?getPluginById@vPluginLoader@@QBEPAVvPlugin@@_J@Z 00481de0 f   rmx core:Loader.obj
 0002:0000bea0       ?getPluginId@vPlugin@@QBE_JXZ 00481ea0 f i rmx core:Loader.obj
 0002:0000bf10       ?list_getId@vPlugin@@QBE_JPAVvHLIST@@@Z 00481f10 f i rmx core:Loader.obj
 0002:0000bfa0       ?getPluginByFilename@vPluginLoader@@QBEPAVvPlugin@@PBD@Z 00481fa0 f   rmx core:Loader.obj
 0002:0000c070       ?getFilename@vPlugin@@QBEPBDXZ 00482070 f i rmx core:Loader.obj
 0002:0000c0d0       ?getMasterHandle@vPluginLoader@@QBEPAVvHPLUGIN@@XZ 004820d0 f   rmx core:Loader.obj
 0002:0000c130       ?getPluginTree@vPluginLoader@@QAEPAVcfgTree@@XZ 00482130 f   rmx core:Loader.obj
 0002:0000c290       ?scanForPlugins@vPluginLoader@@QAEXXZ 00482290 f   rmx core:Loader.obj
 0002:0000c460       ?destroy@vPluginLoader@@QAEXXZ 00482460 f   rmx core:Loader.obj
 0002:0000c4c0       ?destroyRmxCore@vPluginLoader@@AAEXXZ 004824c0 f   rmx core:Loader.obj
 0002:0000c590       ??0?$rmxList@PAVvPlugin@@@@QAE@XZ 00482590 f i rmx core:Loader.obj
 0002:0000c5f0       ??1?$rmxList@PAVvPlugin@@@@QAE@XZ 004825f0 f i rmx core:Loader.obj
 0002:0000c650       ?onInsertItem@?$rmxList@PAVvPlugin@@@@MAEXPAVvPlugin@@0@Z 00482650 f i rmx core:Loader.obj
 0002:0000c690       ?onDelete@?$rmxList@PAVvPlugin@@@@MAEXPAVvPlugin@@@Z 00482690 f i rmx core:Loader.obj
 0002:0000c6d0       ?onItemMoved@?$rmxList@PAVvPlugin@@@@MAEXPAVvPlugin@@0@Z 004826d0 f i rmx core:Loader.obj
 0002:0000c710       ?appendItem@?$rmxList@PAVvPlugin@@@@QAEHPAVvPlugin@@@Z 00482710 f i rmx core:Loader.obj
 0002:0000c770       ?removeItem@?$rmxList@PAVvPlugin@@@@QAEHPAVvPlugin@@@Z 00482770 f i rmx core:Loader.obj
 0002:0000c800       ?getFirstItem@?$rmxList@PAVvPlugin@@@@QBEPAVvPlugin@@XZ 00482800 f i rmx core:Loader.obj
 0002:0000c880       ?getCachedItem@?$rmxList@PAVvPlugin@@@@QBEPAVvPlugin@@XZ 00482880 f i rmx core:Loader.obj
 0002:0000c8f0       ?getNextItem@?$rmxList@PAVvPlugin@@@@QBEPAVvPlugin@@PAV2@@Z 004828f0 f i rmx core:Loader.obj
 0002:0000c980       ??0?$rmxList@PAVvPluginCallback@@@@QAE@XZ 00482980 f i rmx core:Loader.obj
 0002:0000c9e0       ??1?$rmxList@PAVvPluginCallback@@@@QAE@XZ 004829e0 f i rmx core:Loader.obj
 0002:0000ca40       ?onInsertItem@?$rmxList@PAVvPluginCallback@@@@MAEXPAVvPluginCallback@@0@Z 00482a40 f i rmx core:Loader.obj
 0002:0000ca80       ?onDelete@?$rmxList@PAVvPluginCallback@@@@MAEXPAVvPluginCallback@@@Z 00482a80 f i rmx core:Loader.obj
 0002:0000cac0       ?onItemMoved@?$rmxList@PAVvPluginCallback@@@@MAEXPAVvPluginCallback@@0@Z 00482ac0 f i rmx core:Loader.obj
 0002:0000cb00       ?appendItem@?$rmxList@PAVvPluginCallback@@@@QAEHPAVvPluginCallback@@@Z 00482b00 f i rmx core:Loader.obj
 0002:0000cb60       ?removeItem@?$rmxList@PAVvPluginCallback@@@@QAEHPAVvPluginCallback@@@Z 00482b60 f i rmx core:Loader.obj
 0002:0000cbf0       ?getFirstItem@?$rmxList@PAVvPluginCallback@@@@QBEPAVvPluginCallback@@XZ 00482bf0 f i rmx core:Loader.obj
 0002:0000cc70       ?getNextItem@?$rmxList@PAVvPluginCallback@@@@QBEPAVvPluginCallback@@PAV2@@Z 00482c70 f i rmx core:Loader.obj
 0002:0000cd00       ?insertItem@?$rmxList@PAVvPlugin@@@@QAEHPAVvPlugin@@0@Z 00482d00 f i rmx core:Loader.obj
 0002:0000cea0       ?emptyItems@?$rmxList@PAVvPlugin@@@@QAEXXZ 00482ea0 f i rmx core:Loader.obj
 0002:0000cf10       ?zeroList@?$rmxList@PAVvPlugin@@@@AAEXXZ 00482f10 f i rmx core:Loader.obj
 0002:0000cf80       ?removeOld@?$rmxList@PAVvPlugin@@@@AAEXPAUvtagLIST@1@@Z 00482f80 f i rmx core:Loader.obj
 0002:0000d0e0       ?insertItem@?$rmxList@PAVvPluginCallback@@@@QAEHPAVvPluginCallback@@0@Z 004830e0 f i rmx core:Loader.obj
 0002:0000d280       ?emptyItems@?$rmxList@PAVvPluginCallback@@@@QAEXXZ 00483280 f i rmx core:Loader.obj
 0002:0000d2f0       ?zeroList@?$rmxList@PAVvPluginCallback@@@@AAEXXZ 004832f0 f i rmx core:Loader.obj
 0002:0000d360       ?removeOld@?$rmxList@PAVvPluginCallback@@@@AAEXPAUvtagLIST@1@@Z 00483360 f i rmx core:Loader.obj
 0002:0000d4c0       ?findItem@?$rmxList@PAVvPluginCallback@@@@ABEPAUvtagLIST@1@PAVvPluginCallback@@@Z 004834c0 f i rmx core:Loader.obj
 0002:0000d5a0       ?createNew@?$rmxList@PAVvPlugin@@@@AAEPAUvtagLIST@1@PAVvPlugin@@@Z 004835a0 f i rmx core:Loader.obj
 0002:0000d640       ?createNew@?$rmxList@PAVvPluginCallback@@@@AAEPAUvtagLIST@1@PAVvPluginCallback@@@Z 00483640 f i rmx core:Loader.obj
 0002:0000d6e0       ??_EfuncNone@@WCI@AEPAXI@Z 004836e0 f i rmx core:Loader.obj
 0002:0000d6f0       ??_EfuncNone@@WEI@AEPAXI@Z 004836f0 f i rmx core:Loader.obj
 0002:0000d700       ??_EcfgLabel@@WCI@AEPAXI@Z 00483700 f i rmx core:Loader.obj
 0002:0000d710       ??_EcfgLabel@@WEI@AEPAXI@Z 00483710 f i rmx core:Loader.obj
 0002:0000d720       ??_Ermx_server@@WCI@AEPAXI@Z 00483720 f i rmx core:Loader.obj
 0002:0000d730       ??0rmxMasterPlugin@@QAE@PBD@Z 00483730 f   rmx core:rmxMasterPlugin.obj
 0002:0000d7d0       ?onInitPlugin@vPlugin@@UAEXXZ 004837d0 f i rmx core:rmxMasterPlugin.obj
 0002:0000d810       ?onPostInitPlugin@vPlugin@@UAEXXZ 00483810 f i rmx core:rmxMasterPlugin.obj
 0002:0000d850       ?external@vPlugin@@UBEHXZ  00483850 f i rmx core:rmxMasterPlugin.obj
 0002:0000d890       ?removable@vLocalPlugin@@UBEHXZ 00483890 f i rmx core:rmxMasterPlugin.obj
 0002:0000d8d0       ?getPathRootName@vLocalPlugin@@UBEPBDXZ 004838d0 f i rmx core:rmxMasterPlugin.obj
 0002:0000d910       ?getStatus@vLocalPlugin@@UAEIXZ 00483910 f i rmx core:rmxMasterPlugin.obj
 0002:0000d950       ?list_getRoot@vLocalPlugin@@UBEPAVvHLIST@@XZ 00483950 f i rmx core:rmxMasterPlugin.obj
 0002:0000d9b0       ?getListHandle@cfgBase@@QBEPAVvHLIST@@XZ 004839b0 f i rmx core:rmxMasterPlugin.obj
 0002:0000d9f0       ??_GrmxMasterPlugin@@UAEPAXI@Z 004839f0 f i rmx core:rmxMasterPlugin.obj
 0002:0000d9f0       ??_ErmxMasterPlugin@@UAEPAXI@Z 004839f0 f i rmx core:rmxMasterPlugin.obj
 0002:0000da60       ??1rmxMasterPlugin@@UAE@XZ 00483a60 f   rmx core:rmxMasterPlugin.obj
 0002:0000daf0       ?onMessage@rmxMasterPlugin@@MAE_JPAVvHPLUGIN@@_J11@Z 00483af0 f   rmx core:rmxMasterPlugin.obj
 0002:0000dcb0       ?isEnabled@cfgBase@@QBEHXZ 00483cb0 f i rmx core:rmxMasterPlugin.obj
 0002:0000dd00       ?getQueDepth@cbCoreFunction@@SAHXZ 00483d00 f i rmx core:rmxMasterPlugin.obj
 0002:0000dd40       ??_ErmxMasterPlugin@@WOI@AEPAXI@Z 00483d40 f i rmx core:rmxMasterPlugin.obj
 0002:0000dd50       ??_ErmxMasterPlugin@@WBAI@AEPAXI@Z 00483d50 f i rmx core:rmxMasterPlugin.obj
 0002:0000dd60       ??_ErmxMasterPlugin@@WMA@AEPAXI@Z 00483d60 f i rmx core:rmxMasterPlugin.obj
 0002:0000dd70       ??0vSqlite@@QAE@XZ         00483d70 f   rmx core:sqlite.obj
 0002:0000e170       ??0rmxString@@QAE@XZ       00484170 f i rmx core:sqlite.obj
 0002:0000e1d0       ?getLastError@vSqlite@@QBEPBDXZ 004841d0 f i rmx core:sqlite.obj
 0002:0000e230       ??_GvSqlite@@UAEPAXI@Z     00484230 f i rmx core:sqlite.obj
 0002:0000e230       ??_EvSqlite@@UAEPAXI@Z     00484230 f i rmx core:sqlite.obj
 0002:0000e2a0       ??1vSqlite@@UAE@XZ         004842a0 f   rmx core:sqlite.obj
 0002:0000e330       ?sql@vSqlite@@QAEHPBD@Z    00484330 f   rmx core:sqlite.obj
 0002:0000e470       ?sqlPrepare@vSqlite@@QAEPAUsqlite3_stmt@@PBDPAPBDHP6AXPAX@Z@Z 00484470 f   rmx core:sqlite.obj
 0002:0000e5e0       ?sqlPrepared@vSqlite@@QAEHPBDPAPBDHP6AXPAX@Z@Z 004845e0 f   rmx core:sqlite.obj
 0002:0000e680       ?sqlGetCellInt@vSqlite@@QAEHPBD00@Z 00484680 f   rmx core:sqlite.obj
 0002:0000e8d0       ?sqlGetCellStr@vSqlite@@QAEPBDPBD00@Z 004848d0 f   rmx core:sqlite.obj
 0002:0000e910       ?setSetting@vSqlite@@QAEHPBDD@Z 00484910 f   rmx core:sqlite.obj
 0002:0000eac0       ?setSetting@vSqlite@@QAEHPBD0@Z 00484ac0 f   rmx core:sqlite.obj
 0002:0000eb70       ?setSetting@vSqlite@@QAEHPBDH@Z 00484b70 f   rmx core:sqlite.obj
 0002:0000ec80       ?setSetting@vSqlite@@QAEHPBDN@Z 00484c80 f   rmx core:sqlite.obj
 0002:0000ed90       ?getSettingString@vSqlite@@QAEPBDPBD@Z 00484d90 f   rmx core:sqlite.obj
 0002:0000ef00       ?deleteThis@timerDelete@@QAEXXZ 00484f00 f i rmx core:sqlite.obj
 0002:0000ef60       ??0timerString@@QAE@PBD@Z  00484f60 f i rmx core:sqlite.obj
 0002:0000f030       ??0timerDelete@@QAE@XZ     00485030 f i rmx core:sqlite.obj
 0002:0000f090       ??1timerDelete@@UAE@XZ     00485090 f i rmx core:sqlite.obj
 0002:0000f0f0       ?onEvent@timerDelete@@MAEXPAX@Z 004850f0 f i rmx core:sqlite.obj
 0002:0000f1b0       ??_EtimerDelete@@UAEPAXI@Z 004851b0 f i rmx core:sqlite.obj
 0002:0000f1b0       ??_GtimerDelete@@UAEPAXI@Z 004851b0 f i rmx core:sqlite.obj
 0002:0000f220       ??_EtimerString@@UAEPAXI@Z 00485220 f i rmx core:sqlite.obj
 0002:0000f220       ??_GtimerString@@UAEPAXI@Z 00485220 f i rmx core:sqlite.obj
 0002:0000f290       ??1timerString@@UAE@XZ     00485290 f i rmx core:sqlite.obj
 0002:0000f370       ?getSettingInteger@vSqlite@@QAEHPBD@Z 00485370 f   rmx core:sqlite.obj
 0002:0000f420       ?getSettingNumber@vSqlite@@QAENPBD@Z 00485420 f   rmx core:sqlite.obj
 0002:0000f4d0       ?setMimeType@vSqlite@@QAEXPBD0@Z 004854d0 f   rmx core:sqlite.obj
 0002:0000f580       ?getMimeType@vSqlite@@QAEPBDPBD@Z 00485580 f   rmx core:sqlite.obj
 0002:0000f720       ?setPragma@vSqlite@@QAEHPBD0@Z 00485720 f   rmx core:sqlite.obj
 0002:0000f860       ?getPragma@vSqlite@@QAEPBDPBD@Z 00485860 f   rmx core:sqlite.obj
 0002:0000fab0       ?getObjectTypeId@vSqlite@@QAEHPBD_N@Z 00485ab0 f   rmx core:sqlite.obj
 0002:0000fc00       ?getParamNameId@vSqlite@@QAEHPBD_N@Z 00485c00 f   rmx core:sqlite.obj
 0002:0000fd50       ??_EtimerString@@WCA@AEPAXI@Z 00485d50 f i rmx core:sqlite.obj
 0002:0000fd60       __RMX_CORE                 00485d60 f   rmx core:Parser.obj
 0002:00012180       ?getLastPlugin@vPluginLoader@@QBEPAVvPlugin@@XZ 00488180 f i rmx core:Parser.obj
 0002:000121e0       ?getPrevPlugin@vPluginLoader@@QBEPAVvPlugin@@PAV2@@Z 004881e0 f i rmx core:Parser.obj
 0002:00012240       ?hasPlugin@vPluginLoader@@QBEHPBVvPlugin@@@Z 00488240 f i rmx core:Parser.obj
 0002:000122a0       ?getPath@vPlugin@@QBEPBDXZ 004882a0 f i rmx core:Parser.obj
 0002:00012300       ?root_getIdent@vPlugin@@QBEPAVvHLIST@@XZ 00488300 f i rmx core:Parser.obj
 0002:00012360       ?root_getList@vPlugin@@QBEPAVvHLIST@@PBD0PAVxmlParamList@@@Z 00488360 f i rmx core:Parser.obj
 0002:000123e0       ?list_delete@vPlugin@@QAEXPAVvHLIST@@@Z 004883e0 f i rmx core:Parser.obj
 0002:00012450       ?list_message@vPlugin@@QAE_JPAVvHLIST@@PAVvHPLUGIN@@_J22@Z 00488450 f i rmx core:Parser.obj
 0002:00012520       ?blockMessage@vPlugin@@QBEH_J@Z 00488520 f i rmx core:Parser.obj
 0002:00012560       ?list_setName@vPlugin@@QAEXPAVvHLIST@@PBD@Z 00488560 f i rmx core:Parser.obj
 0002:000125e0       ?list_getType@vPlugin@@QBEPBDPAVvHLIST@@@Z 004885e0 f i rmx core:Parser.obj
 0002:00012660       ?list_setId@vPlugin@@QAEXPAVvHLIST@@_J@Z 00488660 f i rmx core:Parser.obj
 0002:000126e0       ?list_onFirstLoad@vPlugin@@QAEXPAVvHLIST@@@Z 004886e0 f i rmx core:Parser.obj
 0002:00012750       ?list_getFlags@vPlugin@@QBEIPAVvHLIST@@@Z 00488750 f i rmx core:Parser.obj
 0002:000127d0       ?list_getSecurity@vPlugin@@QBEIPAVvHLIST@@@Z 004887d0 f i rmx core:Parser.obj
 0002:00012850       ?list_getSecurityEx@vPlugin@@QBEIPAVvHLIST@@@Z 00488850 f i rmx core:Parser.obj
 0002:000128d0       ?list_setSecurityEx@vPlugin@@QAEXPAVvHLIST@@H@Z 004888d0 f i rmx core:Parser.obj
 0002:00012950       ?list_isVisible@vPlugin@@QBEHPAVvHLIST@@@Z 00488950 f i rmx core:Parser.obj
 0002:000129d0       ?list_setVisible@vPlugin@@QAEXPAVvHLIST@@H@Z 004889d0 f i rmx core:Parser.obj
 0002:00012a50       ?list_hasChildrenVisible@vPlugin@@QBEHPAVvHLIST@@H@Z 00488a50 f i rmx core:Parser.obj
 0002:00012ae0       ?list_isEnabled@vPlugin@@QBEHPAVvHLIST@@@Z 00488ae0 f i rmx core:Parser.obj
 0002:00012b60       ?list_setEnabled@vPlugin@@QAEXPAVvHLIST@@H@Z 00488b60 f i rmx core:Parser.obj
 0002:00012be0       ?list_hasChildrenEnabled@vPlugin@@QBEHPAVvHLIST@@H@Z 00488be0 f i rmx core:Parser.obj
 0002:00012c70       ?list_isHighlighted@vPlugin@@QBEHPAVvHLIST@@@Z 00488c70 f i rmx core:Parser.obj
 0002:00012cf0       ?list_setHighlighted@vPlugin@@QAEXPAVvHLIST@@H@Z 00488cf0 f i rmx core:Parser.obj
 0002:00012d70       ?list_hasChildrenHighlighted@vPlugin@@QBEHPAVvHLIST@@H@Z 00488d70 f i rmx core:Parser.obj
 0002:00012e00       ?list_isExpanded@vPlugin@@QBEHPAVvHLIST@@@Z 00488e00 f i rmx core:Parser.obj
 0002:00012e80       ?list_setExpanded@vPlugin@@QAEXPAVvHLIST@@H@Z 00488e80 f i rmx core:Parser.obj
 0002:00012f00       ?list_hasChildrenExpanded@vPlugin@@QBEHPAVvHLIST@@H@Z 00488f00 f i rmx core:Parser.obj
 0002:00012f90       ?list_isSavable@vPlugin@@QBEHPAVvHLIST@@@Z 00488f90 f i rmx core:Parser.obj
 0002:00013010       ?list_setSavable@vPlugin@@QAEXPAVvHLIST@@H@Z 00489010 f i rmx core:Parser.obj
 0002:00013090       ?list_hasChildrenSavable@vPlugin@@QBEHPAVvHLIST@@H@Z 00489090 f i rmx core:Parser.obj
 0002:00013120       ?list_isReadOnly@vPlugin@@QBEHPAVvHLIST@@@Z 00489120 f i rmx core:Parser.obj
 0002:000131a0       ?list_hasChildrenReadOnly@vPlugin@@QBEHPAVvHLIST@@H@Z 004891a0 f i rmx core:Parser.obj
 0002:00013230       ?list_getListParam@vPlugin@@QBEPAVvHPARAM@@PAVvHLIST@@@Z 00489230 f i rmx core:Parser.obj
 0002:000132b0       ?list_getParamSafe@vPlugin@@QBEPBDPAVvHLIST@@PBD1@Z 004892b0 f i rmx core:Parser.obj
 0002:00013370       ?list_getParamInt@vPlugin@@QBEHPAVvHLIST@@PBD@Z 00489370 f i rmx core:Parser.obj
 0002:00013400       ?list_getParamLong@vPlugin@@QBE_JPAVvHLIST@@PBD@Z 00489400 f i rmx core:Parser.obj
 0002:000134a0       ?list_getParamNumber@vPlugin@@QBENPAVvHLIST@@PBD@Z 004894a0 f i rmx core:Parser.obj
 0002:00013530       ?list_getParamGuid@vPlugin@@QBE?AU_GUID@@PAVvHLIST@@PBD@Z 00489530 f i rmx core:Parser.obj
 0002:00013600       ?list_getParamFourCC@vPlugin@@QBEKPAVvHLIST@@PBD@Z 00489600 f i rmx core:Parser.obj
 0002:00013690       ?list_setParam@vPlugin@@QAEXPAVvHLIST@@PBD1@Z 00489690 f i rmx core:Parser.obj
 0002:00013710       ?list_setParamString@vPlugin@@QAEXPAVvHLIST@@PBD1@Z 00489710 f i rmx core:Parser.obj
 0002:00013790       ?list_setParamInt@vPlugin@@QAEXPAVvHLIST@@PBDH@Z 00489790 f i rmx core:Parser.obj
 0002:00013810       ?list_setParamLong@vPlugin@@QAEXPAVvHLIST@@PBD_J@Z 00489810 f i rmx core:Parser.obj
 0002:00013890       ?list_setParamNumber@vPlugin@@QAEXPAVvHLIST@@PBDN@Z 00489890 f i rmx core:Parser.obj
 0002:00013910       ?list_setParamGuid@vPlugin@@QAEXPAVvHLIST@@PBDU_GUID@@@Z 00489910 f i rmx core:Parser.obj
 0002:000139e0       ?list_setParamFourCC@vPlugin@@QAEXPAVvHLIST@@PBDK@Z 004899e0 f i rmx core:Parser.obj
 0002:00013a60       ?list_hasParam@vPlugin@@QBEHPAVvHLIST@@PAVvHPARAM@@@Z 00489a60 f i rmx core:Parser.obj
 0002:00013af0       ?list_hasParam@vPlugin@@QBEHPAVvHLIST@@PBD@Z 00489af0 f i rmx core:Parser.obj
 0002:00013b80       ?list_hasParams@vPlugin@@QBEHPAVvHLIST@@@Z 00489b80 f i rmx core:Parser.obj
 0002:00013c00       ?list_canEnumerateParams@vPlugin@@QBEHPAVvHLIST@@@Z 00489c00 f i rmx core:Parser.obj
 0002:00013c80       ?list_getParamCount@vPlugin@@QBEHPAVvHLIST@@@Z 00489c80 f i rmx core:Parser.obj
 0002:00013d00       ?list_getParamFirst@vPlugin@@QBEPAVvHPARAM@@PAVvHLIST@@@Z 00489d00 f i rmx core:Parser.obj
 0002:00013d80       ?list_getParamLast@vPlugin@@QBEPAVvHPARAM@@PAVvHLIST@@@Z 00489d80 f i rmx core:Parser.obj
 0002:00013e00       ?list_getParamPrev@vPlugin@@QBEPAVvHPARAM@@PAVvHLIST@@PAV2@@Z 00489e00 f i rmx core:Parser.obj
 0002:00013e90       ?list_getParamNext@vPlugin@@QBEPAVvHPARAM@@PAVvHLIST@@PAV2@@Z 00489e90 f i rmx core:Parser.obj
 0002:00013f20       ?list_getParamHandle@vPlugin@@QBEPAVvHPARAM@@PAVvHLIST@@PBD@Z 00489f20 f i rmx core:Parser.obj
 0002:00013fb0       ?list_getParamById@vPlugin@@QBEPAVvHPARAM@@PAVvHLIST@@_J@Z 00489fb0 f i rmx core:Parser.obj
 0002:00014040       ?list_getParamId@vPlugin@@QBE_JPAVvHLIST@@PBD@Z 0048a040 f i rmx core:Parser.obj
 0002:000140d0       ?list_setParamId@vPlugin@@QAEXPAVvHLIST@@PBD_J@Z 0048a0d0 f i rmx core:Parser.obj
 0002:00014150       ?list_getParamFlags@vPlugin@@QBEIPAVvHLIST@@PBD@Z 0048a150 f i rmx core:Parser.obj
 0002:000141e0       ?list_isParamSavable@vPlugin@@QBEHPAVvHLIST@@PBD@Z 0048a1e0 f i rmx core:Parser.obj
 0002:00014270       ?list_isParamReadOnly@vPlugin@@QBEHPAVvHLIST@@PBD@Z 0048a270 f i rmx core:Parser.obj
 0002:00014300       ?list_isParamUserData@vPlugin@@QBEHPAVvHLIST@@PAVvHPARAM@@@Z 0048a300 f i rmx core:Parser.obj
 0002:00014390       ?list_setParamSavable@vPlugin@@QAEXPAVvHLIST@@PBDH@Z 0048a390 f i rmx core:Parser.obj
 0002:00014410       ?list_removeParam@vPlugin@@QAEXPAVvHLIST@@PAVvHPARAM@@@Z 0048a410 f i rmx core:Parser.obj
 0002:00014490       ?list_removeParam@vPlugin@@QAEXPAVvHLIST@@PBD@Z 0048a490 f i rmx core:Parser.obj
 0002:00014510       ?list_removeAllParams@vPlugin@@QAEXPAVvHLIST@@@Z 0048a510 f i rmx core:Parser.obj
 0002:00014580       ?list_getParent@vPlugin@@QBEPAVvHLIST@@PAV2@@Z 0048a580 f i rmx core:Parser.obj
 0002:00014600       ?list_getChild@vPlugin@@QBEPAVvHLIST@@PAV2@PBD1PAVxmlParamList@@@Z 0048a600 f i rmx core:Parser.obj
 0002:00014690       ?list_getChildById@vPlugin@@QBEPAVvHLIST@@PAV2@_JH@Z 0048a690 f i rmx core:Parser.obj
 0002:00014720       ?list_hasChild@vPlugin@@QBEHPAVvHLIST@@0H@Z 0048a720 f i rmx core:Parser.obj
 0002:000147b0       ?list_hasChildCached@vPlugin@@QBEHPAVvHLIST@@0@Z 0048a7b0 f i rmx core:Parser.obj
 0002:00014840       ?list_hasChildren@vPlugin@@QBEHPAVvHLIST@@@Z 0048a840 f i rmx core:Parser.obj
 0002:000148c0       ?list_getChildCount@vPlugin@@QBEHPAVvHLIST@@@Z 0048a8c0 f i rmx core:Parser.obj
 0002:00014940       ?list_getFirstChild@vPlugin@@QBEPAVvHLIST@@PAV2@@Z 0048a940 f i rmx core:Parser.obj
 0002:000149c0       ?list_getLastChild@vPlugin@@QBEPAVvHLIST@@PAV2@@Z 0048a9c0 f i rmx core:Parser.obj
 0002:00014a40       ?list_getPrevChild@vPlugin@@QBEPAVvHLIST@@PAV2@0@Z 0048aa40 f i rmx core:Parser.obj
 0002:00014ad0       ?list_getNextChild@vPlugin@@QBEPAVvHLIST@@PAV2@0@Z 0048aad0 f i rmx core:Parser.obj
 0002:00014b60       ?list_newChild@vPlugin@@QAEPAVvHLIST@@PAV2@PBD1PAVxmlParamList@@@Z 0048ab60 f i rmx core:Parser.obj
 0002:00014bf0       ?list_removeAllChildren@vPlugin@@QAEXPAVvHLIST@@@Z 0048abf0 f i rmx core:Parser.obj
 0002:00014c60       ?list_moveUp@vPlugin@@QAEXPAVvHLIST@@@Z 0048ac60 f i rmx core:Parser.obj
 0002:00014cd0       ?list_moveDown@vPlugin@@QAEXPAVvHLIST@@@Z 0048acd0 f i rmx core:Parser.obj
 0002:00014d40       ?list_moveBegining@vPlugin@@QAEXPAVvHLIST@@@Z 0048ad40 f i rmx core:Parser.obj
 0002:00014db0       ?list_moveEnd@vPlugin@@QAEXPAVvHLIST@@@Z 0048adb0 f i rmx core:Parser.obj
 0002:00014e20       ?list_moveChild@vPlugin@@QAEXPAVvHLIST@@00@Z 0048ae20 f i rmx core:Parser.obj
 0002:00014ea0       ?param_getName@vPlugin@@QBEPBDPAVvHPARAM@@@Z 0048aea0 f i rmx core:Parser.obj
 0002:00014f20       ?param_getFlags@vPlugin@@QBEIPAVvHPARAM@@@Z 0048af20 f i rmx core:Parser.obj
 0002:00014fa0       ?param_getId@vPlugin@@QBE_JPAVvHPARAM@@@Z 0048afa0 f i rmx core:Parser.obj
 0002:00015030       ?param_setId@vPlugin@@QAEXPAVvHPARAM@@_J@Z 0048b030 f i rmx core:Parser.obj
 0002:000150b0       ?param_getSecurity@vPlugin@@QBEIPAVvHPARAM@@@Z 0048b0b0 f i rmx core:Parser.obj
 0002:00015130       ?param_getSecurityEx@vPlugin@@QBEIPAVvHPARAM@@@Z 0048b130 f i rmx core:Parser.obj
 0002:000151b0       ?param_setSecurityEx@vPlugin@@QAEXPAVvHPARAM@@H@Z 0048b1b0 f i rmx core:Parser.obj
 0002:00015230       ?param_getValue@vPlugin@@QBEPBDPAVvHPARAM@@@Z 0048b230 f i rmx core:Parser.obj
 0002:000152b0       ?param_getValueInt@vPlugin@@QBEHPAVvHPARAM@@@Z 0048b2b0 f i rmx core:Parser.obj
 0002:00015330       ?param_getValueLong@vPlugin@@QBE_JPAVvHPARAM@@@Z 0048b330 f i rmx core:Parser.obj
 0002:000153c0       ?param_getValueNumber@vPlugin@@QBENPAVvHPARAM@@@Z 0048b3c0 f i rmx core:Parser.obj
 0002:00015440       ?param_getValueGuid@vPlugin@@QBE?AU_GUID@@PAVvHPARAM@@@Z 0048b440 f i rmx core:Parser.obj
 0002:00015510       ?param_getValueFourCC@vPlugin@@QBEKPAVvHPARAM@@@Z 0048b510 f i rmx core:Parser.obj
 0002:00015590       ?param_setValue@vPlugin@@QAEXPAVvHPARAM@@PBD@Z 0048b590 f i rmx core:Parser.obj
 0002:00015610       ?param_setValueString@vPlugin@@QAEXPAVvHPARAM@@PBD@Z 0048b610 f i rmx core:Parser.obj
 0002:00015690       ?param_setValueInt@vPlugin@@QAEXPAVvHPARAM@@H@Z 0048b690 f i rmx core:Parser.obj
 0002:00015710       ?param_setValueLong@vPlugin@@QAEXPAVvHPARAM@@_J@Z 0048b710 f i rmx core:Parser.obj
 0002:00015790       ?param_setValueNumber@vPlugin@@QAEXPAVvHPARAM@@N@Z 0048b790 f i rmx core:Parser.obj
 0002:00015810       ?param_setValueGuid@vPlugin@@QAEXPAVvHPARAM@@U_GUID@@@Z 0048b810 f i rmx core:Parser.obj
 0002:000158d0       ?param_setValueFourCC@vPlugin@@QAEXPAVvHPARAM@@K@Z 0048b8d0 f i rmx core:Parser.obj
 0002:00015950       ?param_isNull@vPlugin@@QBEHPAVvHPARAM@@@Z 0048b950 f i rmx core:Parser.obj
 0002:000159d0       ?param_isString@vPlugin@@QBEHPAVvHPARAM@@@Z 0048b9d0 f i rmx core:Parser.obj
 0002:00015a50       ?param_isInteger@vPlugin@@QBEHPAVvHPARAM@@@Z 0048ba50 f i rmx core:Parser.obj
 0002:00015ad0       ?param_isLong@vPlugin@@QBEHPAVvHPARAM@@@Z 0048bad0 f i rmx core:Parser.obj
 0002:00015b50       ?param_isNumber@vPlugin@@QBEHPAVvHPARAM@@@Z 0048bb50 f i rmx core:Parser.obj
 0002:00015bd0       ?param_isGuid@vPlugin@@QBEHPAVvHPARAM@@@Z 0048bbd0 f i rmx core:Parser.obj
 0002:00015c50       ?param_isFourCC@vPlugin@@QBEHPAVvHPARAM@@@Z 0048bc50 f i rmx core:Parser.obj
 0002:00015cd0       ?param_isSavable@vPlugin@@QBEHPAVvHPARAM@@@Z 0048bcd0 f i rmx core:Parser.obj
 0002:00015d50       ?param_isReadOnly@vPlugin@@QBEHPAVvHPARAM@@@Z 0048bd50 f i rmx core:Parser.obj
 0002:00015dd0       ?RmxMsg@vPlugin@@IBEXIIPBXU_GUID@@@Z 0048bdd0 f i rmx core:Parser.obj
 0002:00015eb0       ?getRemoteConfig@cbCore@@QBEPAVvHLIST@@XZ 0048beb0 f i rmx core:Parser.obj
 0002:00015ef0       ?getId@cbCore@@QBE_JXZ     0048bef0 f i rmx core:Parser.obj
 0002:00015f50       ?isVisible@cbCore@@QBEHXZ  0048bf50 f i rmx core:Parser.obj
 0002:00015fb0       ?isEnabled@cbCore@@QBEHXZ  0048bfb0 f i rmx core:Parser.obj
 0002:00016010       ?getParamCount@cbCore@@QBEHXZ 0048c010 f i rmx core:Parser.obj
 0002:00016070       ?getFirstCallback@cbCoreConsole@@SAPAV1@XZ 0048c070 f i rmx core:Parser.obj
 0002:000160c0       ?getLastCallback@cbCoreConsole@@SAPAV1@XZ 0048c0c0 f i rmx core:Parser.obj
 0002:00016110       ?getPrevCallback@cbCoreConsole@@SAPAV1@PAV1@@Z 0048c110 f i rmx core:Parser.obj
 0002:00016160       ?getNextCallback@cbCoreConsole@@SAPAV1@PAV1@@Z 0048c160 f i rmx core:Parser.obj
 0002:000161b0       ?getFunctionName@cbCoreFunction@@QBEPBDXZ 0048c1b0 f i rmx core:Parser.obj
 0002:00016200       ?getName@cbCore@@QBEPBDXZ  0048c200 f i rmx core:Parser.obj
 0002:00016260       ?getScriptName@cbCoreFunction@@QBEPBDXZ 0048c260 f i rmx core:Parser.obj
 0002:000162c0       ?getParam@cbCore@@QBEPBDPBD@Z 0048c2c0 f i rmx core:Parser.obj
 0002:00016330       ?getFirstFunction@cbCoreFunction@@SAPAV1@XZ 0048c330 f i rmx core:Parser.obj
 0002:00016380       ?getLastFunction@cbCoreFunction@@SAPAV1@XZ 0048c380 f i rmx core:Parser.obj
 0002:000163d0       ?getPrevFunction@cbCoreFunction@@SAPAV1@PAV1@@Z 0048c3d0 f i rmx core:Parser.obj
 0002:00016420       ?getNextFunction@cbCoreFunction@@SAPAV1@PAV1@@Z 0048c420 f i rmx core:Parser.obj
 0002:00016470       ?getFirstChildFunction@cbCoreFunction@@QAEPAV1@XZ 0048c470 f i rmx core:Parser.obj
 0002:000164d0       ?getLastChildFunction@cbCoreFunction@@QAEPAV1@XZ 0048c4d0 f i rmx core:Parser.obj
 0002:00016530       ?getPrevChildFunction@cbCoreFunction@@QAEPAV1@PAV1@@Z 0048c530 f i rmx core:Parser.obj
 0002:00016590       ?getNextChildFunction@cbCoreFunction@@QAEPAV1@PAV1@@Z 0048c590 f i rmx core:Parser.obj
 0002:000165f0       ?getFunctionType@cbCoreFunction@@QBEHXZ 0048c5f0 f i rmx core:Parser.obj
 0002:00016630       ?getFunctionParent@cbCoreFunction@@QBEPAV1@XZ 0048c630 f i rmx core:Parser.obj
 0002:00016670       ?message@plugCallback@@QAEXPAUrmxMsg@@@Z 0048c670 f i rmx core:Parser.obj
 0002:000166f0       ?getItemValue@?$vNullStringPairList@PBD@@QAEPBDPBD@Z 0048c6f0 f i rmx core:Parser.obj
 0002:00016780       ?getFirstName@?$vNullStringPairList@PBD@@QAEPBDXZ 0048c780 f i rmx core:Parser.obj
 0002:00016800       ?getLastName@?$vNullStringPairList@PBD@@QAEPBDXZ 0048c800 f i rmx core:Parser.obj
 0002:00016880       ?getPrevName@?$vNullStringPairList@PBD@@QAEPBDPBD@Z 0048c880 f i rmx core:Parser.obj
 0002:00016920       ?getNextName@?$vNullStringPairList@PBD@@QAEPBDPBD@Z 0048c920 f i rmx core:Parser.obj
 0002:000169c0       ?getLastItem@?$rmxList@PAVvPlugin@@@@QBEPAVvPlugin@@XZ 0048c9c0 f i rmx core:Parser.obj
 0002:00016a40       ?getPrevItem@?$rmxList@PAVvPlugin@@@@QBEPAVvPlugin@@PAV2@@Z 0048ca40 f i rmx core:Parser.obj
 0002:00016ae0       ?getFirstItem@?$rmxList@PAVcbCoreConsole@@@@QBEPAVcbCoreConsole@@XZ 0048cae0 f i rmx core:Parser.obj
 0002:00016b60       ?getLastItem@?$rmxList@PAVcbCoreConsole@@@@QBEPAVcbCoreConsole@@XZ 0048cb60 f i rmx core:Parser.obj
 0002:00016be0       ?getNextItem@?$rmxList@PAVcbCoreConsole@@@@QBEPAVcbCoreConsole@@PAV2@@Z 0048cbe0 f i rmx core:Parser.obj
 0002:00016c70       ?getPrevItem@?$rmxList@PAVcbCoreConsole@@@@QBEPAVcbCoreConsole@@PAV2@@Z 0048cc70 f i rmx core:Parser.obj
 0002:00016d10       ?getFirstItem@?$rmxList@PAVcbCoreFunction@@@@QBEPAVcbCoreFunction@@XZ 0048cd10 f i rmx core:Parser.obj
 0002:00016d90       ?getLastItem@?$rmxList@PAVcbCoreFunction@@@@QBEPAVcbCoreFunction@@XZ 0048cd90 f i rmx core:Parser.obj
 0002:00016e10       ?getNextItem@?$rmxList@PAVcbCoreFunction@@@@QBEPAVcbCoreFunction@@PAV2@@Z 0048ce10 f i rmx core:Parser.obj
 0002:00016ea0       ?getPrevItem@?$rmxList@PAVcbCoreFunction@@@@QBEPAVcbCoreFunction@@PAV2@@Z 0048cea0 f i rmx core:Parser.obj
 0002:00016f40       ?getPair@?$vNullStringPairList@PBD@@AAEPAU?$rmxPair@PBD@@PBD@Z 0048cf40 f i rmx core:Parser.obj
 0002:00017000       ?getFirstItem@?$rmxList@PAU?$rmxPair@PBD@@@@QBEPAU?$rmxPair@PBD@@XZ 0048d000 f i rmx core:Parser.obj
 0002:00017080       ?getLastItem@?$rmxList@PAU?$rmxPair@PBD@@@@QBEPAU?$rmxPair@PBD@@XZ 0048d080 f i rmx core:Parser.obj
 0002:00017100       ?getNextItem@?$rmxList@PAU?$rmxPair@PBD@@@@QBEPAU?$rmxPair@PBD@@PAU2@@Z 0048d100 f i rmx core:Parser.obj
 0002:00017190       ?getPrevItem@?$rmxList@PAU?$rmxPair@PBD@@@@QBEPAU?$rmxPair@PBD@@PAU2@@Z 0048d190 f i rmx core:Parser.obj
 0002:00017230       ?findItem@?$rmxList@PAVcbCoreConsole@@@@ABEPAUvtagLIST@1@PAVcbCoreConsole@@@Z 0048d230 f i rmx core:Parser.obj
 0002:00017310       ?findItem@?$rmxList@PAVcbCoreFunction@@@@ABEPAUvtagLIST@1@PAVcbCoreFunction@@@Z 0048d310 f i rmx core:Parser.obj
 0002:000173f0       ?getCachedItem@?$rmxList@PAU?$rmxPair@PBD@@@@QBEPAU?$rmxPair@PBD@@XZ 0048d3f0 f i rmx core:Parser.obj
 0002:00017460       ?findItem@?$rmxList@PAU?$rmxPair@PBD@@@@ABEPAUvtagLIST@1@PAU?$rmxPair@PBD@@@Z 0048d460 f i rmx core:Parser.obj
 0002:00017540       ?onConnection@rmx_server@@UAEPAVIPageGenerator@@PAVJNL_HTTPServ@@H@Z 0048d540 f   rmx core:http.obj
 0002:00017c70       ??0rmxDataList@@QAE@PADD_N@Z 0048dc70 f i rmx core:http.obj
 0002:00017ef0       ??1rmxDataList@@UAE@XZ     0048def0 f i rmx core:http.obj
 0002:00017fd0       ?onDelete@rmxDataList@@UAEXPAVrmxData@@@Z 0048dfd0 f i rmx core:http.obj
 0002:00018080       ??_ErmxDataList@@UAEPAXI@Z 0048e080 f i rmx core:http.obj
 0002:00018080       ??_GrmxDataList@@UAEPAXI@Z 0048e080 f i rmx core:http.obj
 0002:000180f0       ?length@CBString@Bstrlib@@QBEHXZ 0048e0f0 f i rmx core:http.obj
 0002:00018130       ?send_reply@JNL_HTTPServ@@QAEXXZ 0048e130 f i rmx core:http.obj
 0002:00018170       ??0?$rmxList@PAVrmxData@@@@QAE@XZ 0048e170 f i rmx core:http.obj
 0002:000181d0       ??1?$rmxList@PAVrmxData@@@@QAE@XZ 0048e1d0 f i rmx core:http.obj
 0002:00018230       ?onInsertItem@?$rmxList@PAVrmxData@@@@MAEXPAVrmxData@@0@Z 0048e230 f i rmx core:http.obj
 0002:00018270       ?onDelete@?$rmxList@PAVrmxData@@@@MAEXPAVrmxData@@@Z 0048e270 f i rmx core:http.obj
 0002:000182b0       ?onItemMoved@?$rmxList@PAVrmxData@@@@MAEXPAVrmxData@@0@Z 0048e2b0 f i rmx core:http.obj
 0002:000182f0       ?getItemCount@?$rmxList@PAVrmxData@@@@QBEHXZ 0048e2f0 f i rmx core:http.obj
 0002:00018330       ?appendItem@?$rmxList@PAVrmxData@@@@QAEHPAVrmxData@@@Z 0048e330 f i rmx core:http.obj
 0002:00018390       ?removeFirstItem@?$rmxList@PAVrmxData@@@@QAEHXZ 0048e390 f i rmx core:http.obj
 0002:00018400       ?emptyItems@?$rmxList@PAVrmxData@@@@QAEXXZ 0048e400 f i rmx core:http.obj
 0002:00018470       ?getFirstItem@?$rmxList@PAVrmxData@@@@QBEPAVrmxData@@XZ 0048e470 f i rmx core:http.obj
 0002:000184f0       ?getItem@?$rmxList@PAVrmxData@@@@QBEPAVrmxData@@H@Z 0048e4f0 f i rmx core:http.obj
 0002:000185a0       ?insertItem@?$rmxList@PAVrmxData@@@@QAEHPAVrmxData@@0@Z 0048e5a0 f i rmx core:http.obj
 0002:00018740       ?getNextItem@?$rmxList@PAVrmxData@@@@QBEPAVrmxData@@PAV2@@Z 0048e740 f i rmx core:http.obj
 0002:000187d0       ?zeroList@?$rmxList@PAVrmxData@@@@AAEXXZ 0048e7d0 f i rmx core:http.obj
 0002:00018840       ?removeOld@?$rmxList@PAVrmxData@@@@AAEXPAUvtagLIST@1@@Z 0048e840 f i rmx core:http.obj
 0002:000189a0       ?createNew@?$rmxList@PAVrmxData@@@@AAEPAUvtagLIST@1@PAVrmxData@@@Z 0048e9a0 f i rmx core:http.obj
 0002:00018a40       ?findItem@?$rmxList@PAVrmxData@@@@ABEPAUvtagLIST@1@PAVrmxData@@@Z 0048ea40 f i rmx core:http.obj
 0002:00018b20       ??0vPluginTree@@QAE@PAVcfgBase@@@Z 0048eb20 f   rmx core:PluginTree.obj
 0002:00018d80       ??0cfgLine@@QAE@PAVcfgBase@@0@Z 0048ed80 f i rmx core:PluginTree.obj
 0002:00018e70       ??_GcfgLine@@UAEPAXI@Z     0048ee70 f i rmx core:PluginTree.obj
 0002:00018e70       ??_EcfgLine@@UAEPAXI@Z     0048ee70 f i rmx core:PluginTree.obj
 0002:00018ee0       ??1cfgLine@@UAE@XZ         0048eee0 f i rmx core:PluginTree.obj
 0002:00018f60       ??_GvPluginTree@@UAEPAXI@Z 0048ef60 f i rmx core:PluginTree.obj
 0002:00018f60       ??_EvPluginTree@@UAEPAXI@Z 0048ef60 f i rmx core:PluginTree.obj
 0002:00018fd0       ??1vPluginTree@@UAE@XZ     0048efd0 f   rmx core:PluginTree.obj
 0002:000190a0       ?onNewExternalChild@vPluginTree@@MAEPAVcfgBase@@PBD0PAVvHPARAMLIST@@@Z 0048f0a0 f   rmx core:PluginTree.obj
 0002:00019170       ?addPlugin@vPluginTree@@QAEPAVvPluginManager@@PBD0@Z 0048f170 f   rmx core:PluginTree.obj
 0002:000192b0       ?getManager@vPluginTree@@QAEPAVvPluginManager@@PBD@Z 0048f2b0 f   rmx core:PluginTree.obj
 0002:00019380       ?getFilename@vPluginManager@@QBEPBDXZ 0048f380 f i rmx core:PluginTree.obj
 0002:000193e0       ?getManager@vPluginTree@@QAEPAVvPluginManager@@PAVvPlugin@@@Z 0048f3e0 f   rmx core:PluginTree.obj
 0002:00019480       ?loadAll@vPluginTree@@QAEXH@Z 0048f480 f   rmx core:PluginTree.obj
 0002:00019650       ?unloadAll@vPluginTree@@QAEXXZ 0048f650 f   rmx core:PluginTree.obj
 0002:000196e0       ??0vPluginManager@@QAE@PBD0PAVvPluginTree@@@Z 0048f6e0 f   rmx core:PluginTree.obj
 0002:00019a00       ??_EvPluginManager@@UAEPAXI@Z 0048fa00 f i rmx core:PluginTree.obj
 0002:00019a00       ??_GvPluginManager@@UAEPAXI@Z 0048fa00 f i rmx core:PluginTree.obj
 0002:00019a70       ??1vPluginManager@@UAE@XZ  0048fa70 f   rmx core:PluginTree.obj
 0002:00019b50       ?load@vPluginManager@@QAEHXZ 0048fb50 f   rmx core:PluginTree.obj
 0002:0001a0e0       ?getSdkVersion@vPlugin@@QBEIXZ 004900e0 f i rmx core:PluginTree.obj
 0002:0001a140       ?getLibVersion@vPlugin@@QBEIXZ 00490140 f i rmx core:PluginTree.obj
 0002:0001a1a0       ?unload@vPluginManager@@QAEXXZ 004901a0 f   rmx core:PluginTree.obj
 0002:0001a270       ?cb_cfgMessage@vPluginManager@@MAEXW4cbMessage@@PAVcfgBase@@PBVprmBase@@2@Z 00490270 f   rmx core:PluginTree.obj
 0002:0001a370       ?failedMessage@vPluginManager@@AAEHPBD@Z 00490370 f   rmx core:PluginTree.obj
 0002:0001a460       ??0vPluginScanBtn@@QAE@PAVvPluginTree@@@Z 00490460 f   rmx core:PluginTree.obj
 0002:0001a560       ?setButtonText@cfgButton@@QAEXPBD@Z 00490560 f i rmx core:PluginTree.obj
 0002:0001a5c0       ??_EvPluginScanBtn@@UAEPAXI@Z 004905c0 f i rmx core:PluginTree.obj
 0002:0001a5c0       ??_GvPluginScanBtn@@UAEPAXI@Z 004905c0 f i rmx core:PluginTree.obj
 0002:0001a630       ??1vPluginScanBtn@@UAE@XZ  00490630 f i rmx core:PluginTree.obj
 0002:0001a6b0       ?onClick@vPluginScanBtn@@UAEXPAVvHPLUGIN@@@Z 004906b0 f   rmx core:PluginTree.obj
 0002:0001a730       ?onClick@cfgButton@@MAEXPAVvHPLUGIN@@@Z 00490730 f i rmx core:PluginTree.obj
 0002:0001a770       ??0?$rmxList@PAVvPluginManager@@@@QAE@XZ 00490770 f i rmx core:PluginTree.obj
 0002:0001a7d0       ??1?$rmxList@PAVvPluginManager@@@@QAE@XZ 004907d0 f i rmx core:PluginTree.obj
 0002:0001a830       ?onInsertItem@?$rmxList@PAVvPluginManager@@@@MAEXPAVvPluginManager@@0@Z 00490830 f i rmx core:PluginTree.obj
 0002:0001a870       ?onDelete@?$rmxList@PAVvPluginManager@@@@MAEXPAVvPluginManager@@@Z 00490870 f i rmx core:PluginTree.obj
 0002:0001a8b0       ?onItemMoved@?$rmxList@PAVvPluginManager@@@@MAEXPAVvPluginManager@@0@Z 004908b0 f i rmx core:PluginTree.obj
 0002:0001a8f0       ?appendItem@?$rmxList@PAVvPluginManager@@@@QAEHPAVvPluginManager@@@Z 004908f0 f i rmx core:PluginTree.obj
 0002:0001a950       ?getFirstItem@?$rmxList@PAVvPluginManager@@@@QBEPAVvPluginManager@@XZ 00490950 f i rmx core:PluginTree.obj
 0002:0001a9d0       ?getNextItem@?$rmxList@PAVvPluginManager@@@@QBEPAVvPluginManager@@PAV2@@Z 004909d0 f i rmx core:PluginTree.obj
 0002:0001aa60       ?insertItem@?$rmxList@PAVvPluginManager@@@@QAEHPAVvPluginManager@@0@Z 00490a60 f i rmx core:PluginTree.obj
 0002:0001ac00       ?emptyItems@?$rmxList@PAVvPluginManager@@@@QAEXXZ 00490c00 f i rmx core:PluginTree.obj
 0002:0001ac70       ?zeroList@?$rmxList@PAVvPluginManager@@@@AAEXXZ 00490c70 f i rmx core:PluginTree.obj
 0002:0001ace0       ?findItem@?$rmxList@PAVvPluginManager@@@@ABEPAUvtagLIST@1@PAVvPluginManager@@@Z 00490ce0 f i rmx core:PluginTree.obj
 0002:0001adc0       ?createNew@?$rmxList@PAVvPluginManager@@@@AAEPAUvtagLIST@1@PAVvPluginManager@@@Z 00490dc0 f i rmx core:PluginTree.obj
 0002:0001ae60       ?removeOld@?$rmxList@PAVvPluginManager@@@@AAEXPAUvtagLIST@1@@Z 00490e60 f i rmx core:PluginTree.obj
 0002:0001afc0       ??_EvPluginTree@@WCI@AEPAXI@Z 00490fc0 f i rmx core:PluginTree.obj
 0002:0001afd0       ??_EvPluginTree@@WEI@AEPAXI@Z 00490fd0 f i rmx core:PluginTree.obj
 0002:0001afe0       ??_EvPluginScanBtn@@WCI@AEPAXI@Z 00490fe0 f i rmx core:PluginTree.obj
 0002:0001aff0       ??_EcfgLine@@WCI@AEPAXI@Z  00490ff0 f i rmx core:PluginTree.obj
 0002:0001b000       ??_EvPluginScanBtn@@WEI@AEPAXI@Z 00491000 f i rmx core:PluginTree.obj
 0002:0001b010       ??_EcfgLine@@WEI@AEPAXI@Z  00491010 f i rmx core:PluginTree.obj
 0002:0001b020       ??_EvPluginManager@@WCI@AEPAXI@Z 00491020 f i rmx core:PluginTree.obj
 0002:0001b030       ??_EvPluginManager@@WEI@AEPAXI@Z 00491030 f i rmx core:PluginTree.obj
 0002:0001b040       ??0rmxJsonParser@@QAE@PAVcfgRoot@@@Z 00491040 f   rmx core:jsonParser.obj
 0002:0001b1a0       ??_GrmxJsonParser@@UAEPAXI@Z 004911a0 f i rmx core:jsonParser.obj
 0002:0001b1a0       ??_ErmxJsonParser@@UAEPAXI@Z 004911a0 f i rmx core:jsonParser.obj
 0002:0001b210       ??1rmxJsonParser@@UAE@XZ   00491210 f   rmx core:jsonParser.obj
 0002:0001b290       ?onActivated@rmxJsonParser@@MAEXPAVvHPLUGIN@@PAVvHLIST@@1H@Z 00491290 f   rmx core:jsonParser.obj
 0002:0001b300       ?parseJson@rmxJsonParser@@SAHPBD@Z 00491300 f   rmx core:jsonParser.obj
 0002:0001b540       ?printJson@rmxJsonParser@@KAHPAXHPBUJSON_value_struct@@@Z 00491540 f   rmx core:jsonParser.obj
 0002:0001b730       ??_ErmxJsonParser@@WCI@AEPAXI@Z 00491730 f i rmx core:jsonParser.obj
 0002:0001b740       ??_ErmxJsonParser@@WEI@AEPAXI@Z 00491740 f i rmx core:jsonParser.obj
 0002:0001b750       ??0cbCoreConsole@@QAE@PAVvHPLUGIN@@PAVvHLIST@@@Z 00491750 f   rmx core:cbConsole.obj
 0002:0001b8d0       ??_GcbCoreConsole@@UAEPAXI@Z 004918d0 f i rmx core:cbConsole.obj
 0002:0001b8d0       ??_EcbCoreConsole@@UAEPAXI@Z 004918d0 f i rmx core:cbConsole.obj
 0002:0001b940       ??1cbCoreConsole@@UAE@XZ   00491940 f   rmx core:cbConsole.obj
 0002:0001bad0       ?getConsoleCallback@cbCoreConsole@@SAPAV1@PAVvHLIST@@@Z 00491ad0 f   rmx core:cbConsole.obj
 0002:0001bb60       ?pushConsoleStack@cbCoreConsole@@SAXPAV1@@Z 00491b60 f   rmx core:cbConsole.obj
 0002:0001bbc0       ?peekConsoleStack@cbCoreConsole@@SAPAV1@XZ 00491bc0 f   rmx core:cbConsole.obj
 0002:0001bc10       ?popConsoleStack@cbCoreConsole@@SAPAV1@XZ 00491c10 f   rmx core:cbConsole.obj
 0002:0001bc70       ?console_print@cbCoreConsole@@SAXPBDPAVvHCONSOLE@@@Z 00491c70 f   rmx core:cbConsole.obj
 0002:0001bd20       ?print@cbCoreConsole@@QAEXPBD@Z 00491d20 f i rmx core:cbConsole.obj
 0002:0001bd90       ?message@cbCore@@QAE_J_J00@Z 00491d90 f i rmx core:cbConsole.obj
 0002:0001be10       ?console_clear@cbCoreConsole@@SAXPAVvHCONSOLE@@@Z 00491e10 f   rmx core:cbConsole.obj
 0002:0001be80       ?clear@cbCoreConsole@@QAEXXZ 00491e80 f i rmx core:cbConsole.obj
 0002:0001bef0       ?console_getPlugin@cbCoreConsole@@SAPAVvHPLUGIN@@PAVvHCONSOLE@@@Z 00491ef0 f   rmx core:cbConsole.obj
 0002:0001bf70       ?console_getList@cbCoreConsole@@SAPAVvHLIST@@PAVvHCONSOLE@@@Z 00491f70 f   rmx core:cbConsole.obj
 0002:0001bff0       ?getConsole@cbCoreConsole@@SAPAV1@PAVvHCONSOLE@@@Z 00491ff0 f   rmx core:cbConsole.obj
 0002:0001c100       ??0cbRootConsole@@QAE@PAVvHPLUGIN@@@Z 00492100 f   rmx core:cbConsole.obj
 0002:0001c270       ??_EcbRootConsole@@UAEPAXI@Z 00492270 f i rmx core:cbConsole.obj
 0002:0001c270       ??_GcbRootConsole@@UAEPAXI@Z 00492270 f i rmx core:cbConsole.obj
 0002:0001c2e0       ??1cbRootConsole@@UAE@XZ   004922e0 f   rmx core:cbConsole.obj
 0002:0001c340       ?cb_onInsertChild@cbRootConsole@@UAEXPAVvHLIST@@0@Z 00492340 f   rmx core:cbConsole.obj
 0002:0001c460       ?hasItems@?$rmxList@PAVcbCoreConsole@@@@QBEHXZ 00492460 f i rmx core:cbConsole.obj
 0002:0001c4b0       ?hasItem@?$rmxList@PAVcbCoreConsole@@@@QBEHPAVcbCoreConsole@@@Z 004924b0 f i rmx core:cbConsole.obj
 0002:0001c510       ?appendItem@?$rmxList@PAVcbCoreConsole@@@@QAEHPAVcbCoreConsole@@@Z 00492510 f i rmx core:cbConsole.obj
 0002:0001c570       ?removeLastItem@?$rmxList@PAVcbCoreConsole@@@@QAEHXZ 00492570 f i rmx core:cbConsole.obj
 0002:0001c5e0       ?removeItem@?$rmxList@PAVcbCoreConsole@@@@QAEHPAVcbCoreConsole@@@Z 004925e0 f i rmx core:cbConsole.obj
 0002:0001c670       ?insertItem@?$rmxList@PAVcbCoreConsole@@@@QAEHPAVcbCoreConsole@@0@Z 00492670 f i rmx core:cbConsole.obj
 0002:0001c810       ?removeOld@?$rmxList@PAVcbCoreConsole@@@@AAEXPAUvtagLIST@1@@Z 00492810 f i rmx core:cbConsole.obj
 0002:0001c970       ?createNew@?$rmxList@PAVcbCoreConsole@@@@AAEPAUvtagLIST@1@PAVcbCoreConsole@@@Z 00492970 f i rmx core:cbConsole.obj
 0002:0001ca10       ??0?$rmxList@PAVcbCoreConsole@@@@QAE@XZ 00492a10 f i rmx core:cbConsole.obj
 0002:0001ca70       ?onInsertItem@?$rmxList@PAVcbCoreConsole@@@@MAEXPAVcbCoreConsole@@0@Z 00492a70 f i rmx core:cbConsole.obj
 0002:0001cab0       ?onDelete@?$rmxList@PAVcbCoreConsole@@@@MAEXPAVcbCoreConsole@@@Z 00492ab0 f i rmx core:cbConsole.obj
 0002:0001caf0       ?onItemMoved@?$rmxList@PAVcbCoreConsole@@@@MAEXPAVcbCoreConsole@@0@Z 00492af0 f i rmx core:cbConsole.obj
 0002:0001cb30       ?zeroList@?$rmxList@PAVcbCoreConsole@@@@AAEXXZ 00492b30 f i rmx core:cbConsole.obj
 0002:0001cba0       ??1?$rmxList@PAVcbCoreConsole@@@@QAE@XZ 00492ba0 f i rmx core:cbConsole.obj
 0002:0001cc00       ?emptyItems@?$rmxList@PAVcbCoreConsole@@@@QAEXXZ 00492c00 f i rmx core:cbConsole.obj
 0002:0001cc70       ??0cbCoreFunction@@QAE@PAVvHPLUGIN@@PAVvHLIST@@HPAV0@@Z 00492c70 f   rmx core:cbFunction.obj
 0002:0001cf00       ??_EcbCoreFunction@@UAEPAXI@Z 00492f00 f i rmx core:cbFunction.obj
 0002:0001cf00       ??_GcbCoreFunction@@UAEPAXI@Z 00492f00 f i rmx core:cbFunction.obj
 0002:0001cf70       ??1cbCoreFunction@@UAE@XZ  00492f70 f   rmx core:cbFunction.obj
 0002:0001d1d0       ?cb_cfgMessage@cbCoreFunction@@MAEXW4cbMessage@@PAVvHLIST@@1@Z 004931d0 f   rmx core:cbFunction.obj
 0002:0001d3d0       ?activateFunction@cbCoreFunction@@QAEXPAVvHPLUGIN@@_J1@Z 004933d0 f   rmx core:cbFunction.obj
 0002:0001d4b0       ?setEventDescription@cbCoreFunction@@QAEXPAVvHPLUGIN@@_J1@Z 004934b0 f   rmx core:cbFunction.obj
 0002:0001d740       ?setDefaultDescription@cbCoreFunction@@SAXPAVvHPLUGIN@@_J1@Z 00493740 f   rmx core:cbFunction.obj
 0002:0001d920       ?getFunction@cbCoreFunction@@SAPAV1@_J0@Z 00493920 f   rmx core:cbFunction.obj
 0002:0001da10       ?root_getList@vPlugin@@QBEPAVvHLIST@@_J@Z 00493a10 f i rmx core:cbFunction.obj
 0002:0001da90       ?getFunction@cbCoreFunction@@SAPAV1@PAVvHPLUGIN@@PAVvHLIST@@H@Z 00493a90 f   rmx core:cbFunction.obj
 0002:0001dbd0       ?getFunctionByHint@cbCoreFunction@@SAPAV1@PBD_N@Z 00493bd0 f   rmx core:cbFunction.obj
 0002:0001dc90       ?getFunctionByScriptName@cbCoreFunction@@SAPAV1@PBD_N@Z 00493c90 f   rmx core:cbFunction.obj
 0002:0001dd50       ?getChildFunction@cbCoreFunction@@QAEPAV1@PAVvHPLUGIN@@PAVvHLIST@@@Z 00493d50 f   rmx core:cbFunction.obj
 0002:0001de20       ?getChildFunctionByHint@cbCoreFunction@@QAEPAV1@PBD_N@Z 00493e20 f   rmx core:cbFunction.obj
 0002:0001df20       ?getParamSafe@cbCore@@QBEPBDPBD0@Z 00493f20 f i rmx core:cbFunction.obj
 0002:0001df90       ?getChildFunctionByScriptName@cbCoreFunction@@QAEPAV1@PBD_N@Z 00493f90 f   rmx core:cbFunction.obj
 0002:0001e090       ??0?$rmxList@PBD@@QAE@XZ   00494090 f i rmx core:cbFunction.obj
 0002:0001e0f0       ??1?$rmxList@PBD@@QAE@XZ   004940f0 f i rmx core:cbFunction.obj
 0002:0001e150       ?onInsertItem@?$rmxList@PBD@@MAEXPBD0@Z 00494150 f i rmx core:cbFunction.obj
 0002:0001e190       ?onDelete@?$rmxList@PBD@@MAEXPBD@Z 00494190 f i rmx core:cbFunction.obj
 0002:0001e1d0       ?onItemMoved@?$rmxList@PBD@@MAEXPBD0@Z 004941d0 f i rmx core:cbFunction.obj
 0002:0001e210       ?appendItem@?$rmxList@PBD@@QAEHPBD@Z 00494210 f i rmx core:cbFunction.obj
 0002:0001e270       ?getLastItem@?$rmxList@PBD@@QBEPBDXZ 00494270 f i rmx core:cbFunction.obj
 0002:0001e2f0       ?getPrevItem@?$rmxList@PBD@@QBEPBDPBD@Z 004942f0 f i rmx core:cbFunction.obj
 0002:0001e390       ??0?$rmxList@PAVcbCoreFunction@@@@QAE@XZ 00494390 f i rmx core:cbFunction.obj
 0002:0001e3f0       ??1?$rmxList@PAVcbCoreFunction@@@@QAE@XZ 004943f0 f i rmx core:cbFunction.obj
 0002:0001e450       ?onInsertItem@?$rmxList@PAVcbCoreFunction@@@@MAEXPAVcbCoreFunction@@0@Z 00494450 f i rmx core:cbFunction.obj
 0002:0001e490       ?onDelete@?$rmxList@PAVcbCoreFunction@@@@MAEXPAVcbCoreFunction@@@Z 00494490 f i rmx core:cbFunction.obj
 0002:0001e4d0       ?onItemMoved@?$rmxList@PAVcbCoreFunction@@@@MAEXPAVcbCoreFunction@@0@Z 004944d0 f i rmx core:cbFunction.obj
 0002:0001e510       ?appendItem@?$rmxList@PAVcbCoreFunction@@@@QAEHPAVcbCoreFunction@@@Z 00494510 f i rmx core:cbFunction.obj
 0002:0001e570       ?removeItem@?$rmxList@PAVcbCoreFunction@@@@QAEHPAVcbCoreFunction@@@Z 00494570 f i rmx core:cbFunction.obj
 0002:0001e600       ?insertItem@?$rmxList@PBD@@QAEHPBD0@Z 00494600 f i rmx core:cbFunction.obj
 0002:0001e7a0       ?emptyItems@?$rmxList@PBD@@QAEXXZ 004947a0 f i rmx core:cbFunction.obj
 0002:0001e810       ?zeroList@?$rmxList@PBD@@AAEXXZ 00494810 f i rmx core:cbFunction.obj
 0002:0001e880       ?findItem@?$rmxList@PBD@@ABEPAUvtagLIST@1@PBD@Z 00494880 f i rmx core:cbFunction.obj
 0002:0001e960       ?insertItem@?$rmxList@PAVcbCoreFunction@@@@QAEHPAVcbCoreFunction@@0@Z 00494960 f i rmx core:cbFunction.obj
 0002:0001eb00       ?emptyItems@?$rmxList@PAVcbCoreFunction@@@@QAEXXZ 00494b00 f i rmx core:cbFunction.obj
 0002:0001eb70       ?zeroList@?$rmxList@PAVcbCoreFunction@@@@AAEXXZ 00494b70 f i rmx core:cbFunction.obj
 0002:0001ebe0       ?removeOld@?$rmxList@PAVcbCoreFunction@@@@AAEXPAUvtagLIST@1@@Z 00494be0 f i rmx core:cbFunction.obj
 0002:0001ed40       ?createNew@?$rmxList@PBD@@AAEPAUvtagLIST@1@PBD@Z 00494d40 f i rmx core:cbFunction.obj
 0002:0001ede0       ?removeOld@?$rmxList@PBD@@AAEXPAUvtagLIST@1@@Z 00494de0 f i rmx core:cbFunction.obj
 0002:0001ef40       ?createNew@?$rmxList@PAVcbCoreFunction@@@@AAEPAUvtagLIST@1@PAVcbCoreFunction@@@Z 00494f40 f i rmx core:cbFunction.obj
 0002:0001efe0       ??0sqlCallback@@QAE@PAVvHPLUGIN@@PAVvHLIST@@PAV0@@Z 00494fe0 f   rmx core:sqlCallback.obj
 0002:0001f1e0       ??_GsqlCallback@@UAEPAXI@Z 004951e0 f i rmx core:sqlCallback.obj
 0002:0001f1e0       ??_EsqlCallback@@UAEPAXI@Z 004951e0 f i rmx core:sqlCallback.obj
 0002:0001f250       ??1sqlCallback@@UAE@XZ     00495250 f   rmx core:sqlCallback.obj
 0002:0001f3d0       ?cb_cfgMessage@sqlCallback@@MAEXW4cbMessage@@PBD@Z 004953d0 f   rmx core:sqlCallback.obj
 0002:0001f470       ?cb_cfgMessage@sqlCallback@@MAEXW4cbMessage@@_J@Z 00495470 f   rmx core:sqlCallback.obj
 0002:0001f500       ?cb_cfgMessage@sqlCallback@@MAEXW4cbMessage@@PAVvHLIST@@1@Z 00495500 f   rmx core:sqlCallback.obj
 0002:0001f630       ?cb_cfgMessage@sqlCallback@@MAEXW4cbMessage@@PAVvHPARAM@@1@Z 00495630 f   rmx core:sqlCallback.obj
 0002:0001f710       ?getTypeId@sqlCallback@@QBE_JXZ 00495710 f   rmx core:sqlCallback.obj
 0002:0001f7c0       ?getType@cbCore@@QBEPBDXZ  004957c0 f i rmx core:sqlCallback.obj
 0002:0001f820       ?getId@sqlCallback@@QAE_JXZ 00495820 f   rmx core:sqlCallback.obj
 0002:0001f8a0       ?setId@sqlCallback@@QAEX_J@Z 004958a0 f   rmx core:sqlCallback.obj
 0002:0001f910       ?setId@cbCore@@QAEX_J@Z    00495910 f i rmx core:sqlCallback.obj
 0002:0001f980       ?load@sqlCallback@@QAE_N_N@Z 00495980 f   rmx core:sqlCallback.obj
 0002:0001fb00       ?save@sqlCallback@@QAE_N_N@Z 00495b00 f   rmx core:sqlCallback.obj
 0002:0001fc80       ?insertConfig@sqlCallback@@AAE_NXZ 00495c80 f   rmx core:sqlCallback.obj
 0002:0001ff50       ?isSavable@cbCore@@QBEHXZ  00495f50 f i rmx core:sqlCallback.obj
 0002:0001ffb0       ?getInsertId@vSqlite@@QBE_JXZ 00495fb0 f i rmx core:sqlCallback.obj
 0002:00020010       ?getRowsChanged@vSqlite@@QBEHXZ 00496010 f i rmx core:sqlCallback.obj
 0002:00020070       ?insertParam@sqlCallback@@AAE_NPAVvHPARAM@@@Z 00496070 f   rmx core:sqlCallback.obj
 0002:00020350       ?getRemoteParam@cbCore@@QBEPAVvHPARAM@@XZ 00496350 f i rmx core:sqlCallback.obj
 0002:00020390       ?updateConfig@sqlCallback@@AAE_N_N@Z 00496390 f   rmx core:sqlCallback.obj
 0002:00020600       ?updateParam@sqlCallback@@AAE_NPAVvHPARAM@@@Z 00496600 f   rmx core:sqlCallback.obj
 0002:00020830       ?selectConfig@sqlCallback@@AAE_N_N@Z 00496830 f   rmx core:sqlCallback.obj
 0002:00020b50       ?selectParam@sqlCallback@@AAE_NPAVvHPARAM@@@Z 00496b50 f   rmx core:sqlCallback.obj
 0002:00020e00       ?selectAllParams@sqlCallback@@AAE_NXZ 00496e00 f   rmx core:sqlCallback.obj
 0002:00021030       ??0?$rmxList@PAVsqlCallback@@@@QAE@XZ 00497030 f i rmx core:sqlCallback.obj
 0002:00021090       ??0?$rmxList@PAVsqlCallback@@@@QAE@ABV0@@Z 00497090 f i rmx core:sqlCallback.obj
 0002:00021100       ??1?$rmxList@PAVsqlCallback@@@@QAE@XZ 00497100 f i rmx core:sqlCallback.obj
 0002:00021160       ?onInsertItem@?$rmxList@PAVsqlCallback@@@@MAEXPAVsqlCallback@@0@Z 00497160 f i rmx core:sqlCallback.obj
 0002:000211a0       ?onDelete@?$rmxList@PAVsqlCallback@@@@MAEXPAVsqlCallback@@@Z 004971a0 f i rmx core:sqlCallback.obj
 0002:000211e0       ?onItemMoved@?$rmxList@PAVsqlCallback@@@@MAEXPAVsqlCallback@@0@Z 004971e0 f i rmx core:sqlCallback.obj
 0002:00021220       ?hasItem@?$rmxList@PAVsqlCallback@@@@QBEHPAVsqlCallback@@@Z 00497220 f i rmx core:sqlCallback.obj
 0002:00021280       ?appendItem@?$rmxList@PAVsqlCallback@@@@QAEHPAVsqlCallback@@@Z 00497280 f i rmx core:sqlCallback.obj
 0002:000212e0       ?removeItem@?$rmxList@PAVsqlCallback@@@@QAEHPAVsqlCallback@@@Z 004972e0 f i rmx core:sqlCallback.obj
 0002:00021370       ?getFirstItem@?$rmxList@PAVsqlCallback@@@@QBEPAVsqlCallback@@XZ 00497370 f i rmx core:sqlCallback.obj
 0002:000213f0       ?getNextItem@?$rmxList@PAVsqlCallback@@@@QBEPAVsqlCallback@@PAV2@@Z 004973f0 f i rmx core:sqlCallback.obj
 0002:00021480       ?clone@?$rmxList@PAVsqlCallback@@@@QAEXPBV1@@Z 00497480 f i rmx core:sqlCallback.obj
 0002:00021510       ?insertItem@?$rmxList@PAVsqlCallback@@@@QAEHPAVsqlCallback@@0@Z 00497510 f i rmx core:sqlCallback.obj
 0002:000216b0       ?emptyItems@?$rmxList@PAVsqlCallback@@@@QAEXXZ 004976b0 f i rmx core:sqlCallback.obj
 0002:00021720       ?zeroList@?$rmxList@PAVsqlCallback@@@@AAEXXZ 00497720 f i rmx core:sqlCallback.obj
 0002:00021790       ?removeOld@?$rmxList@PAVsqlCallback@@@@AAEXPAUvtagLIST@1@@Z 00497790 f i rmx core:sqlCallback.obj
 0002:000218f0       ?findItem@?$rmxList@PAVsqlCallback@@@@ABEPAUvtagLIST@1@PAVsqlCallback@@@Z 004978f0 f i rmx core:sqlCallback.obj
 0002:000219d0       ?createNew@?$rmxList@PAVsqlCallback@@@@AAEPAUvtagLIST@1@PAVsqlCallback@@@Z 004979d0 f i rmx core:sqlCallback.obj
 0002:00021a70       ??0RmxPlugin@@QAE@PBDPAUHINSTANCE__@@P6AXPAUrmxMsg@@@Z@Z 00497a70 f   rmx core:RmxPlugin.obj
 0002:00021b50       ?setEntry@vPlugin@@IAEXP6AXPAUrmxMsg@@@Z@Z 00497b50 f i rmx core:RmxPlugin.obj
 0002:00021ba0       ?onInitPlugin@RmxPlugin@@UAEXXZ 00497ba0 f i rmx core:RmxPlugin.obj
 0002:00021c10       ?onPostInitPlugin@RmxPlugin@@UAEXXZ 00497c10 f i rmx core:RmxPlugin.obj
 0002:00021c80       ?getPathRootName@RmxPlugin@@UBEPBDXZ 00497c80 f i rmx core:RmxPlugin.obj
 0002:00021cc0       ?getStatus@RmxPlugin@@UAEIXZ 00497cc0 f i rmx core:RmxPlugin.obj
 0002:00021d00       ?removable@RmxPlugin@@UBEHXZ 00497d00 f i rmx core:RmxPlugin.obj
 0002:00021d40       ?external@RmxPlugin@@UBEHXZ 00497d40 f i rmx core:RmxPlugin.obj
 0002:00021d80       ?list_getRoot@RmxPlugin@@UBEPAVvHLIST@@XZ 00497d80 f i rmx core:RmxPlugin.obj
 0002:00021e00       ?x_Load@RmxPlugin@@ABEHXZ  00497e00 f i rmx core:RmxPlugin.obj
 0002:00021ea0       ??_ERmxPlugin@@UAEPAXI@Z   00497ea0 f i rmx core:RmxPlugin.obj
 0002:00021ea0       ??_GRmxPlugin@@UAEPAXI@Z   00497ea0 f i rmx core:RmxPlugin.obj
 0002:00021f10       ??1RmxPlugin@@UAE@XZ       00497f10 f   rmx core:RmxPlugin.obj
 0002:00022070       ?x_Unload@RmxPlugin@@ABEHXZ 00498070 f i rmx core:RmxPlugin.obj
 0002:000220f0       ?onFirstLoad@RmxPlugin@@UAEXXZ 004980f0 f   rmx core:RmxPlugin.obj
 0002:000221b0       ?testPlugin@RmxPlugin@@QAEHXZ 004981b0 f   rmx core:RmxPlugin.obj
 0002:00022210       ?x_test@RmxPlugin@@ABEHXZ  00498210 f i rmx core:RmxPlugin.obj
 0002:00022290       ??0vLocalPlugin@@QAE@PBD0@Z 00498290 f   rmx core:LocalPlugin.obj
 0002:000223a0       ??_GvLocalPlugin@@UAEPAXI@Z 004983a0 f i rmx core:LocalPlugin.obj
 0002:000223a0       ??_EvLocalPlugin@@UAEPAXI@Z 004983a0 f i rmx core:LocalPlugin.obj
 0002:00022410       ??1vLocalPlugin@@UAE@XZ    00498410 f   rmx core:LocalPlugin.obj
 0002:00022520       ??_EvLocalPlugin@@WOI@AEPAXI@Z 00498520 f i rmx core:LocalPlugin.obj
 0002:00022530       ??_EvLocalPlugin@@WBAI@AEPAXI@Z 00498530 f i rmx core:LocalPlugin.obj
 0002:00022540       ??_EvLocalPlugin@@WMA@AEPAXI@Z 00498540 f i rmx core:LocalPlugin.obj
 0002:00022550       ??0vPlugin@@QAE@PBDPAUHINSTANCE__@@@Z 00498550 f   rmx core:Plugin.obj
 0002:00022790       ?getPathRootName@vPlugin@@UBEPBDXZ 00498790 f i rmx core:Plugin.obj
 0002:000227d0       ?getStatus@vPlugin@@UAEIXZ 004987d0 f i rmx core:Plugin.obj
 0002:00022810       ?removable@vPlugin@@UBEHXZ 00498810 f i rmx core:Plugin.obj
 0002:00022850       ?list_getRoot@vPlugin@@UBEPAVvHLIST@@XZ 00498850 f i rmx core:Plugin.obj
 0002:00022890       ??_EvPlugin@@UAEPAXI@Z     00498890 f i rmx core:Plugin.obj
 0002:00022890       ??_GvPlugin@@UAEPAXI@Z     00498890 f i rmx core:Plugin.obj
 0002:00022900       ??1vPlugin@@UAE@XZ         00498900 f   rmx core:Plugin.obj
 0002:00022b70       ??_GplugCallback@@QAEPAXI@Z 00498b70 f i rmx core:Plugin.obj
 0002:00022be0       ??1plugCallback@@QAE@XZ    00498be0 f i rmx core:Plugin.obj
 0002:00022d50       ?root_hasList@vPlugin@@QAEHPAVvHLIST@@H@Z 00498d50 f   rmx core:Plugin.obj
 0002:00022e40       ?insertCallback@vPlugin@@QAEXPAVvHLIST@@PAVvHPLUGIN@@PAX@Z 00498e40 f   rmx core:Plugin.obj
 0002:00022f60       ??0plugCallback@@QAE@PAVvPlugin@@PAVvHLIST@@0PAX@Z 00498f60 f i rmx core:Plugin.obj
 0002:00023110       ?removeCallback@vPlugin@@QAEXPAX@Z 00499110 f   rmx core:Plugin.obj
 0002:000231d0       ?getCallback@vPlugin@@QAEPAVplugCallback@@PAX@Z 004991d0 f   rmx core:Plugin.obj
 0002:00023270       ?getCallback@plugCallback@@QBEPAXXZ 00499270 f i rmx core:Plugin.obj
 0002:000232b0       ?RmxMsg@vPlugin@@MBEXPAUrmxMsg@@@Z 004992b0 f   rmx core:Plugin.obj
 0002:00023320       ?RmxMsg@vPlugin@@MBEXII@Z  00499320 f   rmx core:Plugin.obj
 0002:000233b0       ?RmxMsg@vPlugin@@MBEXIIH@Z 004993b0 f   rmx core:Plugin.obj
 0002:00023440       ?RmxMsg@vPlugin@@MBEXIIPBX@Z 00499440 f   rmx core:Plugin.obj
 0002:000234d0       ?RmxMsg@vPlugin@@MBEXIIPBX0@Z 004994d0 f   rmx core:Plugin.obj
 0002:00023570       ?RmxMsg@vPlugin@@MBEXIIPBX00@Z 00499570 f   rmx core:Plugin.obj
 0002:00023620       ?RmxMsg@vPlugin@@MBEXIIPBX0_J11@Z 00499620 f   rmx core:Plugin.obj
 0002:00023700       ?RmxMsg@vPlugin@@MBEXIIPBXHH0@Z 00499700 f   rmx core:Plugin.obj
 0002:000237b0       ?RmxMsg@vPlugin@@MBEXIIPBX0H0@Z 004997b0 f   rmx core:Plugin.obj
 0002:00023860       ?RmxMsg@vPlugin@@MBEXIIPBX000@Z 00499860 f   rmx core:Plugin.obj
 0002:00023910       ?RmxMsg@vPlugin@@MBEXIIPBX0_J@Z 00499910 f   rmx core:Plugin.obj
 0002:000239c0       ?RmxMsg@vPlugin@@MBEXIIPBX0N@Z 004999c0 f   rmx core:Plugin.obj
 0002:00023a70       ?RmxMsg@vPlugin@@MBEXIIPBX0H@Z 00499a70 f   rmx core:Plugin.obj
 0002:00023b20       ?RmxMsg@vPlugin@@MBEXIIPBX0U_GUID@@@Z 00499b20 f   rmx core:Plugin.obj
 0002:00023c20       ?RmxMsg@vPlugin@@MBEXIIPBXH@Z 00499c20 f   rmx core:Plugin.obj
 0002:00023cc0       ?RmxMsg@vPlugin@@MBEXIIPBX_J@Z 00499cc0 f   rmx core:Plugin.obj
 0002:00023d70       ?RmxMsg@vPlugin@@MBEXIIPBXN@Z 00499d70 f   rmx core:Plugin.obj
 0002:00023e10       ?RmxMsg@vPlugin@@MBEXIIPBX_JH@Z 00499e10 f   rmx core:Plugin.obj
 0002:00023ec0       ?RmxMsg@vPlugin@@MBEXIIPBXK@Z 00499ec0 f   rmx core:Plugin.obj
 0002:00023f60       ?RmxMsg@vPlugin@@MBEXIIPBX0K@Z 00499f60 f   rmx core:Plugin.obj
 0002:00024010       ??0?$rmxList@PAVplugCallback@@@@QAE@XZ 0049a010 f i rmx core:Plugin.obj
 0002:00024070       ??1?$rmxList@PAVplugCallback@@@@QAE@XZ 0049a070 f i rmx core:Plugin.obj
 0002:000240d0       ?onInsertItem@?$rmxList@PAVplugCallback@@@@MAEXPAVplugCallback@@0@Z 0049a0d0 f i rmx core:Plugin.obj
 0002:00024110       ?onDelete@?$rmxList@PAVplugCallback@@@@MAEXPAVplugCallback@@@Z 0049a110 f i rmx core:Plugin.obj
 0002:00024150       ?onItemMoved@?$rmxList@PAVplugCallback@@@@MAEXPAVplugCallback@@0@Z 0049a150 f i rmx core:Plugin.obj
 0002:00024190       ?appendItem@?$rmxList@PAVplugCallback@@@@QAEHPAVplugCallback@@@Z 0049a190 f i rmx core:Plugin.obj
 0002:000241f0       ?removeItem@?$rmxList@PAVplugCallback@@@@QAEHPAVplugCallback@@@Z 0049a1f0 f i rmx core:Plugin.obj
 0002:00024280       ?getFirstItem@?$rmxList@PAVplugCallback@@@@QBEPAVplugCallback@@XZ 0049a280 f i rmx core:Plugin.obj
 0002:00024300       ?getNextItem@?$rmxList@PAVplugCallback@@@@QBEPAVplugCallback@@PAV2@@Z 0049a300 f i rmx core:Plugin.obj
 0002:00024390       ?insertItem@?$rmxList@PAVplugCallback@@@@QAEHPAVplugCallback@@0@Z 0049a390 f i rmx core:Plugin.obj
 0002:00024530       ?emptyItems@?$rmxList@PAVplugCallback@@@@QAEXXZ 0049a530 f i rmx core:Plugin.obj
 0002:000245a0       ?zeroList@?$rmxList@PAVplugCallback@@@@AAEXXZ 0049a5a0 f i rmx core:Plugin.obj
 0002:00024610       ?removeOld@?$rmxList@PAVplugCallback@@@@AAEXPAUvtagLIST@1@@Z 0049a610 f i rmx core:Plugin.obj
 0002:00024770       ?findItem@?$rmxList@PAVplugCallback@@@@ABEPAUvtagLIST@1@PAVplugCallback@@@Z 0049a770 f i rmx core:Plugin.obj
 0002:00024850       ?createNew@?$rmxList@PAVplugCallback@@@@AAEPAUvtagLIST@1@PAVplugCallback@@@Z 0049a850 f i rmx core:Plugin.obj
 0002:000248f0       ??0httpFile@@QAE@PAVJNL_HTTPServ@@PAVrmxDataList@@@Z 0049a8f0 f   rmx core:file.obj
 0002:00024bc0       ??1IPageGenerator@@UAE@XZ  0049abc0 f i rmx core:file.obj
 0002:00024c00       ?IsNonBlocking@IPageGenerator@@UAEHXZ 0049ac00 f i rmx core:file.obj
 0002:00024c40       ?getMimeType@IPageGenerator@@UAEPBDXZ 0049ac40 f i rmx core:file.obj
 0002:00024c80       ??_EIPageGenerator@@UAEPAXI@Z 0049ac80 f i rmx core:file.obj
 0002:00024c80       ??_GIPageGenerator@@UAEPAXI@Z 0049ac80 f i rmx core:file.obj
 0002:00024cf0       ??_EhttpFile@@UAEPAXI@Z    0049acf0 f i rmx core:file.obj
 0002:00024cf0       ??_GhttpFile@@UAEPAXI@Z    0049acf0 f i rmx core:file.obj
 0002:00024d60       ??0IPageGenerator@@QAE@XZ  0049ad60 f i rmx core:file.obj
 0002:00024db0       ??1httpFile@@UAE@XZ        0049adb0 f   rmx core:file.obj
 0002:00024e40       ?GetData@httpFile@@MAEHPADH@Z 0049ae40 f   rmx core:file.obj
 0002:00024ed0       ??0httpApi@@QAE@PAVJNL_HTTPServ@@PAVrmxDataList@@@Z 0049aed0 f   rmx core:api.obj
 0002:00025460       ?getName@prmBase@@QBEPBDXZ 0049b460 f i rmx core:api.obj
 0002:000254c0       ?getParam@cfgBase@@QAEPAVprmBase@@XZ 0049b4c0 f i rmx core:api.obj
 0002:00025500       ?getFirstParam@cfgBase@@QBEPAVprmBase@@XZ 0049b500 f i rmx core:api.obj
 0002:00025560       ?getNextParam@cfgBase@@QBEPAVprmBase@@PBV2@@Z 0049b560 f i rmx core:api.obj
 0002:000255c0       ?isFunction@cbCoreFunction@@QBE_NXZ 0049b5c0 f i rmx core:api.obj
 0002:00025610       ?get_request@JNL_HTTPServ@@QBEPBDXZ 0049b610 f i rmx core:api.obj
 0002:00025670       ??_EhttpApi@@UAEPAXI@Z     0049b670 f i rmx core:api.obj
 0002:00025670       ??_GhttpApi@@UAEPAXI@Z     0049b670 f i rmx core:api.obj
 0002:000256e0       ??1httpApi@@UAE@XZ         0049b6e0 f   rmx core:api.obj
 0002:00025750       ?getFirstItem@?$rmxList@PAVprmBase@@@@QBEPAVprmBase@@XZ 0049b750 f i rmx core:api.obj
 0002:000257d0       ?getNextItem@?$rmxList@PAVprmBase@@@@QBEPAVprmBase@@PAV2@@Z 0049b7d0 f i rmx core:api.obj
 0002:00025860       ?findItem@?$rmxList@PAVprmBase@@@@ABEPAUvtagLIST@1@PAVprmBase@@@Z 0049b860 f i rmx core:api.obj
 0002:00025940       ??_EhttpApi@@W3AEPAXI@Z    0049b940 f i rmx core:api.obj
 0002:00025950       ??0httpApiCore@@QAE@PAVJNL_HTTPServ@@PAVrmxDataList@@@Z 0049b950 f   rmx core:apiCore.obj
 0002:00025c50       ??0rmxString@@QAE@HPBD@Z   0049bc50 f i rmx core:apiCore.obj
 0002:00025cc0       ??_GhttpApiCore@@UAEPAXI@Z 0049bcc0 f i rmx core:apiCore.obj
 0002:00025cc0       ??_EhttpApiCore@@UAEPAXI@Z 0049bcc0 f i rmx core:apiCore.obj
 0002:00025d30       ??1httpApiCore@@UAE@XZ     0049bd30 f   rmx core:apiCore.obj
 0002:00025da0       ?dumpList@httpApiCore@@IAEXPAVvPlugin@@PAVvHLIST@@AAVrmxString@@_N@Z 0049bda0 f   rmx core:apiCore.obj
 0002:00025fb0       ??_EhttpApiCore@@W3AEPAXI@Z 0049bfb0 f i rmx core:apiCore.obj
 0002:00025fc0       ??0httpBase@@QAE@PAVJNL_HTTPServ@@@Z 0049bfc0 f   rmx core:base.obj
 0002:000260a0       ??_EhttpBase@@UAEPAXI@Z    0049c0a0 f i rmx core:base.obj
 0002:000260a0       ??_GhttpBase@@UAEPAXI@Z    0049c0a0 f i rmx core:base.obj
 0002:00026110       ??1httpBase@@UAE@XZ        0049c110 f   rmx core:base.obj
 0002:000261f0       ?setBuffer@httpBase@@IAEXPBD@Z 0049c1f0 f   rmx core:base.obj
 0002:00026260       ?GetData@httpBase@@MAEHPADH@Z 0049c260 f   rmx core:base.obj
 0002:00026330       ??_EhttpBase@@W3AEPAXI@Z   0049c330 f i rmx core:base.obj
 0002:00026340       _sqlite3_compileoption_get 0049c340 f   sqlite:sqlite3.obj
 0002:00027040       _sqlite3_mutex_alloc       0049d040 f   sqlite:sqlite3.obj
 0002:00027080       _sqlite3_mutex_free        0049d080 f   sqlite:sqlite3.obj
 0002:000270a0       _sqlite3_mutex_enter       0049d0a0 f   sqlite:sqlite3.obj
 0002:000270c0       _sqlite3_mutex_try         0049d0c0 f   sqlite:sqlite3.obj
 0002:000270e0       _sqlite3_mutex_leave       0049d0e0 f   sqlite:sqlite3.obj
 0002:00027290       _sqlite3_release_memory    0049d290 f   sqlite:sqlite3.obj
 0002:00027360       _sqlite3_memory_alarm      0049d360 f   sqlite:sqlite3.obj
 0002:00027510       _sqlite3_free              0049d510 f   sqlite:sqlite3.obj
 0002:00027a70       _sqlite3_strnicmp          0049da70 f   sqlite:sqlite3.obj
 0002:000290f0       _sqlite3_win32_mbcs_to_utf8 0049f0f0 f   sqlite:sqlite3.obj
 0002:00029130       _sqlite3_win32_utf8_to_mbcs 0049f130 f   sqlite:sqlite3.obj
 0002:00029970       _sqlite3_os_end            0049f970 f   sqlite:sqlite3.obj
 0002:0002d4b0       _sqlite3_enable_shared_cache 004a34b0 f   sqlite:sqlite3.obj
 0002:0002e680       _sqlite3_backup_remaining  004a4680 f   sqlite:sqlite3.obj
 0002:0002e690       _sqlite3_backup_pagecount  004a4690 f   sqlite:sqlite3.obj
 0002:0002eac0       _sqlite3_sql               004a4ac0 f   sqlite:sqlite3.obj
 0002:0002f5b0       _sqlite3_expired           004a55b0 f   sqlite:sqlite3.obj
 0002:0002f5d0       _sqlite3_value_double      004a55d0 f   sqlite:sqlite3.obj
 0002:0002f630       _sqlite3_value_int         004a5630 f   sqlite:sqlite3.obj
 0002:0002f640       _sqlite3_value_int64       004a5640 f   sqlite:sqlite3.obj
 0002:0002f650       _sqlite3_value_type        004a5650 f   sqlite:sqlite3.obj
 0002:0002f660       _sqlite3_result_null       004a5660 f   sqlite:sqlite3.obj
 0002:0002f6c0       _sqlite3_result_error_nomem 004a56c0 f   sqlite:sqlite3.obj
 0002:0002f730       _sqlite3_user_data         004a5730 f   sqlite:sqlite3.obj
 0002:0002f740       _sqlite3_context_db_handle 004a5740 f   sqlite:sqlite3.obj
 0002:0002f750       _sqlite3_get_auxdata       004a5750 f   sqlite:sqlite3.obj
 0002:0002f780       _sqlite3_aggregate_count   004a5780 f   sqlite:sqlite3.obj
 0002:0002f790       _sqlite3_column_count      004a5790 f   sqlite:sqlite3.obj
 0002:0002f7b0       _sqlite3_data_count        004a57b0 f   sqlite:sqlite3.obj
 0002:0002f850       _sqlite3_bind_parameter_count 004a5850 f   sqlite:sqlite3.obj
 0002:0002f870       _sqlite3_bind_parameter_name 004a5870 f   sqlite:sqlite3.obj
 0002:0002f9f0       _sqlite3_bind_parameter_index 004a59f0 f   sqlite:sqlite3.obj
 0002:0002fa50       _sqlite3_db_handle         004a5a50 f   sqlite:sqlite3.obj
 0002:0002fa70       _sqlite3_stmt_readonly     004a5a70 f   sqlite:sqlite3.obj
 0002:0002fa90       _sqlite3_next_stmt         004a5a90 f   sqlite:sqlite3.obj
 0002:0002fae0       _sqlite3_stmt_status       004a5ae0 f   sqlite:sqlite3.obj
 0002:0002fbe0       _sqlite3_value_numeric_type 004a5be0 f   sqlite:sqlite3.obj
 0002:0002fc50       _sqlite3_blob_bytes        004a5c50 f   sqlite:sqlite3.obj
 0002:00030cb0       _sqlite3_set_authorizer    004a6cb0 f   sqlite:sqlite3.obj
 0002:00032050       _sqlite3_enable_load_extension 004a8050 f   sqlite:sqlite3.obj
 0002:00032a90       _sqlite3_free_table        004a8a90 f   sqlite:sqlite3.obj
 0002:00033220       _sqlite3_vtab_on_conflict  004a9220 f   sqlite:sqlite3.obj
 0002:00034100       _sqlite3_complete          004aa100 f   sqlite:sqlite3.obj
 0002:00034490       _sqlite3_libversion        004aa490 f   sqlite:sqlite3.obj
 0002:000344a0       _sqlite3_sourceid          004aa4a0 f   sqlite:sqlite3.obj
 0002:000344b0       _sqlite3_libversion_number 004aa4b0 f   sqlite:sqlite3.obj
 0002:000344c0       _sqlite3_threadsafe        004aa4c0 f   sqlite:sqlite3.obj
 0002:000344d0       _sqlite3_db_mutex          004aa4d0 f   sqlite:sqlite3.obj
 0002:00034690       _sqlite3_last_insert_rowid 004aa690 f   sqlite:sqlite3.obj
 0002:000346a0       _sqlite3_changes           004aa6a0 f   sqlite:sqlite3.obj
 0002:000346b0       _sqlite3_total_changes     004aa6b0 f   sqlite:sqlite3.obj
 0002:00034850       _sqlite3_busy_handler      004aa850 f   sqlite:sqlite3.obj
 0002:000348b0       _sqlite3_progress_handler  004aa8b0 f   sqlite:sqlite3.obj
 0002:00034940       _sqlite3_busy_timeout      004aa940 f   sqlite:sqlite3.obj
 0002:000349d0       _sqlite3_interrupt         004aa9d0 f   sqlite:sqlite3.obj
 0002:000349f0       _sqlite3_trace             004aa9f0 f   sqlite:sqlite3.obj
 0002:00034a50       _sqlite3_profile           004aaa50 f   sqlite:sqlite3.obj
 0002:00034ab0       _sqlite3_commit_hook       004aaab0 f   sqlite:sqlite3.obj
 0002:00034b10       _sqlite3_update_hook       004aab10 f   sqlite:sqlite3.obj
 0002:00034b70       _sqlite3_rollback_hook     004aab70 f   sqlite:sqlite3.obj
 0002:00034bd0       _sqlite3_wal_hook          004aabd0 f   sqlite:sqlite3.obj
 0002:00034c40       _sqlite3_limit             004aac40 f   sqlite:sqlite3.obj
 0002:00034c80       _sqlite3_collation_needed  004aac80 f   sqlite:sqlite3.obj
 0002:00034ce0       _sqlite3_collation_needed16 004aace0 f   sqlite:sqlite3.obj
 0002:00034d40       _sqlite3_global_recover    004aad40 f   sqlite:sqlite3.obj
 0002:00034d50       _sqlite3_get_autocommit    004aad50 f   sqlite:sqlite3.obj
 0002:00034d60       _sqlite3_thread_cleanup    004aad60 f   sqlite:sqlite3.obj
 0002:00034d70       _sqlite3_extended_result_codes 004aad70 f   sqlite:sqlite3.obj
 0002:00034dc0       _sqlite3_file_control      004aadc0 f   sqlite:sqlite3.obj
 0002:00034f20       _sqlite3_uri_parameter     004aaf20 f   sqlite:sqlite3.obj
 0002:00034ff0       _sqlite3_compileoption_used 004aaff0 f   sqlite:sqlite3.obj
 0002:000351f0       _sqlite3_vfs_find          004ab1f0 f   sqlite:sqlite3.obj
 0002:000352b0       _sqlite3_vfs_register      004ab2b0 f   sqlite:sqlite3.obj
 0002:00035350       _sqlite3_vfs_unregister    004ab350 f   sqlite:sqlite3.obj
 0002:00035970       _sqlite3_realloc           004ab970 f   sqlite:sqlite3.obj
 0002:00035f60       _sqlite3_randomness        004abf60 f   sqlite:sqlite3.obj
 0002:0003a170       _sqlite3_clear_bindings    004b0170 f   sqlite:sqlite3.obj
 0002:0003a240       _sqlite3_result_double     004b0240 f   sqlite:sqlite3.obj
 0002:0003a270       _sqlite3_result_int        004b0270 f   sqlite:sqlite3.obj
 0002:0003a2d0       _sqlite3_result_int64      004b02d0 f   sqlite:sqlite3.obj
 0002:0003a330       _sqlite3_result_zeroblob   004b0330 f   sqlite:sqlite3.obj
 0002:0003a430       _sqlite3_aggregate_context 004b0430 f   sqlite:sqlite3.obj
 0002:0003a4c0       _sqlite3_set_auxdata       004b04c0 f   sqlite:sqlite3.obj
 0002:0003a680       _sqlite3_transfer_bindings 004b0680 f   sqlite:sqlite3.obj
 0002:0003f100       _sqlite3_db_config         004b5100 f   sqlite:sqlite3.obj
 0002:0003f1d0       _sqlite3_sleep             004b51d0 f   sqlite:sqlite3.obj
 0002:00040800       _sqlite3_vmprintf          004b6800 f   sqlite:sqlite3.obj
 0002:000408c0       _sqlite3_mprintf           004b68c0 f   sqlite:sqlite3.obj
 0002:000408f0       _sqlite3_vsnprintf         004b68f0 f   sqlite:sqlite3.obj
 0002:00040970       _sqlite3_snprintf          004b6970 f   sqlite:sqlite3.obj
 0002:00040a50       _sqlite3_log               004b6a50 f   sqlite:sqlite3.obj
 0002:00043660       _sqlite3_result_value      004b9660 f   sqlite:sqlite3.obj
 0002:0004ae30       _sqlite3_status            004c0e30 f   sqlite:sqlite3.obj
 0002:0004aea0       _sqlite3_db_status         004c0ea0 f   sqlite:sqlite3.obj
 0002:0004b560       _sqlite3_memory_used       004c1560 f   sqlite:sqlite3.obj
 0002:0004b570       _sqlite3_memory_highwater  004c1570 f   sqlite:sqlite3.obj
 0002:0004c270       _sqlite3_os_init           004c2270 f   sqlite:sqlite3.obj
 0002:0004df40       _sqlite3_value_bytes       004c3f40 f   sqlite:sqlite3.obj
 0002:0004df80       _sqlite3_value_bytes16     004c3f80 f   sqlite:sqlite3.obj
 0002:0004dfc0       _sqlite3_value_text        004c3fc0 f   sqlite:sqlite3.obj
 0002:0004dfe0       _sqlite3_value_text16      004c3fe0 f   sqlite:sqlite3.obj
 0002:0004e000       _sqlite3_value_text16be    004c4000 f   sqlite:sqlite3.obj
 0002:0004e020       _sqlite3_value_text16le    004c4020 f   sqlite:sqlite3.obj
 0002:0004e040       _sqlite3_result_error      004c4040 f   sqlite:sqlite3.obj
 0002:0004e070       _sqlite3_result_error16    004c4070 f   sqlite:sqlite3.obj
 0002:0004e0a0       _sqlite3_result_error_code 004c40a0 f   sqlite:sqlite3.obj
 0002:0004e0f0       _sqlite3_result_error_toobig 004c40f0 f   sqlite:sqlite3.obj
 0002:0004e170       _sqlite3_column_name       004c4170 f   sqlite:sqlite3.obj
 0002:0004e190       _sqlite3_column_name16     004c4190 f   sqlite:sqlite3.obj
 0002:0004e1b0       _sqlite3_column_decltype   004c41b0 f   sqlite:sqlite3.obj
 0002:0004e1d0       _sqlite3_column_decltype16 004c41d0 f   sqlite:sqlite3.obj
 0002:00054200       _sqlite3_config            004ca200 f   sqlite:sqlite3.obj
 0002:000544a0       _sqlite3_errmsg            004ca4a0 f   sqlite:sqlite3.obj
 0002:000545a0       _sqlite3_errmsg16          004ca5a0 f   sqlite:sqlite3.obj
 0002:00054690       _sqlite3_errcode           004ca690 f   sqlite:sqlite3.obj
 0002:00054710       _sqlite3_extended_errcode  004ca710 f   sqlite:sqlite3.obj
 0002:00056c90       _sqlite3_value_blob        004ccc90 f   sqlite:sqlite3.obj
 0002:00056d30       _sqlite3_result_blob       004ccd30 f   sqlite:sqlite3.obj
 0002:00056d90       _sqlite3_result_text       004ccd90 f   sqlite:sqlite3.obj
 0002:00056df0       _sqlite3_result_text16     004ccdf0 f   sqlite:sqlite3.obj
 0002:00056e50       _sqlite3_result_text16be   004cce50 f   sqlite:sqlite3.obj
 0002:00056eb0       _sqlite3_result_text16le   004cceb0 f   sqlite:sqlite3.obj
 0002:00057130       _sqlite3_bind_double       004cd130 f   sqlite:sqlite3.obj
 0002:000571a0       _sqlite3_bind_int64        004cd1a0 f   sqlite:sqlite3.obj
 0002:00057250       _sqlite3_bind_null         004cd250 f   sqlite:sqlite3.obj
 0002:00057290       _sqlite3_bind_zeroblob     004cd290 f   sqlite:sqlite3.obj
 0002:0005e720       _sqlite3_vtab_config       004d4720 f   sqlite:sqlite3.obj
 0002:00061a70       _sqlite3_column_blob       004d7a70 f   sqlite:sqlite3.obj
 0002:00061b00       _sqlite3_column_bytes      004d7b00 f   sqlite:sqlite3.obj
 0002:00061b60       _sqlite3_column_bytes16    004d7b60 f   sqlite:sqlite3.obj
 0002:00061bc0       _sqlite3_column_double     004d7bc0 f   sqlite:sqlite3.obj
 0002:00061c70       _sqlite3_column_int        004d7c70 f   sqlite:sqlite3.obj
 0002:00061ca0       _sqlite3_column_int64      004d7ca0 f   sqlite:sqlite3.obj
 0002:00061ce0       _sqlite3_column_text       004d7ce0 f   sqlite:sqlite3.obj
 0002:00061d20       _sqlite3_column_value      004d7d20 f   sqlite:sqlite3.obj
 0002:00061d70       _sqlite3_column_text16     004d7d70 f   sqlite:sqlite3.obj
 0002:00061db0       _sqlite3_column_type       004d7db0 f   sqlite:sqlite3.obj
 0002:00061f20       _sqlite3_bind_blob         004d7f20 f   sqlite:sqlite3.obj
 0002:00061f50       _sqlite3_bind_int          004d7f50 f   sqlite:sqlite3.obj
 0002:00061f70       _sqlite3_bind_text         004d7f70 f   sqlite:sqlite3.obj
 0002:00061fa0       _sqlite3_bind_text16       004d7fa0 f   sqlite:sqlite3.obj
 0002:00061fd0       _sqlite3_bind_value        004d7fd0 f   sqlite:sqlite3.obj
 0002:000640c0       _sqlite3_load_extension    004da0c0 f   sqlite:sqlite3.obj
 0002:00064c70       _sqlite3_create_module     004dac70 f   sqlite:sqlite3.obj
 0002:00064ca0       _sqlite3_create_module_v2  004daca0 f   sqlite:sqlite3.obj
 0002:00065b20       _sqlite3_create_function_v2 004dbb20 f   sqlite:sqlite3.obj
 0002:00065c40       _sqlite3_create_function16 004dbc40 f   sqlite:sqlite3.obj
 0002:00065d10       _sqlite3_overload_function 004dbd10 f   sqlite:sqlite3.obj
 0002:00065e00       _sqlite3_create_collation  004dbe00 f   sqlite:sqlite3.obj
 0002:00065ea0       _sqlite3_create_collation_v2 004dbea0 f   sqlite:sqlite3.obj
 0002:00065f40       _sqlite3_create_collation16 004dbf40 f   sqlite:sqlite3.obj
 0002:000667b0       _sqlite3_initialize        004dc7b0 f   sqlite:sqlite3.obj
 0002:00066a00       _sqlite3_create_function   004dca00 f   sqlite:sqlite3.obj
 0002:00066a40       _sqlite3_soft_heap_limit64 004dca40 f   sqlite:sqlite3.obj
 0002:00066b30       _sqlite3_soft_heap_limit   004dcb30 f   sqlite:sqlite3.obj
 0002:00066b50       _sqlite3_malloc            004dcb50 f   sqlite:sqlite3.obj
 0002:0006d2c0       _sqlite3_auto_extension    004e32c0 f   sqlite:sqlite3.obj
 0002:0006d3b0       _sqlite3_reset_auto_extension 004e33b0 f   sqlite:sqlite3.obj
 0002:0006d600       _sqlite3_complete16        004e3600 f   sqlite:sqlite3.obj
 0002:0006d700       _sqlite3_shutdown          004e3700 f   sqlite:sqlite3.obj
 0002:0006e0f0       _sqlite3_test_control      004e40f0 f   sqlite:sqlite3.obj
 0002:000735f0       _sqlite3_backup_step       004e95f0 f   sqlite:sqlite3.obj
 0002:00074310       _sqlite3_backup_finish     004ea310 f   sqlite:sqlite3.obj
 0002:000784b0       _sqlite3_close             004ee4b0 f   sqlite:sqlite3.obj
 0002:00078ab0       _sqlite3_wal_checkpoint_v2 004eeab0 f   sqlite:sqlite3.obj
 0002:00078bd0       _sqlite3_wal_checkpoint    004eebd0 f   sqlite:sqlite3.obj
 0002:00078d00       _sqlite3_backup_init       004eed00 f   sqlite:sqlite3.obj
 0002:00079580       _sqlite3_finalize          004ef580 f   sqlite:sqlite3.obj
 0002:00079640       _sqlite3_reset             004ef640 f   sqlite:sqlite3.obj
 0002:00079720       _sqlite3_blob_close        004ef720 f   sqlite:sqlite3.obj
 0002:000798e0       _sqlite3_blob_read         004ef8e0 f   sqlite:sqlite3.obj
 0002:00079910       _sqlite3_blob_write        004ef910 f   sqlite:sqlite3.obj
 0002:0007c300       _sqlite3_prepare           004f2300 f   sqlite:sqlite3.obj
 0002:0007c330       _sqlite3_prepare_v2        004f2330 f   sqlite:sqlite3.obj
 0002:0007c4b0       _sqlite3_prepare16         004f24b0 f   sqlite:sqlite3.obj
 0002:0007c4e0       _sqlite3_prepare16_v2      004f24e0 f   sqlite:sqlite3.obj
 0002:0007ccd0       _sqlite3_wal_autocheckpoint 004f2cd0 f   sqlite:sqlite3.obj
 0002:0007d240       _sqlite3_open              004f3240 f   sqlite:sqlite3.obj
 0002:0007d260       _sqlite3_open_v2           004f3260 f   sqlite:sqlite3.obj
 0002:0007d270       _sqlite3_open16            004f3270 f   sqlite:sqlite3.obj
 0002:00088b10       _sqlite3_step              004feb10 f   sqlite:sqlite3.obj
 0002:00088eb0       _sqlite3_blob_reopen       004feeb0 f   sqlite:sqlite3.obj
 0002:00089740       _sqlite3_exec              004ff740 f   sqlite:sqlite3.obj
 0002:0008a460       _sqlite3_get_table         00500460 f   sqlite:sqlite3.obj
 0002:0008fcc0       _sqlite3_blob_open         00505cc0 f   sqlite:sqlite3.obj
 0002:0009cfe0       _sqlite3_declare_vtab      00512fe0 f   sqlite:sqlite3.obj
 0002:0009d220       ?getOsVersionMajor@vWin32@@SAHXZ 00513220 f   rmx sdk:Win32.obj
 0002:0009d280       ?getOsVersionMinor@vWin32@@SAHXZ 00513280 f   rmx sdk:Win32.obj
 0002:0009d2e0       ?getOsVersionBuild@vWin32@@SAHXZ 005132e0 f   rmx sdk:Win32.obj
 0002:0009d340       ?getOsVersionPlatform@vWin32@@SAHXZ 00513340 f   rmx sdk:Win32.obj
 0002:0009d3a0       ?isWin9x@vWin32@@SAHXZ     005133a0 f   rmx sdk:Win32.obj
 0002:0009d400       ?isWinNT@vWin32@@SAHXZ     00513400 f   rmx sdk:Win32.obj
 0002:0009d460       ?isWin50@vWin32@@SAHXZ     00513460 f   rmx sdk:Win32.obj
 0002:0009d4d0       ?isVista@vWin32@@SAHXZ     005134d0 f   rmx sdk:Win32.obj
 0002:0009d540       ?isWinNT4@vWin32@@SAHXZ    00513540 f   rmx sdk:Win32.obj
 0002:0009d5b0       ?isWinXP@vWin32@@SAHXZ     005135b0 f   rmx sdk:Win32.obj
 0002:0009d630       ?updateOsInfo@vWin32@@CAXXZ 00513630 f   rmx sdk:Win32.obj
 0002:0009d6b0       ?getPath@vWin32@@SAPBDXZ   005136b0 f   rmx sdk:Win32.obj
 0002:0009d920       ?getBuffer@rmxToUtf8@@QAEPBDXZ 00513920 f i rmx sdk:Win32.obj
 0002:0009d960       ?getInstance@vWin32@@SAPAUHINSTANCE__@@XZ 00513960 f i rmx sdk:Win32.obj
 0002:0009d9a0       ?getName@vWin32@@SAPBDXZ   005139a0 f   rmx sdk:Win32.obj
 0002:0009da00       ?getTick@vWin32@@SAIXZ     00513a00 f   rmx sdk:Win32.obj
 0002:0009da60       ??0funcSingle@@IAE@PBD0PAVcfgRoot@@@Z 00513a60 f   rmx sdk:funcSingle.obj
 0002:0009daf0       ??_GfuncSingle@@UAEPAXI@Z  00513af0 f i rmx sdk:funcSingle.obj
 0002:0009daf0       ??_EfuncSingle@@UAEPAXI@Z  00513af0 f i rmx sdk:funcSingle.obj
 0002:0009db60       ??0funcSingle@@IAE@PBD0PAVfuncGroup@@@Z 00513b60 f   rmx sdk:funcSingle.obj
 0002:0009dbf0       ??1funcSingle@@UAE@XZ      00513bf0 f   rmx sdk:funcSingle.obj
 0002:0009dc70       ?onActivated@funcSingle@@MAEXPAVvHPLUGIN@@PAVvHLIST@@1@Z 00513c70 f   rmx sdk:funcSingle.obj
 0002:0009df10       ??_EfuncSingle@@WCI@AEPAXI@Z 00513f10 f i rmx sdk:funcSingle.obj
 0002:0009df20       ??_EfuncSingle@@WEI@AEPAXI@Z 00513f20 f i rmx sdk:funcSingle.obj
 0002:0009df30       ?onDataUpdated@prmBase@@MAEXXZ 00513f30 f   rmx sdk:prmBase.obj
 0002:0009dfa0       ?setParamConfig@prmBase@@IAEXPAVcfgBase@@@Z 00513fa0 f   rmx sdk:prmBase.obj
 0002:0009e050       ?setSecurity@rmxData@@AAEXE@Z 00514050 f i rmx sdk:prmBase.obj
 0002:0009e0a0       ?getSecurity@cfgBase@@QBEEXZ 005140a0 f i rmx sdk:prmBase.obj
 0002:0009e0e0       ?appendItem@?$rmxList@PAVprmBase@@@@QAEHPAVprmBase@@@Z 005140e0 f i rmx sdk:prmBase.obj
 0002:0009e140       ?insertItem@?$rmxList@PAVprmBase@@@@QAEHPAVprmBase@@0@Z 00514140 f i rmx sdk:prmBase.obj
 0002:0009e2e0       ?createNew@?$rmxList@PAVprmBase@@@@AAEPAUvtagLIST@1@PAVprmBase@@@Z 005142e0 f i rmx sdk:prmBase.obj
 0002:0009e380       ??0funcBase@@IAE@PBD0PAVcfgRoot@@PAVvHPARAMLIST@@@Z 00514380 f   rmx sdk:funcBase.obj
 0002:0009e4d0       ??_GfuncBase@@UAEPAXI@Z    005144d0 f i rmx sdk:funcBase.obj
 0002:0009e4d0       ??_EfuncBase@@UAEPAXI@Z    005144d0 f i rmx sdk:funcBase.obj
 0002:0009e540       ??0funcBase@@IAE@PBD0PAVfuncGroup@@PAVvHPARAMLIST@@@Z 00514540 f   rmx sdk:funcBase.obj
 0002:0009e690       ??1funcBase@@UAE@XZ        00514690 f   rmx sdk:funcBase.obj
 0002:0009e760       ?onActivated@funcBase@@MAEXPAVvHPLUGIN@@PAVvHLIST@@1@Z 00514760 f   rmx sdk:funcBase.obj
 0002:0009e930       ?onMessage@funcBase@@MAE_JPAVvHPLUGIN@@_J11@Z 00514930 f   rmx sdk:funcBase.obj
 0002:0009ea30       ?validateParam@funcBase@@MAEXPAVprmBase@@@Z 00514a30 f   rmx sdk:funcBase.obj
 0002:0009eab0       ?setReadOnly@rmxData@@QAEX_N@Z 00514ab0 f i rmx sdk:funcBase.obj
 0002:0009eb20       ?cb_cfgMessage@funcBase@@MAEXW4cbMessage@@PAVcfgBase@@PBVprmBase@@2@Z 00514b20 f   rmx sdk:funcBase.obj
 0002:0009ebc0       ?removeFunctionCallback@funcBase@@IAEXXZ 00514bc0 f   rmx sdk:funcBase.obj
 0002:0009ec80       ??_EfuncBase@@WCI@AEPAXI@Z 00514c80 f i rmx sdk:funcBase.obj
 0002:0009ec90       ??_EfuncBase@@WEI@AEPAXI@Z 00514c90 f i rmx sdk:funcBase.obj
 0002:0009eca0       ??0cbBase@@IAE@PAVcfgBase@@@Z 00514ca0 f   rmx sdk:cbBase.obj
 0002:0009ed60       ??_GcbBase@@MAEPAXI@Z      00514d60 f i rmx sdk:cbBase.obj
 0002:0009ed60       ??_EcbBase@@MAEPAXI@Z      00514d60 f i rmx sdk:cbBase.obj
 0002:0009edd0       ??1cbBase@@MAE@XZ          00514dd0 f   rmx sdk:cbBase.obj
 0002:0009ee80       ?onInsertItem@cbBase@@MAEXPAVcfgBase@@0@Z 00514e80 f   rmx sdk:cbBase.obj
 0002:0009eee0       ?insertCallback@cfgBase@@AAEXPAVcbBase@@@Z 00514ee0 f i rmx sdk:cbBase.obj
 0002:0009ef40       ?onDelete@cbBase@@MAEXPAVcfgBase@@@Z 00514f40 f   rmx sdk:cbBase.obj
 0002:0009efa0       ?removeCallback@cfgBase@@AAEXPAVcbBase@@@Z 00514fa0 f i rmx sdk:cbBase.obj
 0002:0009f000       ?cb_onDelete@cbBase@@MAEXPAVcfgBase@@@Z 00515000 f   rmx sdk:cbBase.obj
 0002:0009f0d0       ??0?$rmxList@PAVcfgBase@@@@QAE@XZ 005150d0 f i rmx sdk:cbBase.obj
 0002:0009f130       ??1?$rmxList@PAVcfgBase@@@@QAE@XZ 00515130 f i rmx sdk:cbBase.obj
 0002:0009f190       ?onInsertItem@?$rmxList@PAVcfgBase@@@@MAEXPAVcfgBase@@0@Z 00515190 f i rmx sdk:cbBase.obj
 0002:0009f1d0       ?onDelete@?$rmxList@PAVcfgBase@@@@MAEXPAVcfgBase@@@Z 005151d0 f i rmx sdk:cbBase.obj
 0002:0009f210       ?hasItems@?$rmxList@PAVcfgBase@@@@QBEHXZ 00515210 f i rmx sdk:cbBase.obj
 0002:0009f260       ?appendItem@?$rmxList@PAVcfgBase@@@@QAEHPAVcfgBase@@@Z 00515260 f i rmx sdk:cbBase.obj
 0002:0009f2c0       ?insertItem@?$rmxList@PAVcfgBase@@@@QAEHPAVcfgBase@@0@Z 005152c0 f i rmx sdk:cbBase.obj
 0002:0009f460       ?removeItem@?$rmxList@PAVcfgBase@@@@QAEHPAVcfgBase@@@Z 00515460 f i rmx sdk:cbBase.obj
 0002:0009f4f0       ?emptyItems@?$rmxList@PAVcfgBase@@@@QAEXXZ 005154f0 f i rmx sdk:cbBase.obj
 0002:0009f560       ?appendItem@?$rmxList@PAVcbBase@@@@QAEHPAVcbBase@@@Z 00515560 f i rmx sdk:cbBase.obj
 0002:0009f5c0       ?removeItem@?$rmxList@PAVcbBase@@@@QAEHPAVcbBase@@@Z 005155c0 f i rmx sdk:cbBase.obj
 0002:0009f650       ?zeroList@?$rmxList@PAVcfgBase@@@@AAEXXZ 00515650 f i rmx sdk:cbBase.obj
 0002:0009f6c0       ?createNew@?$rmxList@PAVcfgBase@@@@AAEPAUvtagLIST@1@PAVcfgBase@@@Z 005156c0 f i rmx sdk:cbBase.obj
 0002:0009f760       ?removeOld@?$rmxList@PAVcfgBase@@@@AAEXPAUvtagLIST@1@@Z 00515760 f i rmx sdk:cbBase.obj
 0002:0009f8c0       ?findItem@?$rmxList@PAVcfgBase@@@@ABEPAUvtagLIST@1@PAVcfgBase@@@Z 005158c0 f i rmx sdk:cbBase.obj
 0002:0009f9a0       ?insertItem@?$rmxList@PAVcbBase@@@@QAEHPAVcbBase@@0@Z 005159a0 f i rmx sdk:cbBase.obj
 0002:0009fb40       ?removeOld@?$rmxList@PAVcbBase@@@@AAEXPAUvtagLIST@1@@Z 00515b40 f i rmx sdk:cbBase.obj
 0002:0009fca0       ?findItem@?$rmxList@PAVcbBase@@@@ABEPAUvtagLIST@1@PAVcbBase@@@Z 00515ca0 f i rmx sdk:cbBase.obj
 0002:0009fd80       ?createNew@?$rmxList@PAVcbBase@@@@AAEPAUvtagLIST@1@PAVcbBase@@@Z 00515d80 f i rmx sdk:cbBase.obj
 0002:0009fe20       ??0rmxData@@QAE@XZ         00515e20 f   rmx sdk:rmxData.obj
 0002:0009fef0       ??0rmxLock@@QAE@_N@Z       00515ef0 f i rmx sdk:rmxData.obj
 0002:0009ff50       ??1rmxLock@@QAE@XZ         00515f50 f i rmx sdk:rmxData.obj
 0002:0009ff90       ?lock@rmxLock@@QAEXXZ      00515f90 f i rmx sdk:rmxData.obj
 0002:0009ffd0       ?setLocked@rmxLock@@QAEX_N@Z 00515fd0 f i rmx sdk:rmxData.obj
 0002:000a0020       ?onDataUpdated@rmxData@@MAEXXZ 00516020 f i rmx sdk:rmxData.obj
 0002:000a0060       ?_clear_data@rmxData@@AAEXXZ 00516060 f i rmx sdk:rmxData.obj
 0002:000a0120       ??_ErmxData@@UAEPAXI@Z     00516120 f i rmx sdk:rmxData.obj
 0002:000a0120       ??_GrmxData@@UAEPAXI@Z     00516120 f i rmx sdk:rmxData.obj
 0002:000a0190       ??0rmxData@@QAE@PBD_N@Z    00516190 f   rmx sdk:rmxData.obj
 0002:000a0280       ??0rmxData@@QAE@H@Z        00516280 f   rmx sdk:rmxData.obj
 0002:000a0360       ??0rmxData@@QAE@_J@Z       00516360 f   rmx sdk:rmxData.obj
 0002:000a0450       ??0rmxData@@QAE@N@Z        00516450 f   rmx sdk:rmxData.obj
 0002:000a0540       ??0rmxData@@QAE@U_GUID@@@Z 00516540 f   rmx sdk:rmxData.obj
 0002:000a0680       ??0rmxData@@QAE@K@Z        00516680 f   rmx sdk:rmxData.obj
 0002:000a0760       ??1rmxData@@UAE@XZ         00516760 f   rmx sdk:rmxData.obj
 0002:000a0820       ?dispatchDataUpdate@rmxData@@AAEXXZ 00516820 f   rmx sdk:rmxData.obj
 0002:000a08c0       ?unlock@rmxLock@@QAEXXZ    005168c0 f i rmx sdk:rmxData.obj
 0002:000a0900       ?isLocked@rmxLock@@QBE_NXZ 00516900 f i rmx sdk:rmxData.obj
 0002:000a0940       ?clone@rmxData@@QBEPAV1@XZ 00516940 f   rmx sdk:rmxData.obj
 0002:000a0e90       ?clone@rmxData@@QBEPAV1@PAV1@@Z 00516e90 f   rmx sdk:rmxData.obj
 0002:000a1050       ?getValue@rmxData@@QBEPBDXZ 00517050 f   rmx sdk:rmxData.obj
 0002:000a12b0       ?getValueInt@rmxData@@QBEHXZ 005172b0 f   rmx sdk:rmxData.obj
 0002:000a1460       ?getValueLong@rmxData@@QBE_JXZ 00517460 f   rmx sdk:rmxData.obj
 0002:000a1640       ?getValueNumber@rmxData@@QBENXZ 00517640 f   rmx sdk:rmxData.obj
 0002:000a17c0       ?getValueGuid@rmxData@@QBE?AU_GUID@@XZ 005177c0 f   rmx sdk:rmxData.obj
 0002:000a1870       ?getValueFourCC@rmxData@@QBEKXZ 00517870 f   rmx sdk:rmxData.obj
 0002:000a1a10       ?isValued@rmxData@@QBE_NPBD@Z 00517a10 f   rmx sdk:rmxData.obj
 0002:000a1ab0       ?setValue@rmxData@@QAEXPBD_N@Z 00517ab0 f   rmx sdk:rmxData.obj
 0002:000a1f20       ?isReadOnly@rmxData@@QBE_NXZ 00517f20 f i rmx sdk:rmxData.obj
 0002:000a1f70       ?setValue@rmxData@@QAEXPB_W_N@Z 00517f70 f   rmx sdk:rmxData.obj
 0002:000a2080       ?setValueString@rmxData@@QAEXPBDJ@Z 00518080 f   rmx sdk:rmxData.obj
 0002:000a2270       ?setValueWide@rmxData@@QAEXPB_W@Z 00518270 f   rmx sdk:rmxData.obj
 0002:000a2370       ?setValueInt@rmxData@@QAEXH@Z 00518370 f   rmx sdk:rmxData.obj
 0002:000a2430       ?setValueLong@rmxData@@QAEX_J@Z 00518430 f   rmx sdk:rmxData.obj
 0002:000a2520       ?setValueNumber@rmxData@@QAEXN@Z 00518520 f   rmx sdk:rmxData.obj
 0002:000a25f0       ?setValueGuid@rmxData@@QAEXU_GUID@@@Z 005185f0 f   rmx sdk:rmxData.obj
 0002:000a26e0       ?setValueFourCC@rmxData@@QAEXK@Z 005186e0 f   rmx sdk:rmxData.obj
 0002:000a27a0       ?setValueNull@rmxData@@QAEXXZ 005187a0 f   rmx sdk:rmxData.obj
 0002:000a2810       ?specialString@rmxData@@SAHPBD@Z 00518810 f   rmx sdk:rmxData.obj
 0002:000a2c40       ??0funcParam@@QAE@PBD00PAVcfgBase@@1PAVvHPARAMLIST@@@Z 00518c40 f   rmx sdk:funcParam.obj
 0002:000a2d80       ??_GfuncParam@@UAEPAXI@Z   00518d80 f i rmx sdk:funcParam.obj
 0002:000a2d80       ??_EfuncParam@@UAEPAXI@Z   00518d80 f i rmx sdk:funcParam.obj
 0002:000a2df0       ??1funcParam@@UAE@XZ       00518df0 f   rmx sdk:funcParam.obj
 0002:000a2e70       ?addListItem@funcParam@@QAEPAVcfgBase@@PBD@Z 00518e70 f   rmx sdk:funcParam.obj
 0002:000a2f80       ?setDefaultValue@funcParam@@QAEXPAVcfgBase@@@Z 00518f80 f   rmx sdk:funcParam.obj
 0002:000a3000       ?setDefaultValue@funcParam@@QAEXPBD@Z 00519000 f i rmx sdk:funcParam.obj
 0002:000a3060       ??_EfuncParam@@WCI@AEPAXI@Z 00519060 f i rmx sdk:funcParam.obj
 0002:000a3070       ??_EfuncParam@@WEI@AEPAXI@Z 00519070 f i rmx sdk:funcParam.obj
 0002:000a3080       ?rmxThreadProc@@YGKPAX@Z   00519080 f   rmx sdk:rmxThread.obj
 0002:000a3160       ??0rmxThread@@IAE@_N@Z     00519160 f   rmx sdk:rmxThread.obj
 0002:000a3210       ??_ErmxThread@@UAEPAXI@Z   00519210 f i rmx sdk:rmxThread.obj
 0002:000a3210       ??_GrmxThread@@UAEPAXI@Z   00519210 f i rmx sdk:rmxThread.obj
 0002:000a3280       ??1rmxThread@@UAE@XZ       00519280 f   rmx sdk:rmxThread.obj
 0002:000a3330       ?Begin@rmxThread@@QAEXH@Z  00519330 f   rmx sdk:rmxThread.obj
 0002:000a3480       ?End@rmxThread@@QAEXXZ     00519480 f   rmx sdk:rmxThread.obj
 0002:000a3590       ?isRunning@rmxThread@@QCE_NXZ 00519590 f   rmx sdk:rmxThread.obj
 0002:000a3600       ?setThreadPriority@rmxThread@@QAEXH@Z 00519600 f   rmx sdk:rmxThread.obj
 0002:000a36b0       ?getThreadPriority@rmxThread@@QBEHXZ 005196b0 f   rmx sdk:rmxThread.obj
 0002:000a3710       ??0rmxUtf8ToWide@@QAE@PBDH@Z 00519710 f   rmx sdk:rmxUnicode.obj
 0002:000a43c0       ??1rmxUtf8ToWide@@QAE@XZ   0051a3c0 f   rmx sdk:rmxUnicode.obj
 0002:000a4430       ??0rmxToUtf8@@QAE@PBDH@Z   0051a430 f   rmx sdk:rmxUnicode.obj
 0002:000a4680       ??0rmxToUtf8@@QAE@PB_WH@Z  0051a680 f   rmx sdk:rmxUnicode.obj
 0002:000a4980       ??0rmxToUtf8@@QAE@PBIH@Z   0051a980 f   rmx sdk:rmxUnicode.obj
 0002:000a4d40       ??1rmxToUtf8@@QAE@XZ       0051ad40 f   rmx sdk:rmxUnicode.obj
 0002:000a4db0       ??0vTimer@@IAE@IH@Z        0051adb0 f   rmx sdk:Timer.obj
 0002:000a4ef0       ?onTimer@vTimer@@UAEXK@Z   0051aef0 f i rmx sdk:Timer.obj
 0002:000a4f30       ??_EvTimer@@UAEPAXI@Z      0051af30 f i rmx sdk:Timer.obj
 0002:000a4f30       ??_GvTimer@@UAEPAXI@Z      0051af30 f i rmx sdk:Timer.obj
 0002:000a4fa0       ??1vTimer@@UAE@XZ          0051afa0 f   rmx sdk:Timer.obj
 0002:000a50a0       ?setTimeout@vTimer@@QAEXI@Z 0051b0a0 f   rmx sdk:Timer.obj
 0002:000a5120       ?startTimer@vTimer@@QCEXXZ 0051b120 f   rmx sdk:Timer.obj
 0002:000a51a0       ?stopTimer@vTimer@@QCEXXZ  0051b1a0 f   rmx sdk:Timer.obj
 0002:000a5220       ??0vTimedCallback@@IAE@XZ  0051b220 f   rmx sdk:Timer.obj
 0002:000a52e0       ?onEvent@vTimedCallback@@MAEXPAX@Z 0051b2e0 f i rmx sdk:Timer.obj
 0002:000a5320       ??_EvTimedCallback@@MAEPAXI@Z 0051b320 f i rmx sdk:Timer.obj
 0002:000a5320       ??_GvTimedCallback@@MAEPAXI@Z 0051b320 f i rmx sdk:Timer.obj
 0002:000a5390       ??1vTimedCallback@@MAE@XZ  0051b390 f   rmx sdk:Timer.obj
 0002:000a5440       ?onTimer@vTimedCallback@@MAEXK@Z 0051b440 f   rmx sdk:Timer.obj
 0002:000a54d0       ?addEvent@vTimedCallback@@QAEXPAX@Z 0051b4d0 f   rmx sdk:Timer.obj
 0002:000a5550       ?isStarted@vTimer@@QDEHXZ  0051b550 f i rmx sdk:Timer.obj
 0002:000a5590       ?removeEvent@vTimedCallback@@QAEXPAX@Z 0051b590 f   rmx sdk:Timer.obj
 0002:000a5610       ??0vTimerList@@AAE@XZ      0051b610 f   rmx sdk:Timer.obj
 0002:000a5700       ?onInit@vMessageWnd@@MAEXXZ 0051b700 f i rmx sdk:Timer.obj
 0002:000a5740       ?onPostInit@vMessageWnd@@MAEXXZ 0051b740 f i rmx sdk:Timer.obj
 0002:000a5780       ??1vTimerList@@EAE@XZ      0051b780 f   rmx sdk:Timer.obj
 0002:000a58c0       ?setTimer@vTimerList@@AAEXPAVvTimer@@@Z 0051b8c0 f   rmx sdk:Timer.obj
 0002:000a5950       ?getWnd@vMessageWnd@@QBEPAUHWND__@@XZ 0051b950 f i rmx sdk:Timer.obj
 0002:000a5990       ?getTimeout@vTimer@@QBEIXZ 0051b990 f i rmx sdk:Timer.obj
 0002:000a59d0       ?killTimer@vTimerList@@AAEXPAVvTimer@@@Z 0051b9d0 f   rmx sdk:Timer.obj
 0002:000a5a50       ?wndProc@vTimerList@@MAEKIKK@Z 0051ba50 f   rmx sdk:Timer.obj
 0002:000a5b10       ??0?$rmxList@PAX@@QAE@XZ   0051bb10 f i rmx sdk:Timer.obj
 0002:000a5b70       ??1?$rmxList@PAX@@QAE@XZ   0051bb70 f i rmx sdk:Timer.obj
 0002:000a5bd0       ?onInsertItem@?$rmxList@PAX@@MAEXPAX0@Z 0051bbd0 f i rmx sdk:Timer.obj
 0002:000a5c10       ?onDelete@?$rmxList@PAX@@MAEXPAX@Z 0051bc10 f i rmx sdk:Timer.obj
 0002:000a5c50       ?onItemMoved@?$rmxList@PAX@@MAEXPAX0@Z 0051bc50 f i rmx sdk:Timer.obj
 0002:000a5c90       ?getItemCount@?$rmxList@PAX@@QBEHXZ 0051bc90 f i rmx sdk:Timer.obj
 0002:000a5cd0       ?appendItem@?$rmxList@PAX@@QAEHPAX@Z 0051bcd0 f i rmx sdk:Timer.obj
 0002:000a5d30       ?removeItem@?$rmxList@PAX@@QAEHPAX@Z 0051bd30 f i rmx sdk:Timer.obj
 0002:000a5dc0       ?getFirstItem@?$rmxList@PAX@@QBEPAXXZ 0051bdc0 f i rmx sdk:Timer.obj
 0002:000a5e40       ??0?$rmxList@PAVvTimer@@@@QAE@XZ 0051be40 f i rmx sdk:Timer.obj
 0002:000a5ea0       ??1?$rmxList@PAVvTimer@@@@QAE@XZ 0051bea0 f i rmx sdk:Timer.obj
 0002:000a5f00       ?onInsertItem@?$rmxList@PAVvTimer@@@@MAEXPAVvTimer@@0@Z 0051bf00 f i rmx sdk:Timer.obj
 0002:000a5f40       ?onDelete@?$rmxList@PAVvTimer@@@@MAEXPAVvTimer@@@Z 0051bf40 f i rmx sdk:Timer.obj
 0002:000a5f80       ?onItemMoved@?$rmxList@PAVvTimer@@@@MAEXPAVvTimer@@0@Z 0051bf80 f i rmx sdk:Timer.obj
 0002:000a5fc0       ?hasItems@?$rmxList@PAVvTimer@@@@QBEHXZ 0051bfc0 f i rmx sdk:Timer.obj
 0002:000a6010       ?hasItem@?$rmxList@PAVvTimer@@@@QBEHPAVvTimer@@@Z 0051c010 f i rmx sdk:Timer.obj
 0002:000a6070       ?appendItem@?$rmxList@PAVvTimer@@@@QAEHPAVvTimer@@@Z 0051c070 f i rmx sdk:Timer.obj
 0002:000a60d0       ?removeItem@?$rmxList@PAVvTimer@@@@QAEHPAVvTimer@@@Z 0051c0d0 f i rmx sdk:Timer.obj
 0002:000a6160       ?getFirstItem@?$rmxList@PAVvTimer@@@@QBEPAVvTimer@@XZ 0051c160 f i rmx sdk:Timer.obj
 0002:000a61e0       ?insertItem@?$rmxList@PAX@@QAEHPAX0@Z 0051c1e0 f i rmx sdk:Timer.obj
 0002:000a6380       ?emptyItems@?$rmxList@PAX@@QAEXXZ 0051c380 f i rmx sdk:Timer.obj
 0002:000a63f0       ?zeroList@?$rmxList@PAX@@AAEXXZ 0051c3f0 f i rmx sdk:Timer.obj
 0002:000a6460       ?removeOld@?$rmxList@PAX@@AAEXPAUvtagLIST@1@@Z 0051c460 f i rmx sdk:Timer.obj
 0002:000a65c0       ?findItem@?$rmxList@PAX@@ABEPAUvtagLIST@1@PAX@Z 0051c5c0 f i rmx sdk:Timer.obj
 0002:000a66a0       ?insertItem@?$rmxList@PAVvTimer@@@@QAEHPAVvTimer@@0@Z 0051c6a0 f i rmx sdk:Timer.obj
 0002:000a6840       ?emptyItems@?$rmxList@PAVvTimer@@@@QAEXXZ 0051c840 f i rmx sdk:Timer.obj
 0002:000a68b0       ?zeroList@?$rmxList@PAVvTimer@@@@AAEXXZ 0051c8b0 f i rmx sdk:Timer.obj
 0002:000a6920       ?removeOld@?$rmxList@PAVvTimer@@@@AAEXPAUvtagLIST@1@@Z 0051c920 f i rmx sdk:Timer.obj
 0002:000a6a80       ?findItem@?$rmxList@PAVvTimer@@@@ABEPAUvtagLIST@1@PAVvTimer@@@Z 0051ca80 f i rmx sdk:Timer.obj
 0002:000a6b60       ?createNew@?$rmxList@PAX@@AAEPAUvtagLIST@1@PAX@Z 0051cb60 f i rmx sdk:Timer.obj
 0002:000a6c00       ?createNew@?$rmxList@PAVvTimer@@@@AAEPAUvtagLIST@1@PAVvTimer@@@Z 0051cc00 f i rmx sdk:Timer.obj
 0002:000a6ca0       ??_EvTimerList@@GBE@AEPAXI@Z 0051cca0 f i rmx sdk:Timer.obj
 0002:000a6cb0       ??_GvTimerList@@EAEPAXI@Z  0051ccb0 f i rmx sdk:Timer.obj
 0002:000a6cb0       ??_EvTimerList@@EAEPAXI@Z  0051ccb0 f i rmx sdk:Timer.obj
 0002:000a6d20       ??0cfgBase@@QAE@PBD0PAV0@1PAVvHPARAMLIST@@@Z 0051cd20 f   rmx sdk:cfgBase.obj
 0002:000a6fa0       ??0prmBase@@QAE@PBD0@Z     0051cfa0 f i rmx sdk:cfgBase.obj
 0002:000a7090       ??1prmBase@@UAE@XZ         0051d090 f i rmx sdk:cfgBase.obj
 0002:000a7170       ??_GprmBase@@UAEPAXI@Z     0051d170 f i rmx sdk:cfgBase.obj
 0002:000a7170       ??_EprmBase@@UAEPAXI@Z     0051d170 f i rmx sdk:cfgBase.obj
 0002:000a71e0       ?insertChild@cfgBase@@AAEXPAV1@0@Z 0051d1e0 f i rmx sdk:cfgBase.obj
 0002:000a7240       ??_EcfgBase@@UAEPAXI@Z     0051d240 f i rmx sdk:cfgBase.obj
 0002:000a7240       ??_GcfgBase@@UAEPAXI@Z     0051d240 f i rmx sdk:cfgBase.obj
 0002:000a72b0       ??1cfgBase@@UAE@XZ         0051d2b0 f   rmx sdk:cfgBase.obj
 0002:000a7500       ?dispatchMessage@cfgBase@@IAEXW4cbMessage@@PBD@Z 0051d500 f   rmx sdk:cfgBase.obj
 0002:000a7660       ?dispatchMessage@cfgBase@@IAEXW4cbMessage@@_J@Z 0051d660 f   rmx sdk:cfgBase.obj
 0002:000a77c0       ?dispatchMessage@cfgBase@@IAEXW4cbMessage@@PAVprmBase@@@Z 0051d7c0 f   rmx sdk:cfgBase.obj
 0002:000a7930       ?rmxDataUnlock@rmxData@@AAEXXZ 0051d930 f i rmx sdk:cfgBase.obj
 0002:000a7990       ?dispatchMessage@cfgBase@@IAEXW4cbMessage@@PBV1@1@Z 0051d990 f   rmx sdk:cfgBase.obj
 0002:000a7af0       ?initConfig@cfgBase@@QAEXXZ 0051daf0 f   rmx sdk:cfgBase.obj
 0002:000a7c10       ?isInited@cfgBase@@QBEHXZ  0051dc10 f i rmx sdk:cfgBase.obj
 0002:000a7c60       ?getNextChild@cfgBase@@QBEPAV1@PBV1@@Z 0051dc60 f i rmx sdk:cfgBase.obj
 0002:000a7cc0       ?setName@cfgBase@@QAEXPBD@Z 0051dcc0 f   rmx sdk:cfgBase.obj
 0002:000a7d40       ?isReadOnly@cfgBase@@QBEHXZ 0051dd40 f i rmx sdk:cfgBase.obj
 0002:000a7d90       ?setVisible@cfgBase@@QAEXH@Z 0051dd90 f   rmx sdk:cfgBase.obj
 0002:000a7e50       ?hasChildrenVisible@cfgBase@@QBEHH@Z 0051de50 f   rmx sdk:cfgBase.obj
 0002:000a7f10       ?isVisible@cfgBase@@QBEHXZ 0051df10 f i rmx sdk:cfgBase.obj
 0002:000a7f60       ?setEnabled@cfgBase@@QAEXH@Z 0051df60 f   rmx sdk:cfgBase.obj
 0002:000a8020       ?hasChildrenEnabled@cfgBase@@QBEHH@Z 0051e020 f   rmx sdk:cfgBase.obj
 0002:000a80e0       ?setExpanded@cfgBase@@QAEXH@Z 0051e0e0 f   rmx sdk:cfgBase.obj
 0002:000a81a0       ?hasChildrenExpanded@cfgBase@@QBEHH@Z 0051e1a0 f   rmx sdk:cfgBase.obj
 0002:000a8260       ?isExpanded@cfgBase@@QBEHXZ 0051e260 f i rmx sdk:cfgBase.obj
 0002:000a82b0       ?setHighlighted@cfgBase@@QAEXH@Z 0051e2b0 f   rmx sdk:cfgBase.obj
 0002:000a8370       ?hasChildrenHighlighted@cfgBase@@QBEHH@Z 0051e370 f   rmx sdk:cfgBase.obj
 0002:000a8430       ?isHighlighted@cfgBase@@QBEHXZ 0051e430 f i rmx sdk:cfgBase.obj
 0002:000a8480       ?setSavable@cfgBase@@QAEXH@Z 0051e480 f   rmx sdk:cfgBase.obj
 0002:000a8540       ?hasChildrenSavable@cfgBase@@QBEHH@Z 0051e540 f   rmx sdk:cfgBase.obj
 0002:000a8600       ?isSavable@cfgBase@@QBEHXZ 0051e600 f i rmx sdk:cfgBase.obj
 0002:000a8650       ?setReadOnly@cfgBase@@QAEXH@Z 0051e650 f   rmx sdk:cfgBase.obj
 0002:000a8700       ?hasChildrenReadOnly@cfgBase@@QBEHH@Z 0051e700 f   rmx sdk:cfgBase.obj
 0002:000a87c0       ?getParam@cfgBase@@QBEPBDPBD@Z 0051e7c0 f   rmx sdk:cfgBase.obj
 0002:000a8850       ?getParamSafe@cfgBase@@QBEPBDPBD0@Z 0051e850 f   rmx sdk:cfgBase.obj
 0002:000a88f0       ?getParamInt@cfgBase@@QBEHPBD@Z 0051e8f0 f   rmx sdk:cfgBase.obj
 0002:000a8980       ?getParamLong@cfgBase@@QBE_JPBD@Z 0051e980 f   rmx sdk:cfgBase.obj
 0002:000a8a30       ?getParamNumber@cfgBase@@QBENPBD@Z 0051ea30 f   rmx sdk:cfgBase.obj
 0002:000a8ac0       ?getParamGuid@cfgBase@@QBE?AU_GUID@@PBD@Z 0051eac0 f   rmx sdk:cfgBase.obj
 0002:000a8b90       ?setParamValue@cfgBase@@QAEPAVprmBase@@PBDD@Z 0051eb90 f   rmx sdk:cfgBase.obj
 0002:000a8d60       ?setParamNull@cfgBase@@QAEPAVprmBase@@PBD@Z 0051ed60 f i rmx sdk:cfgBase.obj
 0002:000a8dc0       ?setParam@cfgBase@@QAEPAVprmBase@@PBD0@Z 0051edc0 f   rmx sdk:cfgBase.obj
 0002:000a8f30       ?setParam@cfgBase@@QAEPAVprmBase@@PBDPBVrmxData@@@Z 0051ef30 f   rmx sdk:cfgBase.obj
 0002:000a90a0       ?setValue@rmxData@@QAEXPBV1@@Z 0051f0a0 f i rmx sdk:cfgBase.obj
 0002:000a9100       ??0prmBase@@QAE@PBD@Z      0051f100 f i rmx sdk:cfgBase.obj
 0002:000a91f0       ?setParamString@cfgBase@@QAEPAVprmBase@@PBD0@Z 0051f1f0 f   rmx sdk:cfgBase.obj
 0002:000a9360       ?setParamInt@cfgBase@@QAEPAVprmBase@@PBDH@Z 0051f360 f   rmx sdk:cfgBase.obj
 0002:000a94c0       ??0prmBase@@QAE@PBDH@Z     0051f4c0 f i rmx sdk:cfgBase.obj
 0002:000a95b0       ?setParamLong@cfgBase@@QAEPAVprmBase@@PBD_J@Z 0051f5b0 f   rmx sdk:cfgBase.obj
 0002:000a9720       ??0prmBase@@QAE@PBD_J@Z    0051f720 f i rmx sdk:cfgBase.obj
 0002:000a9820       ?setParamNumber@cfgBase@@QAEPAVprmBase@@PBDN@Z 0051f820 f   rmx sdk:cfgBase.obj
 0002:000a9990       ??0prmBase@@QAE@PBDN@Z     0051f990 f i rmx sdk:cfgBase.obj
 0002:000a9a90       ?setParamGuid@cfgBase@@QAEPAVprmBase@@PBDU_GUID@@@Z 0051fa90 f   rmx sdk:cfgBase.obj
 0002:000a9c70       ??0prmBase@@QAE@PBDU_GUID@@@Z 0051fc70 f i rmx sdk:cfgBase.obj
 0002:000a9dc0       ?setParams@cfgBase@@QAEXPAVvHPARAMLIST@@@Z 0051fdc0 f   rmx sdk:cfgBase.obj
 0002:000a9f60       ?getParamData@cfgBase@@QBEPAVprmBase@@PBD@Z 0051ff60 f   rmx sdk:cfgBase.obj
 0002:000aa060       ?getParamById@cfgBase@@QBEPAVprmBase@@_J@Z 00520060 f   rmx sdk:cfgBase.obj
 0002:000aa190       ?getId@prmBase@@QBE_JXZ    00520190 f i rmx sdk:cfgBase.obj
 0002:000aa1d0       ?getParamId@cfgBase@@QBE_JPBD@Z 005201d0 f   rmx sdk:cfgBase.obj
 0002:000aa280       ?setParamId@cfgBase@@QAEXPBD_J@Z 00520280 f   rmx sdk:cfgBase.obj
 0002:000aa300       ?setId@prmBase@@QAEX_J@Z   00520300 f i rmx sdk:cfgBase.obj
 0002:000aa350       ?getParamFlags@cfgBase@@QBEIPBD@Z 00520350 f   rmx sdk:cfgBase.obj
 0002:000aa3e0       ?setParamSavable@cfgBase@@QAEXPBDH@Z 005203e0 f   rmx sdk:cfgBase.obj
 0002:000aa470       ?isParamSavable@cfgBase@@QBEHPBD@Z 00520470 f   rmx sdk:cfgBase.obj
 0002:000aa500       ?isSavable@rmxData@@QBE_NXZ 00520500 f i rmx sdk:cfgBase.obj
 0002:000aa550       ?setParamReadOnly@cfgBase@@QAEXPBDH@Z 00520550 f   rmx sdk:cfgBase.obj
 0002:000aa5e0       ?isParamReadOnly@cfgBase@@QBEHPBD@Z 005205e0 f   rmx sdk:cfgBase.obj
 0002:000aa670       ?removeParam@cfgBase@@QAEXPAVprmBase@@@Z 00520670 f   rmx sdk:cfgBase.obj
 0002:000aa780       ?removeAllParams@cfgBase@@QAEXXZ 00520780 f   rmx sdk:cfgBase.obj
 0002:000aa820       ?getChild@cfgBase@@QBEPAV1@PBD0PAVvHPARAMLIST@@@Z 00520820 f   rmx sdk:cfgBase.obj
 0002:000aa970       ?getType@cfgBase@@QBEPBDXZ 00520970 f i rmx sdk:cfgBase.obj
 0002:000aa9d0       ?getChildById@cfgBase@@QBEPAV1@_JH@Z 005209d0 f   rmx sdk:cfgBase.obj
 0002:000aaac0       ?getId@cfgBase@@QBE_JXZ    00520ac0 f i rmx sdk:cfgBase.obj
 0002:000aab00       ?hasChild@cfgBase@@QAEHPBV1@H@Z 00520b00 f   rmx sdk:cfgBase.obj
 0002:000aac00       ?hasChildCached@cfgBase@@QAEHPBV1@@Z 00520c00 f   rmx sdk:cfgBase.obj
 0002:000aacb0       ?removeAllChildren@cfgBase@@QAEXXZ 00520cb0 f   rmx sdk:cfgBase.obj
 0002:000aadb0       ?moveListUp@cfgBase@@QAEXXZ 00520db0 f   rmx sdk:cfgBase.obj
 0002:000aae50       ?getParent@cfgBase@@QBEPAV1@XZ 00520e50 f i rmx sdk:cfgBase.obj
 0002:000aae90       ?getPrevChild@cfgBase@@QBEPAV1@PBV1@@Z 00520e90 f i rmx sdk:cfgBase.obj
 0002:000aaef0       ?moveListDown@cfgBase@@QAEXXZ 00520ef0 f   rmx sdk:cfgBase.obj
 0002:000aaf90       ?moveListToBegining@cfgBase@@QAEXXZ 00520f90 f   rmx sdk:cfgBase.obj
 0002:000ab030       ?getFirstChild@cfgBase@@QBEPAV1@XZ 00521030 f i rmx sdk:cfgBase.obj
 0002:000ab090       ?moveListToEnd@cfgBase@@QAEXXZ 00521090 f   rmx sdk:cfgBase.obj
 0002:000ab110       ?moveChild@cfgBase@@QAEXPBV1@0@Z 00521110 f   rmx sdk:cfgBase.obj
 0002:000ab1b0       ?removeChild@cfgBase@@AAEXPAV1@@Z 005211b0 f   rmx sdk:cfgBase.obj
 0002:000ab240       ?hasItem@?$rmxList@PAVcfgBase@@@@QBEHPAVcfgBase@@@Z 00521240 f i rmx sdk:cfgBase.obj
 0002:000ab2a0       ?getFirstItem@?$rmxList@PAVcfgBase@@@@QBEPAVcfgBase@@XZ 005212a0 f i rmx sdk:cfgBase.obj
 0002:000ab320       ?getCachedItem@?$rmxList@PAVcfgBase@@@@QBEPAVcfgBase@@XZ 00521320 f i rmx sdk:cfgBase.obj
 0002:000ab390       ?getNextItem@?$rmxList@PAVcfgBase@@@@QBEPAVcfgBase@@PAV2@@Z 00521390 f i rmx sdk:cfgBase.obj
 0002:000ab420       ?getPrevItem@?$rmxList@PAVcfgBase@@@@QBEPAVcfgBase@@PAV2@@Z 00521420 f i rmx sdk:cfgBase.obj
 0002:000ab4c0       ?moveItem@?$rmxList@PAVcfgBase@@@@QAEHPAVcfgBase@@0@Z 005214c0 f i rmx sdk:cfgBase.obj
 0002:000ab680       ??0?$rmxList@PAVprmBase@@@@QAE@XZ 00521680 f i rmx sdk:cfgBase.obj
 0002:000ab6e0       ??1?$rmxList@PAVprmBase@@@@QAE@XZ 005216e0 f i rmx sdk:cfgBase.obj
 0002:000ab740       ?onInsertItem@?$rmxList@PAVprmBase@@@@MAEXPAVprmBase@@0@Z 00521740 f i rmx sdk:cfgBase.obj
 0002:000ab780       ?onDelete@?$rmxList@PAVprmBase@@@@MAEXPAVprmBase@@@Z 00521780 f i rmx sdk:cfgBase.obj
 0002:000ab7c0       ?onItemMoved@?$rmxList@PAVprmBase@@@@MAEXPAVprmBase@@0@Z 005217c0 f i rmx sdk:cfgBase.obj
 0002:000ab800       ?hasItem@?$rmxList@PAVprmBase@@@@QBEHPAVprmBase@@@Z 00521800 f i rmx sdk:cfgBase.obj
 0002:000ab860       ?removeItem@?$rmxList@PAVprmBase@@@@QAEHPAVprmBase@@@Z 00521860 f i rmx sdk:cfgBase.obj
 0002:000ab8f0       ?getCachedItem@?$rmxList@PAVprmBase@@@@QBEPAVprmBase@@XZ 005218f0 f i rmx sdk:cfgBase.obj
 0002:000ab960       ??0?$rmxList@PAVcbBase@@@@QAE@XZ 00521960 f i rmx sdk:cfgBase.obj
 0002:000ab9c0       ??0?$rmxList@PAVcbBase@@@@QAE@ABV0@@Z 005219c0 f i rmx sdk:cfgBase.obj
 0002:000aba30       ??1?$rmxList@PAVcbBase@@@@QAE@XZ 00521a30 f i rmx sdk:cfgBase.obj
 0002:000aba90       ?onInsertItem@?$rmxList@PAVcbBase@@@@MAEXPAVcbBase@@0@Z 00521a90 f i rmx sdk:cfgBase.obj
 0002:000abad0       ?onDelete@?$rmxList@PAVcbBase@@@@MAEXPAVcbBase@@@Z 00521ad0 f i rmx sdk:cfgBase.obj
 0002:000abb10       ?onItemMoved@?$rmxList@PAVcbBase@@@@MAEXPAVcbBase@@0@Z 00521b10 f i rmx sdk:cfgBase.obj
 0002:000abb50       ?hasItem@?$rmxList@PAVcbBase@@@@QBEHPAVcbBase@@@Z 00521b50 f i rmx sdk:cfgBase.obj
 0002:000abbb0       ?getFirstItem@?$rmxList@PAVcbBase@@@@QBEPAVcbBase@@XZ 00521bb0 f i rmx sdk:cfgBase.obj
 0002:000abc30       ?getNextItem@?$rmxList@PAVcbBase@@@@QBEPAVcbBase@@PAV2@@Z 00521c30 f i rmx sdk:cfgBase.obj
 0002:000abcc0       ?emptyItems@?$rmxList@PAVprmBase@@@@QAEXXZ 00521cc0 f i rmx sdk:cfgBase.obj
 0002:000abd30       ?zeroList@?$rmxList@PAVprmBase@@@@AAEXXZ 00521d30 f i rmx sdk:cfgBase.obj
 0002:000abda0       ?removeOld@?$rmxList@PAVprmBase@@@@AAEXPAUvtagLIST@1@@Z 00521da0 f i rmx sdk:cfgBase.obj
 0002:000abf00       ?clone@?$rmxList@PAVcbBase@@@@QAEXPBV1@@Z 00521f00 f i rmx sdk:cfgBase.obj
 0002:000abf90       ?emptyItems@?$rmxList@PAVcbBase@@@@QAEXXZ 00521f90 f i rmx sdk:cfgBase.obj
 0002:000ac000       ?zeroList@?$rmxList@PAVcbBase@@@@AAEXXZ 00522000 f i rmx sdk:cfgBase.obj
 0002:000ac070       ??_EcfgBase@@WCI@AEPAXI@Z  00522070 f i rmx sdk:cfgBase.obj
 0002:000ac080       ??_EcfgBase@@WEI@AEPAXI@Z  00522080 f i rmx sdk:cfgBase.obj
 0002:000ac090       ??_EprmBase@@WCI@AEPAXI@Z  00522090 f i rmx sdk:cfgBase.obj
 0002:000ac0a0       ??0cfgLink@@QAE@PBDPAVcfgBase@@1PAVvHPARAMLIST@@@Z 005220a0 f   rmx sdk:cfgLink.obj
 0002:000ac190       ??_GcfgLink@@UAEPAXI@Z     00522190 f i rmx sdk:cfgLink.obj
 0002:000ac190       ??_EcfgLink@@UAEPAXI@Z     00522190 f i rmx sdk:cfgLink.obj
 0002:000ac200       ??1cfgLink@@UAE@XZ         00522200 f   rmx sdk:cfgLink.obj
 0002:000ac280       ??_EcfgLink@@WCI@AEPAXI@Z  00522280 f i rmx sdk:cfgLink.obj
 0002:000ac290       ??_EcfgLink@@WEI@AEPAXI@Z  00522290 f i rmx sdk:cfgLink.obj
 0002:000ac2a0       ??0cfgTree@@QAE@PBDPAVcfgBase@@1PAVvHPARAMLIST@@@Z 005222a0 f   rmx sdk:cfgTree.obj
 0002:000ac3a0       ??_GcfgTree@@UAEPAXI@Z     005223a0 f i rmx sdk:cfgTree.obj
 0002:000ac3a0       ??_EcfgTree@@UAEPAXI@Z     005223a0 f i rmx sdk:cfgTree.obj
 0002:000ac410       ??1cfgTree@@UAE@XZ         00522410 f   rmx sdk:cfgTree.obj
 0002:000ac490       ??_EcfgTree@@WCI@AEPAXI@Z  00522490 f i rmx sdk:cfgTree.obj
 0002:000ac4a0       ??_EcfgTree@@WEI@AEPAXI@Z  005224a0 f i rmx sdk:cfgTree.obj
 0002:000ac4b0       ??0cfgStatusBar@@QAE@PAVcfgBase@@0PAVvHPARAMLIST@@@Z 005224b0 f   rmx sdk:cfgStatusBar.obj
 0002:000ac5a0       ??_GcfgStatusBar@@UAEPAXI@Z 005225a0 f i rmx sdk:cfgStatusBar.obj
 0002:000ac5a0       ??_EcfgStatusBar@@UAEPAXI@Z 005225a0 f i rmx sdk:cfgStatusBar.obj
 0002:000ac610       ??1cfgStatusBar@@UAE@XZ    00522610 f   rmx sdk:cfgStatusBar.obj
 0002:000ac690       ??_EcfgStatusBar@@WCI@AEPAXI@Z 00522690 f i rmx sdk:cfgStatusBar.obj
 0002:000ac6a0       ??_EcfgStatusBar@@WEI@AEPAXI@Z 005226a0 f i rmx sdk:cfgStatusBar.obj
 0002:000ac6b0       ??0cbCore@@IAE@PAVvHPLUGIN@@PAVvHLIST@@@Z 005226b0 f   rmx sdk:cbCore.obj
 0002:000ac790       ??_GcbCore@@MAEPAXI@Z      00522790 f i rmx sdk:cbCore.obj
 0002:000ac790       ??_EcbCore@@MAEPAXI@Z      00522790 f i rmx sdk:cbCore.obj
 0002:000ac800       ??1cbCore@@MAE@XZ          00522800 f   rmx sdk:cbCore.obj
 0002:000ac8b0       ?setRemoteConfig@cbCore@@QAEXPAVvHLIST@@@Z 005228b0 f   rmx sdk:cbCore.obj
 0002:000ac990       ?guidToChar@rmxGuid@@SAPADU_GUID@@PAD@Z 00522990 f   rmx sdk:rmxGuid.obj
 0002:000aca90       ?guidFromChar@rmxGuid@@SA?AU_GUID@@PBD@Z 00522a90 f   rmx sdk:rmxGuid.obj
 0002:000acce0       ?guidcmp@rmxGuid@@SAHU_GUID@@0@Z 00522ce0 f   rmx sdk:rmxGuid.obj
 0002:000acdf0       ?guidrand@rmxGuid@@SA?AU_GUID@@XZ 00522df0 f   rmx sdk:rmxGuid.obj
 0002:000acf00       ?isValidGuid@rmxGuid@@SA_NU_GUID@@@Z 00522f00 f   rmx sdk:rmxGuid.obj
 0002:000acff0       ?isValidGuid@rmxGuid@@SA_NPBDJ@Z 00522ff0 f   rmx sdk:rmxGuid.obj
 0002:000ad100       ?isValidGuidString@rmxGuid@@SA_NPBDJ@Z 00523100 f   rmx sdk:rmxGuid.obj
 0002:000ad2b0       ??0cfgBool@@QAE@PBDPAVcfgBase@@1PAVvHPARAMLIST@@@Z 005232b0 f   rmx sdk:cfgBool.obj
 0002:000ad3a0       ??_GcfgBool@@UAEPAXI@Z     005233a0 f i rmx sdk:cfgBool.obj
 0002:000ad3a0       ??_EcfgBool@@UAEPAXI@Z     005233a0 f i rmx sdk:cfgBool.obj
 0002:000ad410       ??1cfgBool@@UAE@XZ         00523410 f   rmx sdk:cfgBool.obj
 0002:000ad490       ?setValue@cfgBool@@QAEXHH@Z 00523490 f   rmx sdk:cfgBool.obj
 0002:000ad520       ?getValue@cfgBool@@QBEHXZ  00523520 f   rmx sdk:cfgBool.obj
 0002:000ad570       ?validateUserData@cfgBool@@MAEXPAVprmBase@@@Z 00523570 f   rmx sdk:cfgBool.obj
 0002:000ad5e0       ??_EcfgBool@@WCI@AEPAXI@Z  005235e0 f i rmx sdk:cfgBool.obj
 0002:000ad5f0       ??_EcfgBool@@WEI@AEPAXI@Z  005235f0 f i rmx sdk:cfgBool.obj
 0002:000ad600       _VFEXISTS                  00523600 f   rmx sdk:rmxBase.obj
 0002:000ad6a0       _VFSIZE                    005236a0 f   rmx sdk:rmxBase.obj
 0002:000ad750       _RAND                      00523750 f   rmx sdk:rmxBase.obj
 0002:000ad840       ??0cfgButton@@IAE@PBDPAVcfgBase@@1PAVvHPARAMLIST@@@Z 00523840 f   rmx sdk:cfgButton.obj
 0002:000ad960       ??_GcfgButton@@MAEPAXI@Z   00523960 f i rmx sdk:cfgButton.obj
 0002:000ad960       ??_EcfgButton@@MAEPAXI@Z   00523960 f i rmx sdk:cfgButton.obj
 0002:000ad9d0       ??0cfgButton@@IAE@PBD0PAVcfgBase@@1PAVvHPARAMLIST@@@Z 005239d0 f   rmx sdk:cfgButton.obj
 0002:000adaf0       ??0cfgButton@@IAE@PBD00PAVcfgBase@@1PAVvHPARAMLIST@@@Z 00523af0 f   rmx sdk:cfgButton.obj
 0002:000adc10       ??1cfgButton@@MAE@XZ       00523c10 f   rmx sdk:cfgButton.obj
 0002:000adc90       ?onMessage@cfgButton@@MAE_JPAVvHPLUGIN@@_J11@Z 00523c90 f   rmx sdk:cfgButton.obj
 0002:000add50       ??_EcfgButton@@OCI@AEPAXI@Z 00523d50 f i rmx sdk:cfgButton.obj
 0002:000add60       ??_EcfgButton@@OEI@AEPAXI@Z 00523d60 f i rmx sdk:cfgButton.obj
 0002:000add70       _delete_JSON_parser        00523d70 f   rmx sdk:JSON_parser.obj
 0002:000ade40       _new_JSON_parser           00523e40 f   rmx sdk:JSON_parser.obj
 0002:000ae1f0       _JSON_parser_char          005241f0 f   rmx sdk:JSON_parser.obj
 0002:000b01b0       _JSON_parser_done          005261b0 f   rmx sdk:JSON_parser.obj
 0002:000b0240       _JSON_parser_is_legal_white_space_string 00526240 f   rmx sdk:JSON_parser.obj
 0002:000b02f0       _init_JSON_config          005262f0 f   rmx sdk:JSON_parser.obj
 0002:000b0360       ??4rmxString@@QAEABV0@PBVrmxData@@@Z 00526360 f   rmx sdk:rmxString.obj
 0002:000b03c0       ??4rmxString@@QAEABV0@H@Z  005263c0 f   rmx sdk:rmxString.obj
 0002:000b04b0       ??4rmxString@@QAEABV0@_J@Z 005264b0 f   rmx sdk:rmxString.obj
 0002:000b05a0       ??4rmxString@@QAEABV0@N@Z  005265a0 f   rmx sdk:rmxString.obj
 0002:000b0690       ??4rmxString@@QAEABV0@U_GUID@@@Z 00526690 f   rmx sdk:rmxString.obj
 0002:000b07d0       ??4rmxString@@QAEABV0@K@Z  005267d0 f   rmx sdk:rmxString.obj
 0002:000b08c0       ??YrmxString@@QAEABV0@PBVrmxData@@@Z 005268c0 f   rmx sdk:rmxString.obj
 0002:000b0920       ??YrmxString@@QAEABV0@H@Z  00526920 f   rmx sdk:rmxString.obj
 0002:000b0a10       ??YrmxString@@QAEABV0@_J@Z 00526a10 f   rmx sdk:rmxString.obj
 0002:000b0b00       ??YrmxString@@QAEABV0@N@Z  00526b00 f   rmx sdk:rmxString.obj
 0002:000b0bf0       ??YrmxString@@QAEABV0@U_GUID@@@Z 00526bf0 f   rmx sdk:rmxString.obj
 0002:000b0d30       ??YrmxString@@QAEABV0@K@Z  00526d30 f   rmx sdk:rmxString.obj
 0002:000b0e20       ??HrmxString@@QBE?BV0@PBVrmxData@@@Z 00526e20 f   rmx sdk:rmxString.obj
 0002:000b0f40       ??0rmxString@@QAE@ABV0@@Z  00526f40 f i rmx sdk:rmxString.obj
 0002:000b0fb0       ??HrmxString@@QBE?BV0@H@Z  00526fb0 f   rmx sdk:rmxString.obj
 0002:000b10d0       ??HrmxString@@QBE?BV0@_J@Z 005270d0 f   rmx sdk:rmxString.obj
 0002:000b11f0       ??HrmxString@@QBE?BV0@N@Z  005271f0 f   rmx sdk:rmxString.obj
 0002:000b1310       ??HrmxString@@QBE?BV0@U_GUID@@@Z 00527310 f   rmx sdk:rmxString.obj
 0002:000b1470       ??HrmxString@@QBE?BV0@K@Z  00527470 f   rmx sdk:rmxString.obj
 0002:000b1590       ??8rmxString@@QBE_NPBVrmxData@@@Z 00527590 f   rmx sdk:rmxString.obj
 0002:000b15f0       ??8rmxString@@QBE_NH@Z     005275f0 f   rmx sdk:rmxString.obj
 0002:000b16e0       ??8rmxString@@QBE_N_J@Z    005276e0 f   rmx sdk:rmxString.obj
 0002:000b17e0       ??8rmxString@@QBE_NN@Z     005277e0 f   rmx sdk:rmxString.obj
 0002:000b18e0       ??8rmxString@@QBE_NU_GUID@@@Z 005278e0 f   rmx sdk:rmxString.obj
 0002:000b1a30       ??8rmxString@@QBE_NK@Z     00527a30 f   rmx sdk:rmxString.obj
 0002:000b1b20       ??9rmxString@@QBE_NPBVrmxData@@@Z 00527b20 f   rmx sdk:rmxString.obj
 0002:000b1b80       ??9rmxString@@QBE_NH@Z     00527b80 f   rmx sdk:rmxString.obj
 0002:000b1c70       ??9rmxString@@QBE_N_J@Z    00527c70 f   rmx sdk:rmxString.obj
 0002:000b1d70       ??9rmxString@@QBE_NN@Z     00527d70 f   rmx sdk:rmxString.obj
 0002:000b1e70       ??9rmxString@@QBE_NU_GUID@@@Z 00527e70 f   rmx sdk:rmxString.obj
 0002:000b1fc0       ??9rmxString@@QBE_NK@Z     00527fc0 f   rmx sdk:rmxString.obj
 0002:000b20b0       ??MrmxString@@QBE_NPBVrmxData@@@Z 005280b0 f   rmx sdk:rmxString.obj
 0002:000b2110       ??MrmxString@@QBE_NH@Z     00528110 f   rmx sdk:rmxString.obj
 0002:000b2210       ??MrmxString@@QBE_N_J@Z    00528210 f   rmx sdk:rmxString.obj
 0002:000b2350       ??MrmxString@@QBE_NN@Z     00528350 f   rmx sdk:rmxString.obj
 0002:000b2470       ??MrmxString@@QBE_NU_GUID@@@Z 00528470 f   rmx sdk:rmxString.obj
 0002:000b2600       ??MrmxString@@QBE_NK@Z     00528600 f   rmx sdk:rmxString.obj
 0002:000b2700       ??NrmxString@@QBE_NPBVrmxData@@@Z 00528700 f   rmx sdk:rmxString.obj
 0002:000b2760       ??NrmxString@@QBE_NH@Z     00528760 f   rmx sdk:rmxString.obj
 0002:000b2860       ??NrmxString@@QBE_N_J@Z    00528860 f   rmx sdk:rmxString.obj
 0002:000b29a0       ??NrmxString@@QBE_NN@Z     005289a0 f   rmx sdk:rmxString.obj
 0002:000b2ac0       ??NrmxString@@QBE_NU_GUID@@@Z 00528ac0 f   rmx sdk:rmxString.obj
 0002:000b2c50       ??NrmxString@@QBE_NK@Z     00528c50 f   rmx sdk:rmxString.obj
 0002:000b2d50       ??OrmxString@@QBE_NPBVrmxData@@@Z 00528d50 f   rmx sdk:rmxString.obj
 0002:000b2db0       ??OrmxString@@QBE_NH@Z     00528db0 f   rmx sdk:rmxString.obj
 0002:000b2eb0       ??OrmxString@@QBE_N_J@Z    00528eb0 f   rmx sdk:rmxString.obj
 0002:000b2ff0       ??OrmxString@@QBE_NN@Z     00528ff0 f   rmx sdk:rmxString.obj
 0002:000b3110       ??OrmxString@@QBE_NU_GUID@@@Z 00529110 f   rmx sdk:rmxString.obj
 0002:000b32a0       ??OrmxString@@QBE_NK@Z     005292a0 f   rmx sdk:rmxString.obj
 0002:000b33a0       ??PrmxString@@QBE_NPBVrmxData@@@Z 005293a0 f   rmx sdk:rmxString.obj
 0002:000b3400       ??PrmxString@@QBE_NH@Z     00529400 f   rmx sdk:rmxString.obj
 0002:000b3500       ??PrmxString@@QBE_N_J@Z    00529500 f   rmx sdk:rmxString.obj
 0002:000b3640       ??PrmxString@@QBE_NN@Z     00529640 f   rmx sdk:rmxString.obj
 0002:000b3760       ??PrmxString@@QBE_NU_GUID@@@Z 00529760 f   rmx sdk:rmxString.obj
 0002:000b38f0       ??PrmxString@@QBE_NK@Z     005298f0 f   rmx sdk:rmxString.obj
 0002:000b39f0       ??0cfgRoot@@QAE@PBD@Z      005299f0 f   rmx sdk:cfgRoot.obj
 0002:000b3b20       ??_GcfgRoot@@UAEPAXI@Z     00529b20 f i rmx sdk:cfgRoot.obj
 0002:000b3b20       ??_EcfgRoot@@UAEPAXI@Z     00529b20 f i rmx sdk:cfgRoot.obj
 0002:000b3b90       ??1cfgRoot@@UAE@XZ         00529b90 f   rmx sdk:cfgRoot.obj
 0002:000b3c10       ??_EcfgRoot@@WCI@AEPAXI@Z  00529c10 f i rmx sdk:cfgRoot.obj
 0002:000b3c20       ??_EcfgRoot@@WEI@AEPAXI@Z  00529c20 f i rmx sdk:cfgRoot.obj
 0002:000b3c30       ??0funcPress@@IAE@PBD0PAVcfgRoot@@@Z 00529c30 f   rmx sdk:funcPress.obj
 0002:000b3d40       ??_GfuncPress@@UAEPAXI@Z   00529d40 f i rmx sdk:funcPress.obj
 0002:000b3d40       ??_EfuncPress@@UAEPAXI@Z   00529d40 f i rmx sdk:funcPress.obj
 0002:000b3db0       ??0funcPress@@IAE@PBD0PAVfuncGroup@@@Z 00529db0 f   rmx sdk:funcPress.obj
 0002:000b3ec0       ??1funcPress@@UAE@XZ       00529ec0 f   rmx sdk:funcPress.obj
 0002:000b3f40       ?onActivated@funcPress@@MAEXPAVvHPLUGIN@@PAVvHLIST@@1@Z 00529f40 f   rmx sdk:funcPress.obj
 0002:000b41e0       ??_EfuncPress@@WCI@AEPAXI@Z 0052a1e0 f i rmx sdk:funcPress.obj
 0002:000b41f0       ??_EfuncPress@@WEI@AEPAXI@Z 0052a1f0 f i rmx sdk:funcPress.obj
 0002:000b4200       ??0funcCallback@@AAE@PAVfuncBase@@PAVvHPLUGIN@@PAVvHLIST@@@Z 0052a200 f   rmx sdk:funcCallback.obj
 0002:000b4290       ??_EfuncCallback@@EAEPAXI@Z 0052a290 f i rmx sdk:funcCallback.obj
 0002:000b4290       ??_GfuncCallback@@EAEPAXI@Z 0052a290 f i rmx sdk:funcCallback.obj
 0002:000b4300       ??1funcCallback@@EAE@XZ    0052a300 f   rmx sdk:funcCallback.obj
 0002:000b4370       ?cb_onSetParam@funcCallback@@MAEXPAVvHPARAM@@@Z 0052a370 f   rmx sdk:funcCallback.obj
 0002:000b44a0       ?cb_onSetEnabled@funcCallback@@MAEXH@Z 0052a4a0 f   rmx sdk:funcCallback.obj
 0002:000b4550       ?cb_onDelete@funcCallback@@MAEXPAVvHLIST@@@Z 0052a550 f   rmx sdk:funcCallback.obj
 0002:000b4640       ??0rmxMutex@@QAE@_N@Z      0052a640 f   rmx sdk:rmxMutex.obj
 0002:000b46d0       ??_ErmxMutex@@UAEPAXI@Z    0052a6d0 f i rmx sdk:rmxMutex.obj
 0002:000b46d0       ??_GrmxMutex@@UAEPAXI@Z    0052a6d0 f i rmx sdk:rmxMutex.obj
 0002:000b4740       ??1rmxMutex@@UAE@XZ        0052a740 f   rmx sdk:rmxMutex.obj
 0002:000b47d0       ?lock@rmxMutex@@QCE_NXZ    0052a7d0 f   rmx sdk:rmxMutex.obj
 0002:000b4860       ?unlock@rmxMutex@@QCE_NXZ  0052a860 f   rmx sdk:rmxMutex.obj
 0002:000b48e0       ??0vMessageWnd@@QAE@PBDPAV0@@Z 0052a8e0 f   rmx sdk:MessageWnd.obj
 0002:000b49f0       ??_GvMessageWnd@@UAEPAXI@Z 0052a9f0 f i rmx sdk:MessageWnd.obj
 0002:000b49f0       ??_EvMessageWnd@@UAEPAXI@Z 0052a9f0 f i rmx sdk:MessageWnd.obj
 0002:000b4a60       ??0vMessageWnd@@QAE@PB_WPAV0@@Z 0052aa60 f   rmx sdk:MessageWnd.obj
 0002:000b4b70       ??0rmxString@@QAE@PB_W@Z   0052ab70 f i rmx sdk:MessageWnd.obj
 0002:000b4c70       ?getBufferSafe@rmxToUtf8@@QAEPBDPBD@Z 0052ac70 f i rmx sdk:MessageWnd.obj
 0002:000b4ce0       ??1vMessageWnd@@UAE@XZ     0052ace0 f   rmx sdk:MessageWnd.obj
 0002:000b4de0       ?init@vMessageWnd@@QAEPAUHWND__@@XZ 0052ade0 f   rmx sdk:MessageWnd.obj
 0002:000b4ec0       ?onCreateWindow@vMessageWnd@@MAEPAUHWND__@@XZ 0052aec0 f   rmx sdk:MessageWnd.obj
 0002:000b5170       ?getClassName@vMessageWnd@@QBEPBDXZ 0052b170 f i rmx sdk:MessageWnd.obj
 0002:000b51d0       ?sendMessage@vMessageWnd@@QAEKIKK@Z 0052b1d0 f   rmx sdk:MessageWnd.obj
 0002:000b5250       ?sendMessageA@vMessageWnd@@QAEKIKK@Z 0052b250 f   rmx sdk:MessageWnd.obj
 0002:000b52d0       ?sendMessageW@vMessageWnd@@QAEKIKK@Z 0052b2d0 f   rmx sdk:MessageWnd.obj
 0002:000b5350       ?postMessage@vMessageWnd@@QAEKIKK@Z 0052b350 f   rmx sdk:MessageWnd.obj
 0002:000b53d0       ?postMessageA@vMessageWnd@@QAEKIKK@Z 0052b3d0 f   rmx sdk:MessageWnd.obj
 0002:000b5450       ?postMessageW@vMessageWnd@@QAEKIKK@Z 0052b450 f   rmx sdk:MessageWnd.obj
 0002:000b54d0       ?wndProc@vMessageWnd@@MAEKIKK@Z 0052b4d0 f   rmx sdk:MessageWnd.obj
 0002:000b5550       ?wndProc_setup@vMessageWnd@@AAEKIKK@Z 0052b550 f   rmx sdk:MessageWnd.obj
 0002:000b55f0       ?static_wndProc@vMessageWnd@@CGJPAUHWND__@@IIJ@Z 0052b5f0 f   rmx sdk:MessageWnd.obj
 0002:000b5700       ??0cfgNull@@QAE@PBDPAVcfgBase@@1PAVvHPARAMLIST@@@Z 0052b700 f   rmx sdk:cfgNull.obj
 0002:000b5800       ??_EcfgNull@@UAEPAXI@Z     0052b800 f i rmx sdk:cfgNull.obj
 0002:000b5800       ??_GcfgNull@@UAEPAXI@Z     0052b800 f i rmx sdk:cfgNull.obj
 0002:000b5870       ??0cfgNull@@QAE@PBD0PAVcfgBase@@1PAVvHPARAMLIST@@@Z 0052b870 f   rmx sdk:cfgNull.obj
 0002:000b5970       ??1cfgNull@@UAE@XZ         0052b970 f   rmx sdk:cfgNull.obj
 0002:000b59f0       ?validateParam@cfgNull@@MAEXPAVprmBase@@@Z 0052b9f0 f   rmx sdk:cfgNull.obj
 0002:000b5ad0       ??_EcfgNull@@WCI@AEPAXI@Z  0052bad0 f i rmx sdk:cfgNull.obj
 0002:000b5ae0       ??_EcfgNull@@WEI@AEPAXI@Z  0052bae0 f i rmx sdk:cfgNull.obj
 0002:000b5af0       ??0CBString@Bstrlib@@QAE@XZ 0052baf0 f   bstring:bstrwrap.obj
 0002:000b5ce0       ??0CBStringException@Bstrlib@@QAE@ABV?$basic_string@DU?$char_traits@D@std@@V?$allocator@D@2@@std@@@Z 0052bce0 f i bstring:bstrwrap.obj
 0002:000b5dc0       ??1CBStringException@Bstrlib@@UAE@XZ 0052bdc0 f i bstring:bstrwrap.obj
 0002:000b5e40       ?what@CBStringException@Bstrlib@@UBEPBDXZ 0052be40 f i bstring:bstrwrap.obj
 0002:000b5ea0       ??_ECBStringException@Bstrlib@@UAEPAXI@Z 0052bea0 f i bstring:bstrwrap.obj
 0002:000b5ea0       ??_GCBStringException@Bstrlib@@UAEPAXI@Z 0052bea0 f i bstring:bstrwrap.obj
 0002:000b5f10       ??0CBStringException@Bstrlib@@QAE@ABU01@@Z 0052bf10 f i bstring:bstrwrap.obj
 0002:000b5ff0       ??_ECBString@Bstrlib@@UAEPAXI@Z 0052bff0 f i bstring:bstrwrap.obj
 0002:000b5ff0       ??_GCBString@Bstrlib@@UAEPAXI@Z 0052bff0 f i bstring:bstrwrap.obj
 0002:000b6060       ??0CBString@Bstrlib@@QAE@PBXH@Z 0052c060 f   bstring:bstrwrap.obj
 0002:000b62b0       ??0CBString@Bstrlib@@QAE@DH@Z 0052c2b0 f   bstring:bstrwrap.obj
 0002:000b6500       ??0CBString@Bstrlib@@QAE@D@Z 0052c500 f   bstring:bstrwrap.obj
 0002:000b6710       ??0CBString@Bstrlib@@QAE@E@Z 0052c710 f   bstring:bstrwrap.obj
 0002:000b6920       ??0CBString@Bstrlib@@QAE@PBD@Z 0052c920 f   bstring:bstrwrap.obj
 0002:000b6c30       ??0CBString@Bstrlib@@QAE@HPBD@Z 0052cc30 f   bstring:bstrwrap.obj
 0002:000b6f50       ??0CBString@Bstrlib@@QAE@ABU01@@Z 0052cf50 f   bstring:bstrwrap.obj
 0002:000b7180       ??0CBString@Bstrlib@@QAE@ABUtagbstring@@@Z 0052d180 f   bstring:bstrwrap.obj
 0002:000b73c0       ??1CBString@Bstrlib@@UAE@XZ 0052d3c0 f   bstring:bstrwrap.obj
 0002:000b7470       ??4CBString@Bstrlib@@QAEABU01@D@Z 0052d470 f   bstring:bstrwrap.obj
 0002:000b7730       ??4CBString@Bstrlib@@QAEABU01@E@Z 0052d730 f   bstring:bstrwrap.obj
 0002:000b79f0       ??4CBString@Bstrlib@@QAEABU01@PBD@Z 0052d9f0 f   bstring:bstrwrap.obj
 0002:000b7dc0       ??4CBString@Bstrlib@@QAEABU01@ABU01@@Z 0052ddc0 f   bstring:bstrwrap.obj
 0002:000b80b0       ??4CBString@Bstrlib@@QAEABU01@ABUtagbstring@@@Z 0052e0b0 f   bstring:bstrwrap.obj
 0002:000b8470       ??YCBString@Bstrlib@@QAEABU01@ABU01@@Z 0052e470 f   bstring:bstrwrap.obj
 0002:000b8660       ??YCBString@Bstrlib@@QAEABU01@PBD@Z 0052e660 f   bstring:bstrwrap.obj
 0002:000b89e0       ??YCBString@Bstrlib@@QAEABU01@D@Z 0052e9e0 f   bstring:bstrwrap.obj
 0002:000b8ba0       ??YCBString@Bstrlib@@QAEABU01@E@Z 0052eba0 f   bstring:bstrwrap.obj
 0002:000b8d60       ??YCBString@Bstrlib@@QAEABU01@ABUtagbstring@@@Z 0052ed60 f   bstring:bstrwrap.obj
 0002:000b9130       ??HCBString@Bstrlib@@QBE?BU01@D@Z 0052f130 f   bstring:bstrwrap.obj
 0002:000b9250       ??HCBString@Bstrlib@@QBE?BU01@E@Z 0052f250 f   bstring:bstrwrap.obj
 0002:000b9370       ??HCBString@Bstrlib@@QBE?BU01@ABU01@@Z 0052f370 f   bstring:bstrwrap.obj
 0002:000b9490       ??HCBString@Bstrlib@@QBE?BU01@PBD@Z 0052f490 f   bstring:bstrwrap.obj
 0002:000b9690       ??HCBString@Bstrlib@@QBE?BU01@PBE@Z 0052f690 f   bstring:bstrwrap.obj
 0002:000b9890       ??HCBString@Bstrlib@@QBE?BU01@ABUtagbstring@@@Z 0052f890 f   bstring:bstrwrap.obj
 0002:000b9a90       ??8CBString@Bstrlib@@QBE_NABU01@@Z 0052fa90 f   bstring:bstrwrap.obj
 0002:000b9c90       ??8CBString@Bstrlib@@QBE_NPBD@Z 0052fc90 f   bstring:bstrwrap.obj
 0002:000b9f40       ??8CBString@Bstrlib@@QBE_NPBE@Z 0052ff40 f   bstring:bstrwrap.obj
 0002:000ba1f0       ??9CBString@Bstrlib@@QBE_NABU01@@Z 005301f0 f   bstring:bstrwrap.obj
 0002:000ba260       ??9CBString@Bstrlib@@QBE_NPBD@Z 00530260 f   bstring:bstrwrap.obj
 0002:000ba2d0       ??9CBString@Bstrlib@@QBE_NPBE@Z 005302d0 f   bstring:bstrwrap.obj
 0002:000ba340       ??MCBString@Bstrlib@@QBE_NABU01@@Z 00530340 f   bstring:bstrwrap.obj
 0002:000ba540       ??MCBString@Bstrlib@@QBE_NPBD@Z 00530540 f   bstring:bstrwrap.obj
 0002:000ba6e0       ??MCBString@Bstrlib@@QBE_NPBE@Z 005306e0 f   bstring:bstrwrap.obj
 0002:000ba880       ??NCBString@Bstrlib@@QBE_NABU01@@Z 00530880 f   bstring:bstrwrap.obj
 0002:000baa80       ??NCBString@Bstrlib@@QBE_NPBD@Z 00530a80 f   bstring:bstrwrap.obj
 0002:000bac20       ??NCBString@Bstrlib@@QBE_NPBE@Z 00530c20 f   bstring:bstrwrap.obj
 0002:000badc0       ??OCBString@Bstrlib@@QBE_NABU01@@Z 00530dc0 f   bstring:bstrwrap.obj
 0002:000bae30       ??OCBString@Bstrlib@@QBE_NPBD@Z 00530e30 f   bstring:bstrwrap.obj
 0002:000baea0       ??OCBString@Bstrlib@@QBE_NPBE@Z 00530ea0 f   bstring:bstrwrap.obj
 0002:000baf10       ??PCBString@Bstrlib@@QBE_NABU01@@Z 00530f10 f   bstring:bstrwrap.obj
 0002:000baf80       ??PCBString@Bstrlib@@QBE_NPBD@Z 00530f80 f   bstring:bstrwrap.obj
 0002:000baff0       ??PCBString@Bstrlib@@QBE_NPBE@Z 00530ff0 f   bstring:bstrwrap.obj
 0002:000bb060       ??BCBString@Bstrlib@@QBENXZ 00531060 f   bstring:bstrwrap.obj
 0002:000bb220       ??BCBString@Bstrlib@@QBEMXZ 00531220 f   bstring:bstrwrap.obj
 0002:000bb3e0       ??BCBString@Bstrlib@@QBEHXZ 005313e0 f   bstring:bstrwrap.obj
 0002:000bb5a0       ??BCBString@Bstrlib@@QBEIXZ 005315a0 f   bstring:bstrwrap.obj
 0002:000bb760       ?format@CBString@Bstrlib@@QAAXPBDZZ 00531760 f   bstring:bstrwrap.obj
 0002:000bbcb0       ?formata@CBString@Bstrlib@@QAAXPBDZZ 00531cb0 f   bstring:bstrwrap.obj
 0002:000bc200       ?caselessEqual@CBString@Bstrlib@@QBEHABU12@@Z 00532200 f   bstring:bstrwrap.obj
 0002:000bc3f0       ?caselessCmp@CBString@Bstrlib@@QBEHABU12@@Z 005323f0 f   bstring:bstrwrap.obj
 0002:000bc5e0       ?find@CBString@Bstrlib@@QBEHABU12@H@Z 005325e0 f   bstring:bstrwrap.obj
 0002:000bc6a0       ?find@CBString@Bstrlib@@QBEHPBDH@Z 005326a0 f   bstring:bstrwrap.obj
 0002:000bc9f0       ?caselessfind@CBString@Bstrlib@@QBEHABU12@H@Z 005329f0 f   bstring:bstrwrap.obj
 0002:000bcab0       ?caselessfind@CBString@Bstrlib@@QBEHPBDH@Z 00532ab0 f   bstring:bstrwrap.obj
 0002:000bcd10       ?find@CBString@Bstrlib@@QBEHDH@Z 00532d10 f   bstring:bstrwrap.obj
 0002:000bcda0       ?reversefind@CBString@Bstrlib@@QBEHABU12@H@Z 00532da0 f   bstring:bstrwrap.obj
 0002:000bce60       ?reversefind@CBString@Bstrlib@@QBEHPBDH@Z 00532e60 f   bstring:bstrwrap.obj
 0002:000bd080       ?caselessreversefind@CBString@Bstrlib@@QBEHABU12@H@Z 00533080 f   bstring:bstrwrap.obj
 0002:000bd140       ?caselessreversefind@CBString@Bstrlib@@QBEHPBDH@Z 00533140 f   bstring:bstrwrap.obj
 0002:000bd3a0       ?reversefind@CBString@Bstrlib@@QBEHDH@Z 005333a0 f   bstring:bstrwrap.obj
 0002:000bd440       ?findchr@CBString@Bstrlib@@QBEHABU12@H@Z 00533440 f   bstring:bstrwrap.obj
 0002:000bd500       ?findchr@CBString@Bstrlib@@QBEHPBDH@Z 00533500 f   bstring:bstrwrap.obj
 0002:000bd720       ?nfindchr@CBString@Bstrlib@@QBEHABU12@H@Z 00533720 f   bstring:bstrwrap.obj
 0002:000bd7e0       ?nfindchr@CBString@Bstrlib@@QBEHPBDH@Z 005337e0 f   bstring:bstrwrap.obj
 0002:000bda00       ?reversefindchr@CBString@Bstrlib@@QBEHABU12@H@Z 00533a00 f   bstring:bstrwrap.obj
 0002:000bdac0       ?reversefindchr@CBString@Bstrlib@@QBEHPBDH@Z 00533ac0 f   bstring:bstrwrap.obj
 0002:000bdce0       ?nreversefindchr@CBString@Bstrlib@@QBEHABU12@H@Z 00533ce0 f   bstring:bstrwrap.obj
 0002:000bdda0       ?nreversefindchr@CBString@Bstrlib@@QBEHPBDH@Z 00533da0 f   bstring:bstrwrap.obj
 0002:000bdfc0       ?midstr@CBString@Bstrlib@@QBE?BU12@HH@Z 00533fc0 f   bstring:bstrwrap.obj
 0002:000be100       ?alloc@CBString@Bstrlib@@QAEXH@Z 00534100 f   bstring:bstrwrap.obj
 0002:000be2c0       ?fill@CBString@Bstrlib@@QAEXHE@Z 005342c0 f   bstring:bstrwrap.obj
 0002:000be490       ?setsubstr@CBString@Bstrlib@@QAEXHABU12@E@Z 00534490 f   bstring:bstrwrap.obj
 0002:000be680       ?setsubstr@CBString@Bstrlib@@QAEXHPBDE@Z 00534680 f   bstring:bstrwrap.obj
 0002:000be980       ?insert@CBString@Bstrlib@@QAEXHABU12@E@Z 00534980 f   bstring:bstrwrap.obj
 0002:000beb70       ?insert@CBString@Bstrlib@@QAEXHPBDE@Z 00534b70 f   bstring:bstrwrap.obj
 0002:000bee70       ?insertchrs@CBString@Bstrlib@@QAEXHHE@Z 00534e70 f   bstring:bstrwrap.obj
 0002:000bf030       ?replace@CBString@Bstrlib@@QAEXHHABU12@E@Z 00535030 f   bstring:bstrwrap.obj
 0002:000bf220       ?replace@CBString@Bstrlib@@QAEXHHPBDE@Z 00535220 f   bstring:bstrwrap.obj
 0002:000bf8d0       ?findreplace@CBString@Bstrlib@@QAEXABU12@0H@Z 005358d0 f   bstring:bstrwrap.obj
 0002:000bfaf0       ?findreplace@CBString@Bstrlib@@QAEXABU12@PBDH@Z 00535af0 f   bstring:bstrwrap.obj
 0002:000bfe20       ?findreplace@CBString@Bstrlib@@QAEXPBDABU12@H@Z 00535e20 f   bstring:bstrwrap.obj
 0002:000c0150       ?findreplace@CBString@Bstrlib@@QAEXPBD0H@Z 00536150 f   bstring:bstrwrap.obj
 0002:000c04b0       ?findreplacecaseless@CBString@Bstrlib@@QAEXABU12@0H@Z 005364b0 f   bstring:bstrwrap.obj
 0002:000c06d0       ?findreplacecaseless@CBString@Bstrlib@@QAEXABU12@PBDH@Z 005366d0 f   bstring:bstrwrap.obj
 0002:000c0a00       ?findreplacecaseless@CBString@Bstrlib@@QAEXPBDABU12@H@Z 00536a00 f   bstring:bstrwrap.obj
 0002:000c0d30       ?findreplacecaseless@CBString@Bstrlib@@QAEXPBD0H@Z 00536d30 f   bstring:bstrwrap.obj
 0002:000c1090       ?remove@CBString@Bstrlib@@QAEXHH@Z 00537090 f   bstring:bstrwrap.obj
 0002:000c1250       ?trunc@CBString@Bstrlib@@QAEXH@Z 00537250 f   bstring:bstrwrap.obj
 0002:000c1400       ?ltrim@CBString@Bstrlib@@QAEXABU12@@Z 00537400 f   bstring:bstrwrap.obj
 0002:000c1480       ?rtrim@CBString@Bstrlib@@QAEXABU12@@Z 00537480 f   bstring:bstrwrap.obj
 0002:000c1520       ?toupper@CBString@Bstrlib@@QAEXXZ 00537520 f   bstring:bstrwrap.obj
 0002:000c16e0       ?tolower@CBString@Bstrlib@@QAEXXZ 005376e0 f   bstring:bstrwrap.obj
 0002:000c18a0       ?repeat@CBString@Bstrlib@@QAEXH@Z 005378a0 f   bstring:bstrwrap.obj
 0002:000c1a90       ?gets@CBString@Bstrlib@@QAEHP6AHPAX@Z0D@Z 00537a90 f   bstring:bstrwrap.obj
 0002:000c1c70       ?read@CBString@Bstrlib@@QAEHP6AIPAXII0@Z0@Z 00537c70 f   bstring:bstrwrap.obj
 0002:000c1e40       ??HBstrlib@@YA?BUCBString@0@PBDABU10@@Z 00537e40 f   bstring:bstrwrap.obj
 0002:000c1f40       ??HBstrlib@@YA?BUCBString@0@PBEABU10@@Z 00537f40 f   bstring:bstrwrap.obj
 0002:000c2040       ??HBstrlib@@YA?BUCBString@0@DABU10@@Z 00538040 f   bstring:bstrwrap.obj
 0002:000c2140       ??HBstrlib@@YA?BUCBString@0@EABU10@@Z 00538140 f   bstring:bstrwrap.obj
 0002:000c2240       ??HBstrlib@@YA?BUCBString@0@ABUtagbstring@@ABU10@@Z 00538240 f   bstring:bstrwrap.obj
 0002:000c2340       ?writeprotect@CBString@Bstrlib@@QAEXXZ 00538340 f   bstring:bstrwrap.obj
 0002:000c2390       ?writeallow@CBString@Bstrlib@@QAEXXZ 00538390 f   bstring:bstrwrap.obj
 0002:000c2540       ??0CBString@Bstrlib@@QAE@ABUCBStringList@1@@Z 00538540 f   bstring:bstrwrap.obj
 0002:000c27c0       ??0CBString@Bstrlib@@QAE@ABUCBStringList@1@ABU01@@Z 005387c0 f   bstring:bstrwrap.obj
 0002:000c2a70       ??0CBString@Bstrlib@@QAE@ABUCBStringList@1@D@Z 00538a70 f   bstring:bstrwrap.obj
 0002:000c2d10       ??0CBString@Bstrlib@@QAE@ABUCBStringList@1@E@Z 00538d10 f   bstring:bstrwrap.obj
 0002:000c2fb0       ?join@CBString@Bstrlib@@QAEXABUCBStringList@2@@Z 00538fb0 f   bstring:bstrwrap.obj
 0002:000c33c0       ?join@CBString@Bstrlib@@QAEXABUCBStringList@2@ABU12@@Z 005393c0 f   bstring:bstrwrap.obj
 0002:000c3800       ?join@CBString@Bstrlib@@QAEXABUCBStringList@2@D@Z 00539800 f   bstring:bstrwrap.obj
 0002:000c3c30       ?join@CBString@Bstrlib@@QAEXABUCBStringList@2@E@Z 00539c30 f   bstring:bstrwrap.obj
 0002:000c4060       ?split@CBStringList@Bstrlib@@QAEXABUCBString@2@E@Z 0053a060 f   bstring:bstrwrap.obj
 0002:000c41d0       ?character@CBString@Bstrlib@@QBEEH@Z 0053a1d0 f i bstring:bstrwrap.obj
 0002:000c4360       ?split@CBStringList@Bstrlib@@QAEXABUCBString@2@0@Z 0053a360 f   bstring:bstrwrap.obj
 0002:000c46d0       ?splitstr@CBStringList@Bstrlib@@QAEXABUCBString@2@0@Z 0053a6d0 f   bstring:bstrwrap.obj
 0002:000c4950       ?split@CBStringList@Bstrlib@@QAEXABUCBStream@2@ABUCBString@2@@Z 0053a950 f   bstring:bstrwrap.obj
 0002:000c4c00       ?split@CBStringList@Bstrlib@@QAEXABUCBStream@2@E@Z 0053ac00 f   bstring:bstrwrap.obj
 0002:000c4e00       ?splitstr@CBStringList@Bstrlib@@QAEXABUCBStream@2@ABUCBString@2@@Z 0053ae00 f   bstring:bstrwrap.obj
 0002:000c4fd0       ??6Bstrlib@@YAAAV?$basic_ostream@DU?$char_traits@D@std@@@std@@AAV12@UCBString@0@@Z 0053afd0 f   bstring:bstrwrap.obj
 0002:000c50a0       ??5Bstrlib@@YAAAV?$basic_istream@DU?$char_traits@D@std@@@std@@AAV12@AAUCBString@0@@Z 0053b0a0 f   bstring:bstrwrap.obj
 0002:000c5230       ?getline@Bstrlib@@YAAAV?$basic_istream@DU?$char_traits@D@std@@@std@@AAV23@AAUCBString@1@D@Z 0053b230 f   bstring:bstrwrap.obj
 0002:000c53b0       ??0CBStream@Bstrlib@@QAE@P6AIPAXII0@Z0@Z 0053b3b0 f   bstring:bstrwrap.obj
 0002:000c5420       ??1CBStream@Bstrlib@@QAE@XZ 0053b420 f   bstring:bstrwrap.obj
 0002:000c5480       ?buffLengthSet@CBStream@Bstrlib@@QAEHH@Z 0053b480 f   bstring:bstrwrap.obj
 0002:000c5620       ?buffLengthGet@CBStream@Bstrlib@@QAEHXZ 0053b620 f   bstring:bstrwrap.obj
 0002:000c5680       ?readLine@CBStream@Bstrlib@@QAE?AUCBString@2@D@Z 0053b680 f   bstring:bstrwrap.obj
 0002:000c58b0       ?readLine@CBStream@Bstrlib@@QAE?AUCBString@2@ABU32@@Z 0053b8b0 f   bstring:bstrwrap.obj
 0002:000c5b10       ?readLine@CBStream@Bstrlib@@QAEXAAUCBString@2@D@Z 0053bb10 f   bstring:bstrwrap.obj
 0002:000c5ce0       ?readLine@CBStream@Bstrlib@@QAEXAAUCBString@2@ABU32@@Z 0053bce0 f   bstring:bstrwrap.obj
 0002:000c5ee0       ?readLineAppend@CBStream@Bstrlib@@QAEXAAUCBString@2@D@Z 0053bee0 f   bstring:bstrwrap.obj
 0002:000c60b0       ?readLineAppend@CBStream@Bstrlib@@QAEXAAUCBString@2@ABU32@@Z 0053c0b0 f   bstring:bstrwrap.obj
 0002:000c62b0       ?read@CBStream@Bstrlib@@QAE?AUCBString@2@XZ 0053c2b0 f   bstring:bstrwrap.obj
 0002:000c6510       ??5CBStream@Bstrlib@@QAEAAUCBString@1@AAU21@@Z 0053c510 f   bstring:bstrwrap.obj
 0002:000c6710       ?read@CBStream@Bstrlib@@QAE?AUCBString@2@H@Z 0053c710 f   bstring:bstrwrap.obj
 0002:000c6940       ?read@CBStream@Bstrlib@@QAEXAAUCBString@2@@Z 0053c940 f   bstring:bstrwrap.obj
 0002:000c6b30       ?read@CBStream@Bstrlib@@QAEXAAUCBString@2@H@Z 0053cb30 f   bstring:bstrwrap.obj
 0002:000c6cf0       ?readAppend@CBStream@Bstrlib@@QAEXAAUCBString@2@@Z 0053ccf0 f   bstring:bstrwrap.obj
 0002:000c6ed0       ?readAppend@CBStream@Bstrlib@@QAEXAAUCBString@2@H@Z 0053ced0 f   bstring:bstrwrap.obj
 0002:000c7090       ?unread@CBStream@Bstrlib@@QAEXABUCBString@2@@Z 0053d090 f   bstring:bstrwrap.obj
 0002:000c7250       ?peek@CBStream@Bstrlib@@QBE?AUCBString@2@XZ 0053d250 f   bstring:bstrwrap.obj
 0002:000c7470       ?peek@CBStream@Bstrlib@@QBEXAAUCBString@2@@Z 0053d470 f   bstring:bstrwrap.obj
 0002:000c7640       ?peekAppend@CBStream@Bstrlib@@QBEXAAUCBString@2@@Z 0053d640 f   bstring:bstrwrap.obj
 0002:000c7800       ?eof@CBStream@Bstrlib@@QBEHXZ 0053d800 f   bstring:bstrwrap.obj
 0002:000c79a0       ?size@?$vector@UCBString@Bstrlib@@V?$allocator@UCBString@Bstrlib@@@std@@@std@@QBEIXZ 0053d9a0 f i bstring:bstrwrap.obj
 0002:000c7a10       ?at@?$vector@UCBString@Bstrlib@@V?$allocator@UCBString@Bstrlib@@@std@@@std@@QBEABUCBString@Bstrlib@@I@Z 0053da10 f i bstring:bstrwrap.obj
 0002:000c7b60       ?push_back@?$vector@UCBString@Bstrlib@@V?$allocator@UCBString@Bstrlib@@@std@@@std@@QAEXABUCBString@Bstrlib@@@Z 0053db60 f i bstring:bstrwrap.obj
 0002:000c7c50       ??1?$_Vector_const_iterator@UCBString@Bstrlib@@V?$allocator@UCBString@Bstrlib@@@std@@@std@@QAE@XZ 0053dc50 f i bstring:bstrwrap.obj
 0002:000c7ca0       ??1?$_Vector_iterator@UCBString@Bstrlib@@V?$allocator@UCBString@Bstrlib@@@std@@@std@@QAE@XZ 0053dca0 f i bstring:bstrwrap.obj
 0002:000c7cf0       ??1?$_Ranit@UCBString@Bstrlib@@HPBU12@ABU12@@std@@QAE@XZ 0053dcf0 f i bstring:bstrwrap.obj
 0002:000c7d40       ??1_Iterator_base@std@@QAE@XZ 0053dd40 f i bstring:bstrwrap.obj
 0002:000c7e40       ?_Orphan_me@_Iterator_base@std@@QAEXXZ 0053de40 f i bstring:bstrwrap.obj
 0002:000c7f20       ?capacity@?$vector@UCBString@Bstrlib@@V?$allocator@UCBString@Bstrlib@@@std@@@std@@QBEIXZ 0053df20 f i bstring:bstrwrap.obj
 0002:000c7f90       ?begin@?$vector@UCBString@Bstrlib@@V?$allocator@UCBString@Bstrlib@@@std@@@std@@QBE?AV?$_Vector_const_iterator@UCBString@Bstrlib@@V?$allocator@UCBString@Bstrlib@@@std@@@2@XZ 0053df90 f i bstring:bstrwrap.obj
 0002:000c8020       ?end@?$vector@UCBString@Bstrlib@@V?$allocator@UCBString@Bstrlib@@@std@@@std@@QAE?AV?$_Vector_iterator@UCBString@Bstrlib@@V?$allocator@UCBString@Bstrlib@@@std@@@2@XZ 0053e020 f i bstring:bstrwrap.obj
 0002:000c80b0       ?insert@?$vector@UCBString@Bstrlib@@V?$allocator@UCBString@Bstrlib@@@std@@@std@@QAE?AV?$_Vector_iterator@UCBString@Bstrlib@@V?$allocator@UCBString@Bstrlib@@@std@@@2@V32@ABUCBString@Bstrlib@@@Z 0053e0b0 f i bstring:bstrwrap.obj
 0002:000c82b0       ?_Ufill@?$vector@UCBString@Bstrlib@@V?$allocator@UCBString@Bstrlib@@@std@@@std@@IAEPAUCBString@Bstrlib@@PAU34@IABU34@@Z 0053e2b0 f i bstring:bstrwrap.obj
 0002:000c8330       ?_Xran@?$vector@UCBString@Bstrlib@@V?$allocator@UCBString@Bstrlib@@@std@@@std@@KAXXZ 0053e330 f i bstring:bstrwrap.obj
 0002:000c8420       ??0out_of_range@std@@QAE@ABV?$basic_string@DU?$char_traits@D@std@@V?$allocator@D@2@@1@@Z 0053e420 f i bstring:bstrwrap.obj
 0002:000c8490       ??0logic_error@std@@QAE@ABV?$basic_string@DU?$char_traits@D@std@@V?$allocator@D@2@@1@@Z 0053e490 f i bstring:bstrwrap.obj
 0002:000c8570       ?what@logic_error@std@@UBEPBDXZ 0053e570 f i bstring:bstrwrap.obj
 0002:000c85d0       ??_Glogic_error@std@@UAEPAXI@Z 0053e5d0 f i bstring:bstrwrap.obj
 0002:000c85d0       ??_Elogic_error@std@@UAEPAXI@Z 0053e5d0 f i bstring:bstrwrap.obj
 0002:000c8640       ??1logic_error@std@@UAE@XZ 0053e640 f i bstring:bstrwrap.obj
 0002:000c86c0       ??1out_of_range@std@@UAE@XZ 0053e6c0 f i bstring:bstrwrap.obj
 0002:000c8720       ??_Eout_of_range@std@@UAEPAXI@Z 0053e720 f i bstring:bstrwrap.obj
 0002:000c8720       ??_Gout_of_range@std@@UAEPAXI@Z 0053e720 f i bstring:bstrwrap.obj
 0002:000c8790       ??0out_of_range@std@@QAE@ABV01@@Z 0053e790 f i bstring:bstrwrap.obj
 0002:000c8800       ??0logic_error@std@@QAE@ABV01@@Z 0053e800 f i bstring:bstrwrap.obj
 0002:000c88e0       ?_Orphan_range@?$vector@UCBString@Bstrlib@@V?$allocator@UCBString@Bstrlib@@@std@@@std@@IBEXPAUCBString@Bstrlib@@0@Z 0053e8e0 f i bstring:bstrwrap.obj
 0002:000c89f0       ??D?$_Vector_const_iterator@UCBString@Bstrlib@@V?$allocator@UCBString@Bstrlib@@@std@@@std@@QBEABUCBString@Bstrlib@@XZ 0053e9f0 f i bstring:bstrwrap.obj
 0002:000c8b00       ??H?$_Vector_const_iterator@UCBString@Bstrlib@@V?$allocator@UCBString@Bstrlib@@@std@@@std@@QBE?AV01@H@Z 0053eb00 f i bstring:bstrwrap.obj
 0002:000c8c20       ??0?$_Vector_iterator@UCBString@Bstrlib@@V?$allocator@UCBString@Bstrlib@@@std@@@std@@QAE@ABV01@@Z 0053ec20 f i bstring:bstrwrap.obj
 0002:000c8c80       ??0?$_Vector_const_iterator@UCBString@Bstrlib@@V?$allocator@UCBString@Bstrlib@@@std@@@std@@QAE@ABV01@@Z 0053ec80 f i bstring:bstrwrap.obj
 0002:000c8cf0       ??0?$_Ranit@UCBString@Bstrlib@@HPBU12@ABU12@@std@@QAE@ABU01@@Z 0053ecf0 f i bstring:bstrwrap.obj
 0002:000c8d50       ??0_Iterator_base@std@@QAE@ABV01@@Z 0053ed50 f i bstring:bstrwrap.obj
 0002:000c8dd0       ??4_Iterator_base@std@@QAEAAV01@ABV01@@Z 0053edd0 f i bstring:bstrwrap.obj
 0002:000c8f00       ?_Adopt@_Iterator_base@std@@QAEXPBV_Container_base@2@@Z 0053ef00 f i bstring:bstrwrap.obj
 0002:000c9040       ?begin@?$vector@UCBString@Bstrlib@@V?$allocator@UCBString@Bstrlib@@@std@@@std@@QAE?AV?$_Vector_iterator@UCBString@Bstrlib@@V?$allocator@UCBString@Bstrlib@@@std@@@2@XZ 0053f040 f i bstring:bstrwrap.obj
 0002:000c90d0       ?_Insert_n@?$vector@UCBString@Bstrlib@@V?$allocator@UCBString@Bstrlib@@@std@@@std@@IAEXV?$_Vector_iterator@UCBString@Bstrlib@@V?$allocator@UCBString@Bstrlib@@@std@@@2@IABUCBString@Bstrlib@@@Z 0053f0d0 f i bstring:bstrwrap.obj
 0002:000c9630       ??0?$_Vector_const_iterator@UCBString@Bstrlib@@V?$allocator@UCBString@Bstrlib@@@std@@@std@@QAE@PAUCBString@Bstrlib@@PBV_Container_base@1@@Z 0053f630 f i bstring:bstrwrap.obj
 0002:000c9770       ??Y?$_Vector_const_iterator@UCBString@Bstrlib@@V?$allocator@UCBString@Bstrlib@@@std@@@std@@QAEAAV01@H@Z 0053f770 f i bstring:bstrwrap.obj
 0002:000c98f0       ??0?$_Vector_iterator@UCBString@Bstrlib@@V?$allocator@UCBString@Bstrlib@@@std@@@std@@QAE@PAUCBString@Bstrlib@@PBV_Container_base@1@@Z 0053f8f0 f i bstring:bstrwrap.obj
 0002:000c9950       ??H?$_Vector_iterator@UCBString@Bstrlib@@V?$allocator@UCBString@Bstrlib@@@std@@@std@@QBE?AV01@H@Z 0053f950 f i bstring:bstrwrap.obj
 0002:000c9a70       ??G?$_Vector_iterator@UCBString@Bstrlib@@V?$allocator@UCBString@Bstrlib@@@std@@@std@@QBEHABV?$_Vector_const_iterator@UCBString@Bstrlib@@V?$allocator@UCBString@Bstrlib@@@std@@@1@@Z 0053fa70 f i bstring:bstrwrap.obj
 0002:000c9ad0       ??0?$_Ranit@UCBString@Bstrlib@@HPBU12@ABU12@@std@@QAE@XZ 0053fad0 f i bstring:bstrwrap.obj
 0002:000c9b30       ??0_Iterator_base@std@@QAE@XZ 0053fb30 f i bstring:bstrwrap.obj
 0002:000c9b80       ?max_size@?$vector@UCBString@Bstrlib@@V?$allocator@UCBString@Bstrlib@@@std@@@std@@QBEIXZ 0053fb80 f i bstring:bstrwrap.obj
 0002:000c9be0       ?_Destroy@?$vector@UCBString@Bstrlib@@V?$allocator@UCBString@Bstrlib@@@std@@@std@@IAEXPAUCBString@Bstrlib@@0@Z 0053fbe0 f i bstring:bstrwrap.obj
 0002:000c9c50       ?_Xlen@?$vector@UCBString@Bstrlib@@V?$allocator@UCBString@Bstrlib@@@std@@@std@@KAXXZ 0053fc50 f i bstring:bstrwrap.obj
 0002:000c9d40       ??0length_error@std@@QAE@ABV?$basic_string@DU?$char_traits@D@std@@V?$allocator@D@2@@1@@Z 0053fd40 f i bstring:bstrwrap.obj
 0002:000c9db0       ??1length_error@std@@UAE@XZ 0053fdb0 f i bstring:bstrwrap.obj
 0002:000c9e10       ??_Elength_error@std@@UAEPAXI@Z 0053fe10 f i bstring:bstrwrap.obj
 0002:000c9e10       ??_Glength_error@std@@UAEPAXI@Z 0053fe10 f i bstring:bstrwrap.obj
 0002:000c9e80       ?deallocate@?$allocator@UCBString@Bstrlib@@@std@@QAEXPAUCBString@Bstrlib@@I@Z 0053fe80 f i bstring:bstrwrap.obj
 0002:000c9ee0       ?allocate@?$allocator@UCBString@Bstrlib@@@std@@QAEPAUCBString@Bstrlib@@I@Z 0053fee0 f i bstring:bstrwrap.obj
 0002:000c9f40       ??G?$_Vector_const_iterator@UCBString@Bstrlib@@V?$allocator@UCBString@Bstrlib@@@std@@@std@@QBEHABV01@@Z 0053ff40 f i bstring:bstrwrap.obj
 0002:000c9fb0       ??Y?$_Vector_iterator@UCBString@Bstrlib@@V?$allocator@UCBString@Bstrlib@@@std@@@std@@QAEAAV01@H@Z 0053ffb0 f i bstring:bstrwrap.obj
 0002:000ca010       ??0length_error@std@@QAE@ABV01@@Z 00540010 f i bstring:bstrwrap.obj
 0002:000ca080       ?max_size@?$allocator@UCBString@Bstrlib@@@std@@QBEIXZ 00540080 f i bstring:bstrwrap.obj
 0002:000ca0f0       ?_Compat@?$_Vector_const_iterator@UCBString@Bstrlib@@V?$allocator@UCBString@Bstrlib@@@std@@@std@@QBEXABV12@@Z 005400f0 f i bstring:bstrwrap.obj
 0002:000ca1f0       ??$unchecked_uninitialized_fill_n@PAUCBString@Bstrlib@@IU12@V?$allocator@UCBString@Bstrlib@@@std@@@stdext@@YAXPAUCBString@Bstrlib@@IABU12@AAV?$allocator@UCBString@Bstrlib@@@std@@@Z 005401f0 f i bstring:bstrwrap.obj
 0002:000ca290       ??$_Umove@PAUCBString@Bstrlib@@@?$vector@UCBString@Bstrlib@@V?$allocator@UCBString@Bstrlib@@@std@@@std@@IAEPAUCBString@Bstrlib@@PAU23@00@Z 00540290 f i bstring:bstrwrap.obj
 0002:000ca300       ??$fill@PAUCBString@Bstrlib@@U12@@std@@YAXPAUCBString@Bstrlib@@0ABU12@@Z 00540300 f i bstring:bstrwrap.obj
 0002:000ca370       ??$_Unchecked_move_backward@PAUCBString@Bstrlib@@PAU12@@stdext@@YAPAUCBString@Bstrlib@@PAU12@00@Z 00540370 f i bstring:bstrwrap.obj
 0002:000ca430       ??$_Destroy_range@UCBString@Bstrlib@@V?$allocator@UCBString@Bstrlib@@@std@@@std@@YAXPAUCBString@Bstrlib@@0AAV?$allocator@UCBString@Bstrlib@@@0@@Z 00540430 f i bstring:bstrwrap.obj
 0002:000ca4b0       ??$_Allocate@UCBString@Bstrlib@@@std@@YAPAUCBString@Bstrlib@@IPAU12@@Z 005404b0 f i bstring:bstrwrap.obj
 0002:000ca550       ??0bad_alloc@std@@QAE@PBD@Z 00540550 f i bstring:bstrwrap.obj
 0002:000ca5d0       ??1bad_alloc@std@@UAE@XZ   005405d0 f i bstring:bstrwrap.obj
 0002:000ca640       ??_Gbad_alloc@std@@UAEPAXI@Z 00540640 f i bstring:bstrwrap.obj
 0002:000ca640       ??_Ebad_alloc@std@@UAEPAXI@Z 00540640 f i bstring:bstrwrap.obj
 0002:000ca6b0       ??0bad_alloc@std@@QAE@ABV01@@Z 005406b0 f i bstring:bstrwrap.obj
 0002:000ca730       ??$_Ptr_cat@PAUCBString@Bstrlib@@PAU12@@std@@YA?AU_Nonscalar_ptr_iterator_tag@0@AAPAUCBString@Bstrlib@@0@Z 00540730 f i bstring:bstrwrap.obj
 0002:000ca7a0       ??$_Uninit_fill_n@PAUCBString@Bstrlib@@IU12@V?$allocator@UCBString@Bstrlib@@@std@@@std@@YAXPAUCBString@Bstrlib@@IABU12@AAV?$allocator@UCBString@Bstrlib@@@0@U_Nonscalar_ptr_iterator_tag@0@U_Range_checked_iterator_tag@0@@Z 005407a0 f i bstring:bstrwrap.obj
 0002:000ca8b0       ??$_Unchecked_uninitialized_move@PAUCBString@Bstrlib@@PAU12@V?$allocator@UCBString@Bstrlib@@@std@@@stdext@@YAPAUCBString@Bstrlib@@PAU12@00AAV?$allocator@UCBString@Bstrlib@@@std@@@Z 005408b0 f i bstring:bstrwrap.obj
 0002:000ca960       ??$_Checked_base@PAUCBString@Bstrlib@@@std@@YAPAUCBString@Bstrlib@@AAPAU12@@Z 00540960 f i bstring:bstrwrap.obj
 0002:000ca9f0       ??$_Fill@PAUCBString@Bstrlib@@U12@@std@@YAXPAUCBString@Bstrlib@@0ABU12@@Z 005409f0 f i bstring:bstrwrap.obj
 0002:000caa80       ??$_Iter_random@PAUCBString@Bstrlib@@PAU12@@std@@YA?AUrandom_access_iterator_tag@0@ABQAUCBString@Bstrlib@@0@Z 00540a80 f i bstring:bstrwrap.obj
 0002:000caaf0       ??$_Move_cat@PAUCBString@Bstrlib@@@std@@YA?AU_Undefined_move_tag@0@ABQAUCBString@Bstrlib@@@Z 00540af0 f i bstring:bstrwrap.obj
 0002:000cab60       ??$_Move_backward_opt@PAUCBString@Bstrlib@@PAU12@Urandom_access_iterator_tag@std@@U_Undefined_move_tag@4@@std@@YAPAUCBString@Bstrlib@@PAU12@00Urandom_access_iterator_tag@0@U_Undefined_move_tag@0@U_Range_checked_iterator_tag@0@@Z 00540b60 f i bstring:bstrwrap.obj
 0002:000cac00       ??$_Destroy_range@UCBString@Bstrlib@@V?$allocator@UCBString@Bstrlib@@@std@@@std@@YAXPAUCBString@Bstrlib@@0AAV?$allocator@UCBString@Bstrlib@@@0@U_Nonscalar_ptr_iterator_tag@0@@Z 00540c00 f i bstring:bstrwrap.obj
 0002:000cac70       ?construct@?$allocator@UCBString@Bstrlib@@@std@@QAEXPAUCBString@Bstrlib@@ABU34@@Z 00540c70 f i bstring:bstrwrap.obj
 0002:000cacd0       ?destroy@?$allocator@UCBString@Bstrlib@@@std@@QAEXPAUCBString@Bstrlib@@@Z 00540cd0 f i bstring:bstrwrap.obj
 0002:000cad30       ??$_Uninit_move@PAUCBString@Bstrlib@@PAU12@V?$allocator@UCBString@Bstrlib@@@std@@U_Undefined_move_tag@4@@std@@YAPAUCBString@Bstrlib@@PAU12@00AAV?$allocator@UCBString@Bstrlib@@@0@U_Undefined_move_tag@0@U_Range_checked_iterator_tag@0@@Z 00540d30 f i bstring:bstrwrap.obj
 0002:000cad90       ??$_Checked_base@PAUCBString@Bstrlib@@@std@@YAPAUCBString@Bstrlib@@AAPAU12@U_Unchanged_checked_iterator_base_type_tag@0@@Z 00540d90 f i bstring:bstrwrap.obj
 0002:000cadd0       ??$_Debug_range@PAUCBString@Bstrlib@@@std@@YAXPAUCBString@Bstrlib@@0PB_WI@Z 00540dd0 f i bstring:bstrwrap.obj
 0002:000cae50       ??$_Copy_backward_opt@PAUCBString@Bstrlib@@PAU12@@std@@YAPAUCBString@Bstrlib@@PAU12@00Urandom_access_iterator_tag@0@U_Nonscalar_ptr_iterator_tag@0@U_Range_checked_iterator_tag@0@@Z 00540e50 f i bstring:bstrwrap.obj
 0002:000caf00       ??$_Construct@UCBString@Bstrlib@@U12@@std@@YAXPAUCBString@Bstrlib@@ABU12@@Z 00540f00 f i bstring:bstrwrap.obj
 0002:000caff0       ??2@YAPAXIPAX@Z            00540ff0 f i bstring:bstrwrap.obj
 0002:000cb030       ??3@YAXPAX0@Z              00541030 f i bstring:bstrwrap.obj
 0002:000cb060       ??$_Destroy@UCBString@Bstrlib@@@std@@YAXPAUCBString@Bstrlib@@@Z 00541060 f i bstring:bstrwrap.obj
 0002:000cb0c0       ??$unchecked_uninitialized_copy@PAUCBString@Bstrlib@@PAU12@V?$allocator@UCBString@Bstrlib@@@std@@@stdext@@YAPAUCBString@Bstrlib@@PAU12@00AAV?$allocator@UCBString@Bstrlib@@@std@@@Z 005410c0 f i bstring:bstrwrap.obj
 0002:000cb170       ??$_Iter_cat@PAUCBString@Bstrlib@@@std@@YA?AUrandom_access_iterator_tag@0@ABQAUCBString@Bstrlib@@@Z 00541170 f i bstring:bstrwrap.obj
 0002:000cb1e0       ??$_Debug_range2@PAUCBString@Bstrlib@@@std@@YAXPAUCBString@Bstrlib@@0PB_WIUrandom_access_iterator_tag@0@@Z 005411e0 f i bstring:bstrwrap.obj
 0002:000cb290       ??$_Copy_backward_opt@PAUCBString@Bstrlib@@PAU12@Uforward_iterator_tag@std@@@std@@YAPAUCBString@Bstrlib@@PAU12@00Uforward_iterator_tag@0@U_Nonscalar_ptr_iterator_tag@0@U_Range_checked_iterator_tag@0@@Z 00541290 f i bstring:bstrwrap.obj
 0002:000cb330       ??$_Uninit_copy@PAUCBString@Bstrlib@@PAU12@V?$allocator@UCBString@Bstrlib@@@std@@@std@@YAPAUCBString@Bstrlib@@PAU12@00AAV?$allocator@UCBString@Bstrlib@@@0@U_Nonscalar_ptr_iterator_tag@0@U_Range_checked_iterator_tag@0@@Z 00541330 f i bstring:bstrwrap.obj
 0002:000cb480       ??$_Debug_pointer@UCBString@Bstrlib@@@std@@YAXPAUCBString@Bstrlib@@PB_WI@Z 00541480 f i bstring:bstrwrap.obj
 0002:000cb4f0       _balloc                    005414f0 f   bstring:bstrlib.obj
 0002:000cb7b0       _ballocmin                 005417b0 f   bstring:bstrlib.obj
 0002:000cb8d0       _bfromcstr                 005418d0 f   bstring:bstrlib.obj
 0002:000cba20       _bfromcstralloc            00541a20 f   bstring:bstrlib.obj
 0002:000cbb80       _blk2bstr                  00541b80 f   bstring:bstrlib.obj
 0002:000cbcd0       _bstr2cstr                 00541cd0 f   bstring:bstrlib.obj
 0002:000cbdf0       _bcstrfree                 00541df0 f   bstring:bstrlib.obj
 0002:000cbe60       _bconcat                   00541e60 f   bstring:bstrlib.obj
 0002:000cc030       _bconchar                  00542030 f   bstring:bstrlib.obj
 0002:000cc100       _bcatcstr                  00542100 f   bstring:bstrlib.obj
 0002:000cc280       _bcatblk                   00542280 f   bstring:bstrlib.obj
 0002:000cc3b0       _bstrcpy                   005423b0 f   bstring:bstrlib.obj
 0002:000cc550       _bassign                   00542550 f   bstring:bstrlib.obj
 0002:000cc680       _bassignmidstr             00542680 f   bstring:bstrlib.obj
 0002:000cc7f0       _bassigncstr               005427f0 f   bstring:bstrlib.obj
 0002:000cc9a0       _bassignblk                005429a0 f   bstring:bstrlib.obj
 0002:000ccac0       _btrunc                    00542ac0 f   bstring:bstrlib.obj
 0002:000ccb60       _btoupper                  00542b60 f   bstring:bstrlib.obj
 0002:000ccc50       _btolower                  00542c50 f   bstring:bstrlib.obj
 0002:000ccd40       _bstricmp                  00542d40 f   bstring:bstrlib.obj
 0002:000ccfa0       _bstrnicmp                 00542fa0 f   bstring:bstrlib.obj
 0002:000cd240       _biseqcaseless             00543240 f   bstring:bstrlib.obj
 0002:000cd420       _bisstemeqcaselessblk      00543420 f   bstring:bstrlib.obj
 0002:000cd5a0       _bltrimws                  005435a0 f   bstring:bstrlib.obj
 0002:000cd6b0       _brtrimws                  005436b0 f   bstring:bstrlib.obj
 0002:000cd7d0       _btrimws                   005437d0 f   bstring:bstrlib.obj
 0002:000cd960       _biseq                     00543960 f   bstring:bstrlib.obj
 0002:000cda50       _bisstemeqblk              00543a50 f   bstring:bstrlib.obj
 0002:000cdb60       _biseqcstr                 00543b60 f   bstring:bstrlib.obj
 0002:000cdc30       _biseqcstrcaseless         00543c30 f   bstring:bstrlib.obj
 0002:000cdd70       _bstrcmp                   00543d70 f   bstring:bstrlib.obj
 0002:000cdee0       _bstrncmp                  00543ee0 f   bstring:bstrlib.obj
 0002:000ce050       _bmidstr                   00544050 f   bstring:bstrlib.obj
 0002:000ce130       _bdelete                   00544130 f   bstring:bstrlib.obj
 0002:000ce2a0       _bdestroy                  005442a0 f   bstring:bstrlib.obj
 0002:000ce390       _binstr                    00544390 f   bstring:bstrlib.obj
 0002:000ce680       _binstrr                   00544680 f   bstring:bstrlib.obj
 0002:000ce840       _binstrcaseless            00544840 f   bstring:bstrlib.obj
 0002:000cea80       _binstrrcaseless           00544a80 f   bstring:bstrlib.obj
 0002:000cecb0       _bstrchrp                  00544cb0 f   bstring:bstrlib.obj
 0002:000ced80       _bstrrchrp                 00544d80 f   bstring:bstrlib.obj
 0002:000cee20       _binchr                    00544e20 f   bstring:bstrlib.obj
 0002:000cf0d0       _binchrr                   005450d0 f   bstring:bstrlib.obj
 0002:000cf2b0       _bninchr                   005452b0 f   bstring:bstrlib.obj
 0002:000cf430       _bninchrr                  00545430 f   bstring:bstrlib.obj
 0002:000cf550       _bsetstr                   00545550 f   bstring:bstrlib.obj
 0002:000cf790       _binsert                   00545790 f   bstring:bstrlib.obj
 0002:000cfa30       _breplace                  00545a30 f   bstring:bstrlib.obj
 0002:000cfcf0       _bfindreplace              00545cf0 f   bstring:bstrlib.obj
 0002:000d05c0       _bfindreplacecaseless      005465c0 f   bstring:bstrlib.obj
 0002:000d0630       _binsertch                 00546630 f   bstring:bstrlib.obj
 0002:000d07f0       _bpattern                  005467f0 f   bstring:bstrlib.obj
 0002:000d0940       _breada                    00546940 f   bstring:bstrlib.obj
 0002:000d0ab0       _bread                     00546ab0 f   bstring:bstrlib.obj
 0002:000d0b40       _bassigngets               00546b40 f   bstring:bstrlib.obj
 0002:000d0cd0       _bgetsa                    00546cd0 f   bstring:bstrlib.obj
 0002:000d0e60       _bgets                     00546e60 f   bstring:bstrlib.obj
 0002:000d0f00       _bsopen                    00546f00 f   bstring:bstrlib.obj
 0002:000d0fc0       _bsbufflength              00546fc0 f   bstring:bstrlib.obj
 0002:000d1030       _bseof                     00547030 f   bstring:bstrlib.obj
 0002:000d10c0       _bsclose                   005470c0 f   bstring:bstrlib.obj
 0002:000d1190       _bsreadlna                 00547190 f   bstring:bstrlib.obj
 0002:000d1510       _bsreadlnsa                00547510 f   bstring:bstrlib.obj
 0002:000d1980       _bsreada                   00547980 f   bstring:bstrlib.obj
 0002:000d1cf0       _bsreadln                  00547cf0 f   bstring:bstrlib.obj
 0002:000d1db0       _bsreadlns                 00547db0 f   bstring:bstrlib.obj
 0002:000d1ec0       _bsread                    00547ec0 f   bstring:bstrlib.obj
 0002:000d1f80       _bsunread                  00547f80 f   bstring:bstrlib.obj
 0002:000d2000       _bspeek                    00548000 f   bstring:bstrlib.obj
 0002:000d2070       _bjoin                     00548070 f   bstring:bstrlib.obj
 0002:000d2300       _bssplitscb                00548300 f   bstring:bstrlib.obj
 0002:000d2650       _bssplitstrcb              00548650 f   bstring:bstrlib.obj
 0002:000d2940       _bstrListCreate            00548940 f   bstring:bstrlib.obj
 0002:000d2a10       _bstrListDestroy           00548a10 f   bstring:bstrlib.obj
 0002:000d2b40       _bstrListAlloc             00548b40 f   bstring:bstrlib.obj
 0002:000d2ca0       _bstrListAllocMin          00548ca0 f   bstring:bstrlib.obj
 0002:000d2dc0       _bsplitcb                  00548dc0 f   bstring:bstrlib.obj
 0002:000d2ed0       _bsplitscb                 00548ed0 f   bstring:bstrlib.obj
 0002:000d3100       _bsplitstrcb               00549100 f   bstring:bstrlib.obj
 0002:000d3320       _bsplit                    00549320 f   bstring:bstrlib.obj
 0002:000d3600       _bsplitstr                 00549600 f   bstring:bstrlib.obj
 0002:000d3780       _bsplits                   00549780 f   bstring:bstrlib.obj
 0002:000d3920       _bformata                  00549920 f   bstring:bstrlib.obj
 0002:000d3b30       _bassignformat             00549b30 f   bstring:bstrlib.obj
 0002:000d3d40       _bformat                   00549d40 f   bstring:bstrlib.obj
 0002:000d3ef0       _bvcformata                00549ef0 f   bstring:bstrlib.obj
 0002:000d40c0       ?RmxMsg@@YAXII@Z           0054a0c0 f   rmx_vs8_d:rmx_msg.obj
 0002:000d4190       ?RmxMsg@@YAXIIPAX@Z        0054a190 f   rmx_vs8_d:rmx_msg.obj
 0002:000d4280       ?RmxMsg@@YAXIIPAX0@Z       0054a280 f   rmx_vs8_d:rmx_msg.obj
 0002:000d4390       ?RmxMsg@@YAXIIPAX00@Z      0054a390 f   rmx_vs8_d:rmx_msg.obj
 0002:000d44c0       ?RmxMsg@@YAXIIPAX000@Z     0054a4c0 f   rmx_vs8_d:rmx_msg.obj
 0002:000d4610       ?RmxMsg@@YAXIIPAXH@Z       0054a610 f   rmx_vs8_d:rmx_msg.obj
 0002:000d4720       ?RmxMsg@@YAXIIPAXH0PBD@Z   0054a720 f   rmx_vs8_d:rmx_msg.obj
 0002:000d4870       ?RmxMsg@@YAXIIPAXH0_J@Z    0054a870 f   rmx_vs8_d:rmx_msg.obj
 0002:000d49c0       ?RmxMsg@@YAXIIPAXH000@Z    0054a9c0 f   rmx_vs8_d:rmx_msg.obj
 0002:000d4b30       ?RmxMsg@@YAXIIPAX0_J@Z     0054ab30 f   rmx_vs8_d:rmx_msg.obj
 0002:000d4c70       ?RmxMsg@@YAXIIPAX0_JH@Z    0054ac70 f   rmx_vs8_d:rmx_msg.obj
 0002:000d4dc0       ?RmxMsg@@YAXIIPAX0_J11@Z   0054adc0 f   rmx_vs8_d:rmx_msg.obj
 0002:000d4f50       ?RmxMsg@@YAXIIPAX0H@Z      0054af50 f   rmx_vs8_d:rmx_msg.obj
 0002:000d5080       ?RmxMsg@@YAXIIPAX0N@Z      0054b080 f   rmx_vs8_d:rmx_msg.obj
 0002:000d51b0       ?RmxMsg@@YAXIIPAX00H@Z     0054b1b0 f   rmx_vs8_d:rmx_msg.obj
 0002:000d5300       ?RmxMsg@@YAXIIPAX0U_GUID@@@Z 0054b300 f   rmx_vs8_d:rmx_msg.obj
 0002:000d5480       ?RmxMsg@@YAXIIPAX0K@Z      0054b480 f   rmx_vs8_d:rmx_msg.obj
 0002:000d55b0       ?RmxMsg@@YAXIIPBD@Z        0054b5b0 f   rmx_vs8_d:rmx_msg.obj
 0002:000d56a0       ?RmxMsg@@YAXIIPBDPAX@Z     0054b6a0 f   rmx_vs8_d:rmx_msg.obj
 0002:000d57b0       ?RmxMsg@@YAXIIPBDH@Z       0054b7b0 f   rmx_vs8_d:rmx_msg.obj
 0002:000d58c0       ?RmxMsg@@YAXIIPBDN@Z       0054b8c0 f   rmx_vs8_d:rmx_msg.obj
 0002:000d59d0       ?RmxMsg@@YAXIIPBD0@Z       0054b9d0 f   rmx_vs8_d:rmx_msg.obj
 0002:000d5ae0       ?RmxMsg@@YAXIIPAXPBD@Z     0054bae0 f   rmx_vs8_d:rmx_msg.obj
 0002:000d5bf0       ?RmxMsg@@YAXIIPAXPBDH@Z    0054bbf0 f   rmx_vs8_d:rmx_msg.obj
 0002:000d5d20       ?RmxMsg@@YAXIIPAXPBDN@Z    0054bd20 f   rmx_vs8_d:rmx_msg.obj
 0002:000d5e50       ?RmxMsg@@YAXIIPAXPBD1@Z    0054be50 f   rmx_vs8_d:rmx_msg.obj
 0002:000d5f80       ?RmxMsg@@YAXIIPAX0PBD@Z    0054bf80 f   rmx_vs8_d:rmx_msg.obj
 0002:000d60b0       ?RmxMsg@@YAXIIPAX0PBDH@Z   0054c0b0 f   rmx_vs8_d:rmx_msg.obj
 0002:000d6200       ?RmxMsg@@YAXIIPAX0PBDN@Z   0054c200 f   rmx_vs8_d:rmx_msg.obj
 0002:000d6350       ?RmxMsg@@YAXIIPAX0PBD1@Z   0054c350 f   rmx_vs8_d:rmx_msg.obj
 0002:000d64a0       ?RmxMsg@@YAXIIPAX0PBD_J@Z  0054c4a0 f   rmx_vs8_d:rmx_msg.obj
 0002:000d65f0       ?RmxMsg@@YAXIIPAX0PBDK@Z   0054c5f0 f   rmx_vs8_d:rmx_msg.obj
 0002:000d6740       ?RmxMsg@@YAXIIPAX0PBDU_GUID@@@Z 0054c740 f   rmx_vs8_d:rmx_msg.obj
 0002:000d68e0       ?RmxMsg@@YAXIIPAX0PBD0@Z   0054c8e0 f   rmx_vs8_d:rmx_msg.obj
 0002:000d6a30       ?RmxMsg@@YAXIIPAX0PBD10@Z  0054ca30 f   rmx_vs8_d:rmx_msg.obj
 0002:000d6ba0       ?print@vHCONSOLE@@QAEXPBD@Z 0054cba0 f   rmx_vs8_d:hconsole.obj
 0002:000d6c10       ?print@vHCONSOLE@@QAEXPBD0@Z 0054cc10 f   rmx_vs8_d:hconsole.obj
 0002:000d6d20       ?printWarning@vHCONSOLE@@QAEXPBD0@Z 0054cd20 f   rmx_vs8_d:hconsole.obj
 0002:000d6e30       ?printError@vHCONSOLE@@QAEXPBD0@Z 0054ce30 f   rmx_vs8_d:hconsole.obj
 0002:000d6f40       ?printDebug@vHCONSOLE@@QAEXPBD0@Z 0054cf40 f   rmx_vs8_d:hconsole.obj
 0002:000d7050       ?clear@vHCONSOLE@@QAEXXZ   0054d050 f   rmx_vs8_d:hconsole.obj
 0002:000d70b0       ?getPlugin@vHCONSOLE@@QAEPAVvHPLUGIN@@XZ 0054d0b0 f   rmx_vs8_d:hconsole.obj
 0002:000d7150       ?getList@vHCONSOLE@@QAEPAVvHLIST@@XZ 0054d150 f   rmx_vs8_d:hconsole.obj
 0002:000d71f0       ?getFirst@vHCONSOLE@@SAPAV1@XZ 0054d1f0 f   rmx_vs8_d:hconsole.obj
 0002:000d7280       ?getLast@vHCONSOLE@@SAPAV1@XZ 0054d280 f   rmx_vs8_d:hconsole.obj
 0002:000d7310       ?getPrev@vHCONSOLE@@SAPAV1@PAV1@@Z 0054d310 f   rmx_vs8_d:hconsole.obj
 0002:000d73a0       ?getNext@vHCONSOLE@@SAPAV1@PAV1@@Z 0054d3a0 f   rmx_vs8_d:hconsole.obj
 0002:000d7430       ?getFirst@vHPLUGIN@@SAPAV1@XZ 0054d430 f   rmx_vs8_d:hplugin.obj
 0002:000d74c0       ?getLast@vHPLUGIN@@SAPAV1@XZ 0054d4c0 f   rmx_vs8_d:hplugin.obj
 0002:000d7550       ?getPrev@vHPLUGIN@@SAPAV1@PAV1@@Z 0054d550 f   rmx_vs8_d:hplugin.obj
 0002:000d75e0       ?getNext@vHPLUGIN@@SAPAV1@PAV1@@Z 0054d5e0 f   rmx_vs8_d:hplugin.obj
 0002:000d7670       ?getMaster@vHPLUGIN@@SAPAV1@XZ 0054d670 f   rmx_vs8_d:hplugin.obj
 0002:000d7700       ?getByName@vHPLUGIN@@SAPAV1@PBD@Z 0054d700 f   rmx_vs8_d:hplugin.obj
 0002:000d7790       ?getByFilename@vHPLUGIN@@SAPAV1@PBD@Z 0054d790 f   rmx_vs8_d:hplugin.obj
 0002:000d7820       ?loadPlugin@vHPLUGIN@@SAPAV1@PBD@Z 0054d820 f   rmx_vs8_d:hplugin.obj
 0002:000d78b0       ?isValid@vHPLUGIN@@QBEHXZ  0054d8b0 f   rmx_vs8_d:hplugin.obj
 0002:000d7950       ?isMaster@vHPLUGIN@@QBEHXZ 0054d950 f   rmx_vs8_d:hplugin.obj
 0002:000d79f0       ?unload@vHPLUGIN@@QAEHXZ   0054d9f0 f   rmx_vs8_d:hplugin.obj
 0002:000d7a90       ?getPath@vHPLUGIN@@QBEPBDXZ 0054da90 f   rmx_vs8_d:hplugin.obj
 0002:000d7b30       ?getFilename@vHPLUGIN@@QBEPBDXZ 0054db30 f   rmx_vs8_d:hplugin.obj
 0002:000d7bd0       ?list_getRoot@vHPLUGIN@@QBEPAVvHLIST@@XZ 0054dbd0 f   rmx_vs8_d:hplugin.obj
 0002:000d7c70       ?list_message@vHPLUGIN@@QAE_JPAVvHLIST@@_J11@Z 0054dc70 f   rmx_vs8_d:hplugin.obj
 0002:000d7d40       ?list_getName@vHPLUGIN@@QBEPBDPAVvHLIST@@@Z 0054dd40 f   rmx_vs8_d:hplugin.obj
 0002:000d7de0       ?list_setName@vHPLUGIN@@QAEXPAVvHLIST@@PBD@Z 0054dde0 f   rmx_vs8_d:hplugin.obj
 0002:000d7e50       ?list_getType@vHPLUGIN@@QBEPBDPAVvHLIST@@@Z 0054de50 f   rmx_vs8_d:hplugin.obj
 0002:000d7ef0       ?list_getId@vHPLUGIN@@QBE_JPAVvHLIST@@@Z 0054def0 f   rmx_vs8_d:hplugin.obj
 0002:000d7fa0       ?list_setId@vHPLUGIN@@QAEXPAVvHLIST@@_J@Z 0054dfa0 f   rmx_vs8_d:hplugin.obj
 0002:000d8010       ?list_onFirstLoad@vHPLUGIN@@QAEXPAVvHLIST@@@Z 0054e010 f   rmx_vs8_d:hplugin.obj
 0002:000d8070       ?list_getFlags@vHPLUGIN@@QBEIPAVvHLIST@@@Z 0054e070 f   rmx_vs8_d:hplugin.obj
 0002:000d8110       ?list_getSecurity@vHPLUGIN@@QBEIPAVvHLIST@@@Z 0054e110 f   rmx_vs8_d:hplugin.obj
 0002:000d81b0       ?list_getSecurityEx@vHPLUGIN@@QBEIPAVvHLIST@@@Z 0054e1b0 f   rmx_vs8_d:hplugin.obj
 0002:000d8250       ?list_isVisible@vHPLUGIN@@QBEHPAVvHLIST@@@Z 0054e250 f   rmx_vs8_d:hplugin.obj
 0002:000d82f0       ?list_setVisible@vHPLUGIN@@QAEXPAVvHLIST@@H@Z 0054e2f0 f   rmx_vs8_d:hplugin.obj
 0002:000d8360       ?list_hasChildrenVisible@vHPLUGIN@@QBEHPAVvHLIST@@H@Z 0054e360 f   rmx_vs8_d:hplugin.obj
 0002:000d8400       ?list_isEnabled@vHPLUGIN@@QBEHPAVvHLIST@@@Z 0054e400 f   rmx_vs8_d:hplugin.obj
 0002:000d84a0       ?list_setEnabled@vHPLUGIN@@QAEXPAVvHLIST@@H@Z 0054e4a0 f   rmx_vs8_d:hplugin.obj
 0002:000d8510       ?list_hasChildrenEnabled@vHPLUGIN@@QBEHPAVvHLIST@@H@Z 0054e510 f   rmx_vs8_d:hplugin.obj
 0002:000d85b0       ?list_isHighlighted@vHPLUGIN@@QBEHPAVvHLIST@@@Z 0054e5b0 f   rmx_vs8_d:hplugin.obj
 0002:000d8650       ?list_setHighlighted@vHPLUGIN@@QAEXPAVvHLIST@@H@Z 0054e650 f   rmx_vs8_d:hplugin.obj
 0002:000d86c0       ?list_hasChildrenHighlighted@vHPLUGIN@@QBEHPAVvHLIST@@H@Z 0054e6c0 f   rmx_vs8_d:hplugin.obj
 0002:000d8760       ?list_isExpanded@vHPLUGIN@@QBEHPAVvHLIST@@@Z 0054e760 f   rmx_vs8_d:hplugin.obj
 0002:000d8800       ?list_setExpanded@vHPLUGIN@@QAEXPAVvHLIST@@H@Z 0054e800 f   rmx_vs8_d:hplugin.obj
 0002:000d8870       ?list_hasChildrenExpanded@vHPLUGIN@@QBEHPAVvHLIST@@H@Z 0054e870 f   rmx_vs8_d:hplugin.obj
 0002:000d8910       ?list_isSavable@vHPLUGIN@@QBEHPAVvHLIST@@@Z 0054e910 f   rmx_vs8_d:hplugin.obj
 0002:000d89b0       ?list_setSavable@vHPLUGIN@@QAEXPAVvHLIST@@H@Z 0054e9b0 f   rmx_vs8_d:hplugin.obj
 0002:000d8a20       ?list_hasChildrenSavable@vHPLUGIN@@QBEHPAVvHLIST@@H@Z 0054ea20 f   rmx_vs8_d:hplugin.obj
 0002:000d8ac0       ?list_isReadOnly@vHPLUGIN@@QBEHPAVvHLIST@@@Z 0054eac0 f   rmx_vs8_d:hplugin.obj
 0002:000d8b60       ?list_hasChildrenReadOnly@vHPLUGIN@@QBEHPAVvHLIST@@H@Z 0054eb60 f   rmx_vs8_d:hplugin.obj
 0002:000d8c00       ?list_getListParam@vHPLUGIN@@QBEPAVvHPARAM@@PAVvHLIST@@@Z 0054ec00 f   rmx_vs8_d:hplugin.obj
 0002:000d8ca0       ?list_getParam@vHPLUGIN@@QBEPBDPAVvHLIST@@PBD@Z 0054eca0 f   rmx_vs8_d:hplugin.obj
 0002:000d8d40       ?list_getParamSafe@vHPLUGIN@@QBEPBDPAVvHLIST@@PBD1@Z 0054ed40 f   rmx_vs8_d:hplugin.obj
 0002:000d8e20       ?list_getParamInt@vHPLUGIN@@QBEHPAVvHLIST@@PBD@Z 0054ee20 f   rmx_vs8_d:hplugin.obj
 0002:000d8ec0       ?list_getParamLong@vHPLUGIN@@QBE_JPAVvHLIST@@PBD@Z 0054eec0 f   rmx_vs8_d:hplugin.obj
 0002:000d8f80       ?list_getParamNumber@vHPLUGIN@@QBENPAVvHLIST@@PBD@Z 0054ef80 f   rmx_vs8_d:hplugin.obj
 0002:000d9020       ?list_getParamGuid@vHPLUGIN@@QBE?AU_GUID@@PAVvHLIST@@PBD@Z 0054f020 f   rmx_vs8_d:hplugin.obj
 0002:000d9110       ?list_getParamFourCC@vHPLUGIN@@QBEKPAVvHLIST@@PBD@Z 0054f110 f   rmx_vs8_d:hplugin.obj
 0002:000d91b0       ?list_setParam@vHPLUGIN@@QAEXPAVvHLIST@@PBD1@Z 0054f1b0 f   rmx_vs8_d:hplugin.obj
 0002:000d9220       ?list_setParamString@vHPLUGIN@@QAEXPAVvHLIST@@PBD1@Z 0054f220 f   rmx_vs8_d:hplugin.obj
 0002:000d9290       ?list_setParamInt@vHPLUGIN@@QAEXPAVvHLIST@@PBDH@Z 0054f290 f   rmx_vs8_d:hplugin.obj
 0002:000d9300       ?list_setParamLong@vHPLUGIN@@QAEXPAVvHLIST@@PBD_J@Z 0054f300 f   rmx_vs8_d:hplugin.obj
 0002:000d9370       ?list_setParamNumber@vHPLUGIN@@QAEXPAVvHLIST@@PBDN@Z 0054f370 f   rmx_vs8_d:hplugin.obj
 0002:000d93e0       ?list_setParamGuid@vHPLUGIN@@QAEXPAVvHLIST@@PBDU_GUID@@@Z 0054f3e0 f   rmx_vs8_d:hplugin.obj
 0002:000d94b0       ?list_setParamFourCC@vHPLUGIN@@QAEXPAVvHLIST@@PBDK@Z 0054f4b0 f   rmx_vs8_d:hplugin.obj
 0002:000d9520       ?list_hasParam@vHPLUGIN@@QBEHPAVvHLIST@@PAVvHPARAM@@@Z 0054f520 f   rmx_vs8_d:hplugin.obj
 0002:000d95c0       ?list_hasParam@vHPLUGIN@@QBEHPAVvHLIST@@PBD@Z 0054f5c0 f   rmx_vs8_d:hplugin.obj
 0002:000d9660       ?list_hasParams@vHPLUGIN@@QBEHPAVvHLIST@@@Z 0054f660 f   rmx_vs8_d:hplugin.obj
 0002:000d9700       ?list_canEnumerateParams@vHPLUGIN@@QBEHPAVvHLIST@@@Z 0054f700 f   rmx_vs8_d:hplugin.obj
 0002:000d97a0       ?list_getParamCount@vHPLUGIN@@QBEHPAVvHLIST@@@Z 0054f7a0 f   rmx_vs8_d:hplugin.obj
 0002:000d9840       ?list_getParamFirst@vHPLUGIN@@QBEPAVvHPARAM@@PAVvHLIST@@@Z 0054f840 f   rmx_vs8_d:hplugin.obj
 0002:000d98e0       ?list_getParamLast@vHPLUGIN@@QBEPAVvHPARAM@@PAVvHLIST@@@Z 0054f8e0 f   rmx_vs8_d:hplugin.obj
 0002:000d9980       ?list_getParamPrev@vHPLUGIN@@QBEPAVvHPARAM@@PAVvHLIST@@PAV2@@Z 0054f980 f   rmx_vs8_d:hplugin.obj
 0002:000d9a20       ?list_getParamNext@vHPLUGIN@@QBEPAVvHPARAM@@PAVvHLIST@@PAV2@@Z 0054fa20 f   rmx_vs8_d:hplugin.obj
 0002:000d9ac0       ?list_getParamHandle@vHPLUGIN@@QBEPAVvHPARAM@@PAVvHLIST@@PBD@Z 0054fac0 f   rmx_vs8_d:hplugin.obj
 0002:000d9b60       ?list_getParamById@vHPLUGIN@@QBEPAVvHPARAM@@PAVvHLIST@@_J@Z 0054fb60 f   rmx_vs8_d:hplugin.obj
 0002:000d9c10       ?list_getParamFlags@vHPLUGIN@@QBEIPAVvHLIST@@PBD@Z 0054fc10 f   rmx_vs8_d:hplugin.obj
 0002:000d9cb0       ?list_isParamSavable@vHPLUGIN@@QBEHPAVvHLIST@@PBD@Z 0054fcb0 f   rmx_vs8_d:hplugin.obj
 0002:000d9d50       ?list_isParamReadOnly@vHPLUGIN@@QBEHPAVvHLIST@@PBD@Z 0054fd50 f   rmx_vs8_d:hplugin.obj
 0002:000d9df0       ?list_isParamUserData@vHPLUGIN@@QBEHPAVvHLIST@@PAVvHPARAM@@@Z 0054fdf0 f   rmx_vs8_d:hplugin.obj
 0002:000d9e90       ?list_setParamSavable@vHPLUGIN@@QAEXPAVvHLIST@@PBDH@Z 0054fe90 f   rmx_vs8_d:hplugin.obj
 0002:000d9f00       ?list_newParam@vHPLUGIN@@QAEPAVvHPARAM@@PAVvHLIST@@PBD1@Z 0054ff00 f   rmx_vs8_d:hplugin.obj
 0002:000d9fb0       ?list_removeParam@vHPLUGIN@@QAEXPAVvHLIST@@PAVvHPARAM@@@Z 0054ffb0 f   rmx_vs8_d:hplugin.obj
 0002:000da020       ?list_removeParam@vHPLUGIN@@QAEXPAVvHLIST@@PBD@Z 00550020 f   rmx_vs8_d:hplugin.obj
 0002:000da090       ?list_removeAllParams@vHPLUGIN@@QAEXPAVvHLIST@@@Z 00550090 f   rmx_vs8_d:hplugin.obj
 0002:000da0f0       ?list_getParent@vHPLUGIN@@QBEPAVvHLIST@@PAV2@@Z 005500f0 f   rmx_vs8_d:hplugin.obj
 0002:000da190       ?list_getChild@vHPLUGIN@@QBEPAVvHLIST@@PAV2@PBD1@Z 00550190 f   rmx_vs8_d:hplugin.obj
 0002:000da240       ?list_getChildById@vHPLUGIN@@QBEPAVvHLIST@@PAV2@_JH@Z 00550240 f   rmx_vs8_d:hplugin.obj
 0002:000da2f0       ?list_hasChild@vHPLUGIN@@QBEHPAVvHLIST@@0H@Z 005502f0 f   rmx_vs8_d:hplugin.obj
 0002:000da3a0       ?list_hasChildCached@vHPLUGIN@@QBEHPAVvHLIST@@0@Z 005503a0 f   rmx_vs8_d:hplugin.obj
 0002:000da440       ?list_hasChildren@vHPLUGIN@@QBEHPAVvHLIST@@@Z 00550440 f   rmx_vs8_d:hplugin.obj
 0002:000da4e0       ?list_getChildCount@vHPLUGIN@@QBEHPAVvHLIST@@@Z 005504e0 f   rmx_vs8_d:hplugin.obj
 0002:000da580       ?list_getFirstChild@vHPLUGIN@@QBEPAVvHLIST@@PAV2@@Z 00550580 f   rmx_vs8_d:hplugin.obj
 0002:000da620       ?list_getLastChild@vHPLUGIN@@QBEPAVvHLIST@@PAV2@@Z 00550620 f   rmx_vs8_d:hplugin.obj
 0002:000da6c0       ?list_getPrevChild@vHPLUGIN@@QBEPAVvHLIST@@PAV2@0@Z 005506c0 f   rmx_vs8_d:hplugin.obj
 0002:000da760       ?list_getNextChild@vHPLUGIN@@QBEPAVvHLIST@@PAV2@0@Z 00550760 f   rmx_vs8_d:hplugin.obj
 0002:000da800       ?list_newExternalChild@vHPLUGIN@@QAEPAVvHLIST@@PAV2@PBD1@Z 00550800 f   rmx_vs8_d:hplugin.obj
 0002:000da8b0       ?list_moveUp@vHPLUGIN@@QAEXPAVvHLIST@@@Z 005508b0 f   rmx_vs8_d:hplugin.obj
 0002:000da910       ?list_moveDown@vHPLUGIN@@QAEXPAVvHLIST@@@Z 00550910 f   rmx_vs8_d:hplugin.obj
 0002:000da970       ?list_moveBegining@vHPLUGIN@@QAEXPAVvHLIST@@@Z 00550970 f   rmx_vs8_d:hplugin.obj
 0002:000da9d0       ?list_moveEnd@vHPLUGIN@@QAEXPAVvHLIST@@@Z 005509d0 f   rmx_vs8_d:hplugin.obj
 0002:000daa30       ?list_moveChild@vHPLUGIN@@QAEXPAVvHLIST@@00@Z 00550a30 f   rmx_vs8_d:hplugin.obj
 0002:000daaa0       ?list_insertCallback@vHPLUGIN@@QAEXPAVvHLIST@@PAVcbCore@@@Z 00550aa0 f   rmx_vs8_d:hplugin.obj
 0002:000dab10       ?list_removeCallback@vHPLUGIN@@QAEXPAVvHLIST@@PAVcbCore@@@Z 00550b10 f   rmx_vs8_d:hplugin.obj
 0002:000dab80       ?param_getName@vHPLUGIN@@QBEPBDPAVvHPARAM@@@Z 00550b80 f   rmx_vs8_d:hplugin.obj
 0002:000dac20       ?param_getFlags@vHPLUGIN@@QBEIPAVvHPARAM@@@Z 00550c20 f   rmx_vs8_d:hplugin.obj
 0002:000dacc0       ?param_getSecurity@vHPLUGIN@@QBEIPAVvHPARAM@@@Z 00550cc0 f   rmx_vs8_d:hplugin.obj
 0002:000dad60       ?param_getSecurityEx@vHPLUGIN@@QBEIPAVvHPARAM@@@Z 00550d60 f   rmx_vs8_d:hplugin.obj
 0002:000dae00       ?param_getId@vHPLUGIN@@QBE_JPAVvHPARAM@@@Z 00550e00 f   rmx_vs8_d:hplugin.obj
 0002:000daeb0       ?param_setId@vHPLUGIN@@QAEXPAVvHPARAM@@_J@Z 00550eb0 f   rmx_vs8_d:hplugin.obj
 0002:000daf20       ?param_getValue@vHPLUGIN@@QBEPBDPAVvHPARAM@@@Z 00550f20 f   rmx_vs8_d:hplugin.obj
 0002:000dafc0       ?param_getValueInt@vHPLUGIN@@QBEHPAVvHPARAM@@@Z 00550fc0 f   rmx_vs8_d:hplugin.obj
 0002:000db060       ?param_getValueLong@vHPLUGIN@@QBE_JPAVvHPARAM@@@Z 00551060 f   rmx_vs8_d:hplugin.obj
 0002:000db110       ?param_getValueNumber@vHPLUGIN@@QBENPAVvHPARAM@@@Z 00551110 f   rmx_vs8_d:hplugin.obj
 0002:000db1b0       ?param_getValueGuid@vHPLUGIN@@QBE?AU_GUID@@PAVvHPARAM@@@Z 005511b0 f   rmx_vs8_d:hplugin.obj
 0002:000db2a0       ?param_getValueFourCC@vHPLUGIN@@QBEKPAVvHPARAM@@@Z 005512a0 f   rmx_vs8_d:hplugin.obj
 0002:000db340       ?param_getValueSafe@vHPLUGIN@@QBEPBDPAVvHPARAM@@PBD@Z 00551340 f   rmx_vs8_d:hplugin.obj
 0002:000db3d0       ?param_setValue@vHPLUGIN@@QAEXPAVvHPARAM@@PBD@Z 005513d0 f   rmx_vs8_d:hplugin.obj
 0002:000db440       ?param_setValueString@vHPLUGIN@@QAEXPAVvHPARAM@@PBD@Z 00551440 f   rmx_vs8_d:hplugin.obj
 0002:000db4b0       ?param_setValueInt@vHPLUGIN@@QAEXPAVvHPARAM@@H@Z 005514b0 f   rmx_vs8_d:hplugin.obj
 0002:000db520       ?param_setValueLong@vHPLUGIN@@QAEXPAVvHPARAM@@_J@Z 00551520 f   rmx_vs8_d:hplugin.obj
 0002:000db590       ?param_setValueNumber@vHPLUGIN@@QAEXPAVvHPARAM@@N@Z 00551590 f   rmx_vs8_d:hplugin.obj
 0002:000db600       ?param_setValueGuid@vHPLUGIN@@QAEXPAVvHPARAM@@U_GUID@@@Z 00551600 f   rmx_vs8_d:hplugin.obj
 0002:000db6d0       ?param_setValueFourCC@vHPLUGIN@@QAEXPAVvHPARAM@@K@Z 005516d0 f   rmx_vs8_d:hplugin.obj
 0002:000db740       ?param_isNull@vHPLUGIN@@QBEHPAVvHPARAM@@@Z 00551740 f   rmx_vs8_d:hplugin.obj
 0002:000db7e0       ?param_isString@vHPLUGIN@@QBEHPAVvHPARAM@@@Z 005517e0 f   rmx_vs8_d:hplugin.obj
 0002:000db880       ?param_isInteger@vHPLUGIN@@QBEHPAVvHPARAM@@@Z 00551880 f   rmx_vs8_d:hplugin.obj
 0002:000db920       ?param_isLong@vHPLUGIN@@QBEHPAVvHPARAM@@@Z 00551920 f   rmx_vs8_d:hplugin.obj
 0002:000db9c0       ?param_isNumber@vHPLUGIN@@QBEHPAVvHPARAM@@@Z 005519c0 f   rmx_vs8_d:hplugin.obj
 0002:000dba60       ?param_isGuid@vHPLUGIN@@QBEHPAVvHPARAM@@@Z 00551a60 f   rmx_vs8_d:hplugin.obj
 0002:000dbb00       ?param_isFourCC@vHPLUGIN@@QBEHPAVvHPARAM@@@Z 00551b00 f   rmx_vs8_d:hplugin.obj
 0002:000dbba0       ?param_isSavable@vHPLUGIN@@QBEHPAVvHPARAM@@@Z 00551ba0 f   rmx_vs8_d:hplugin.obj
 0002:000dbc40       ?param_isReadOnly@vHPLUGIN@@QBEHPAVvHPARAM@@@Z 00551c40 f   rmx_vs8_d:hplugin.obj
 0002:000dbce0       ?param_isNamed@vHPLUGIN@@QBEHPAVvHPARAM@@PBD@Z 00551ce0 f   rmx_vs8_d:hplugin.obj
 0002:000dbd70       ?getParam@vHPARAMLIST@@QBEPBDPBD@Z 00551d70 f   rmx_vs8_d:hparamlist.obj
 0002:000dbe10       ?getParamSafe@vHPARAMLIST@@QBEPBDPBD0@Z 00551e10 f   rmx_vs8_d:hparamlist.obj
 0002:000dbea0       ?getFirstParam@vHPARAMLIST@@QBEPBDXZ 00551ea0 f   rmx_vs8_d:hparamlist.obj
 0002:000dbf40       ?getLastParam@vHPARAMLIST@@QBEPBDXZ 00551f40 f   rmx_vs8_d:hparamlist.obj
 0002:000dbfe0       ?getPrevParam@vHPARAMLIST@@QBEPBDPBD@Z 00551fe0 f   rmx_vs8_d:hparamlist.obj
 0002:000dc080       ?getNextParam@vHPARAMLIST@@QBEPBDPBD@Z 00552080 f   rmx_vs8_d:hparamlist.obj
 0002:000dc120       __RMX_ENTRY                00552120 f   rmx_vs8_d:rmx_entry.obj
 0002:000ddcf0       ?isNull@rmxData@@QBE_NXZ   00553cf0 f i rmx_vs8_d:rmx_entry.obj
 0002:000ddd40       ?isString@rmxData@@QBE_NXZ 00553d40 f i rmx_vs8_d:rmx_entry.obj
 0002:000dddc0       ?isInteger@rmxData@@QBE_NXZ 00553dc0 f i rmx_vs8_d:rmx_entry.obj
 0002:000dde10       ?isLong@rmxData@@QBE_NXZ   00553e10 f i rmx_vs8_d:rmx_entry.obj
 0002:000dde60       ?isNumber@rmxData@@QBE_NXZ 00553e60 f i rmx_vs8_d:rmx_entry.obj
 0002:000ddeb0       ?isGuid@rmxData@@QBE_NXZ   00553eb0 f i rmx_vs8_d:rmx_entry.obj
 0002:000ddf00       ?isFourCC@rmxData@@QBE_NXZ 00553f00 f i rmx_vs8_d:rmx_entry.obj
 0002:000ddf50       ?getFlags@rmxData@@QBEIXZ  00553f50 f i rmx_vs8_d:rmx_entry.obj
 0002:000ddf90       ?getSecurity@rmxData@@QBEEXZ 00553f90 f i rmx_vs8_d:rmx_entry.obj
 0002:000ddfd0       ?getSecurityEx@rmxData@@QBEEXZ 00553fd0 f i rmx_vs8_d:rmx_entry.obj
 0002:000de020       ?_setSecurityEx@rmxData@@QAEXE@Z 00554020 f i rmx_vs8_d:rmx_entry.obj
 0002:000de080       ?setId@cfgBase@@QAEX_J@Z   00554080 f i rmx_vs8_d:rmx_entry.obj
 0002:000de0d0       ?getRootId@cfgBase@@SA_JXZ 005540d0 f i rmx_vs8_d:rmx_entry.obj
 0002:000de170       ?getFlags@cfgBase@@QBEIXZ  00554170 f i rmx_vs8_d:rmx_entry.obj
 0002:000de1b0       ?getSecurityEx@cfgBase@@QBEEXZ 005541b0 f i rmx_vs8_d:rmx_entry.obj
 0002:000de200       ?hasParam@cfgBase@@QBEHPBD@Z 00554200 f i rmx_vs8_d:rmx_entry.obj
 0002:000de260       ?hasParam@cfgBase@@QBEHPBVprmBase@@@Z 00554260 f i rmx_vs8_d:rmx_entry.obj
 0002:000de2c0       ?hasParams@cfgBase@@QBEHXZ 005542c0 f i rmx_vs8_d:rmx_entry.obj
 0002:000de320       ?canEnumerateParams@cfgBase@@QBEHXZ 00554320 f i rmx_vs8_d:rmx_entry.obj
 0002:000de370       ?getParamCount@cfgBase@@QBEHXZ 00554370 f i rmx_vs8_d:rmx_entry.obj
 0002:000de3d0       ?getLastParam@cfgBase@@QBEPAVprmBase@@XZ 005543d0 f i rmx_vs8_d:rmx_entry.obj
 0002:000de430       ?getPrevParam@cfgBase@@QBEPAVprmBase@@PBV2@@Z 00554430 f i rmx_vs8_d:rmx_entry.obj
 0002:000de490       ?isParamUserData@cfgBase@@QBEHPAVprmBase@@@Z 00554490 f i rmx_vs8_d:rmx_entry.obj
 0002:000de4e0       ?removeParam@cfgBase@@QAEXPBD@Z 005544e0 f i rmx_vs8_d:rmx_entry.obj
 0002:000de550       ?getListRoot@cfgBase@@SAPAV1@XZ 00554550 f i rmx_vs8_d:rmx_entry.obj
 0002:000de590       ?hasChildren@cfgBase@@QBEHXZ 00554590 f i rmx_vs8_d:rmx_entry.obj
 0002:000de5f0       ?getChildCount@cfgBase@@QBEHXZ 005545f0 f i rmx_vs8_d:rmx_entry.obj
 0002:000de650       ?getLastChild@cfgBase@@QBEPAV1@XZ 00554650 f i rmx_vs8_d:rmx_entry.obj
 0002:000de6b0       ?setSecurityEx@cfgBase@@QAEXE@Z 005546b0 f i rmx_vs8_d:rmx_entry.obj
 0002:000de710       ??0cbRemote@@QAE@PAVcfgBase@@PAX@Z 00554710 f i rmx_vs8_d:rmx_entry.obj
 0002:000de780       ?cb_onDelete@cbRemote@@MAEXPAVcfgBase@@@Z 00554780 f i rmx_vs8_d:rmx_entry.obj
 0002:000de7f0       ?cb_cfgMessage@cbRemote@@MAEXW4cbMessage@@PAVcfgBase@@PBD@Z 005547f0 f i rmx_vs8_d:rmx_entry.obj
 0002:000de860       ?cb_cfgMessage@cbRemote@@MAEXW4cbMessage@@PAVcfgBase@@_J@Z 00554860 f i rmx_vs8_d:rmx_entry.obj
 0002:000de8e0       ?cb_cfgMessage@cbRemote@@MAEXW4cbMessage@@PAVcfgBase@@PBV3@2@Z 005548e0 f i rmx_vs8_d:rmx_entry.obj
 0002:000de960       ?cb_cfgMessage@cbRemote@@MAEXW4cbMessage@@PAVcfgBase@@PBVprmBase@@2@Z 00554960 f i rmx_vs8_d:rmx_entry.obj
 0002:000de9e0       ??_GcbRemote@@UAEPAXI@Z    005549e0 f i rmx_vs8_d:rmx_entry.obj
 0002:000de9e0       ??_EcbRemote@@UAEPAXI@Z    005549e0 f i rmx_vs8_d:rmx_entry.obj
 0002:000dea50       ??1cbRemote@@UAE@XZ        00554a50 f i rmx_vs8_d:rmx_entry.obj
 0002:000deab0       ?getItemCount@?$rmxList@PAVcfgBase@@@@QBEHXZ 00554ab0 f i rmx_vs8_d:rmx_entry.obj
 0002:000deaf0       ?getLastItem@?$rmxList@PAVcfgBase@@@@QBEPAVcfgBase@@XZ 00554af0 f i rmx_vs8_d:rmx_entry.obj
 0002:000deb70       ?getItemCount@?$rmxList@PAVprmBase@@@@QBEHXZ 00554b70 f i rmx_vs8_d:rmx_entry.obj
 0002:000debb0       ?hasItems@?$rmxList@PAVprmBase@@@@QBEHXZ 00554bb0 f i rmx_vs8_d:rmx_entry.obj
 0002:000dec00       ?getLastItem@?$rmxList@PAVprmBase@@@@QBEPAVprmBase@@XZ 00554c00 f i rmx_vs8_d:rmx_entry.obj
 0002:000dec80       ?getPrevItem@?$rmxList@PAVprmBase@@@@QBEPAVprmBase@@PAV2@@Z 00554c80 f i rmx_vs8_d:rmx_entry.obj
 0002:000ded20       ??0plugBase@@IAE@PBD@Z     00554d20 f   rmx_vs8_d:plugBase.obj
 0002:000dee50       ?onInit@plugBase@@UAEXXZ   00554e50 f i rmx_vs8_d:plugBase.obj
 0002:000dee90       ?onPostInit@plugBase@@UAEXXZ 00554e90 f i rmx_vs8_d:plugBase.obj
 0002:000deed0       ?onQuit@plugBase@@UAEXXZ   00554ed0 f i rmx_vs8_d:plugBase.obj
 0002:000def10       ?onInitConfig@plugBase@@UAEXXZ 00554f10 f i rmx_vs8_d:plugBase.obj
 0002:000def70       ??_GplugBase@@UAEPAXI@Z    00554f70 f i rmx_vs8_d:plugBase.obj
 0002:000def70       ??_EplugBase@@UAEPAXI@Z    00554f70 f i rmx_vs8_d:plugBase.obj
 0002:000defe0       ??1plugBase@@UAE@XZ        00554fe0 f   rmx_vs8_d:plugBase.obj
 0002:000df0f0       ?getInstance@plugBase@@QBEPAUHINSTANCE__@@XZ 005550f0 f i rmx_vs8_d:plugBase.obj
 0002:000df140       ?unload@plugBase@@QAEXH@Z  00555140 f   rmx_vs8_d:plugBase.obj
 0002:000df1d0       ?getThisPluginHandle@plugBase@@QBEPAVvHPLUGIN@@XZ 005551d0 f   rmx_vs8_d:plugBase.obj
 0002:000df220       ?consoleCommand@plugBase@@QAEXPBD@Z 00555220 f   rmx_vs8_d:plugBase.obj
 0002:000df280       ?isLoadingXml@plugBase@@QBEHXZ 00555280 f   rmx_vs8_d:plugBase.obj
 0002:000df2d0       ?isSavingXml@plugBase@@QBEHXZ 005552d0 f   rmx_vs8_d:plugBase.obj
 0002:000df320       ??_EplugBase@@WCI@AEPAXI@Z 00555320 f i rmx_vs8_d:plugBase.obj
 0002:000df330       ??_EplugBase@@WEI@AEPAXI@Z 00555330 f i rmx_vs8_d:plugBase.obj
 0002:000df340       ?open_socketlib@JNL@@SAHXZ 00555340 f   jnetlib:util.obj
 0002:000df400       ?close_socketlib@JNL@@SAXXZ 00555400 f   jnetlib:util.obj
 0002:000df450       ?ipstr_to_addr@JNL@@SAKPBD@Z 00555450 f   jnetlib:util.obj
 0002:000df4a0       ?addr_to_ipstr@JNL@@SAXKAAUCBString@Bstrlib@@@Z 005554a0 f   jnetlib:util.obj
 0002:000df530       ?Add@WS_ItemList@@QAEPAXPAX@Z 00555530 f   jnetlib:webserver.obj
 0002:000df5f0       ?Get@WS_ItemList@@QAEPAXH@Z 005555f0 f   jnetlib:webserver.obj
 0002:000df650       ?Del@WS_ItemList@@QAEXH@Z  00555650 f   jnetlib:webserver.obj
 0002:000df770       ??0WS_conInst@@QAE@PAVJNL_Connection@@H@Z 00555770 f   jnetlib:webserver.obj
 0002:000df860       ??1WS_conInst@@QAE@XZ      00555860 f   jnetlib:webserver.obj
 0002:000df960       ??1WebServerBaseClass@@UAE@XZ 00555960 f   jnetlib:webserver.obj
 0002:000dfbc0       ?GetSize@WS_ItemList@@QAEHXZ 00555bc0 f i jnetlib:webserver.obj
 0002:000dfc00       ??_GWebServerBaseClass@@UAEPAXI@Z 00555c00 f i jnetlib:webserver.obj
 0002:000dfc00       ??_EWebServerBaseClass@@UAEPAXI@Z 00555c00 f i jnetlib:webserver.obj
 0002:000dfc70       ??_GWS_conInst@@QAEPAXI@Z  00555c70 f i jnetlib:webserver.obj
 0002:000dfce0       ??_GWS_ItemList@@QAEPAXI@Z 00555ce0 f i jnetlib:webserver.obj
 0002:000dfd50       ??1WS_ItemList@@QAE@XZ     00555d50 f i jnetlib:webserver.obj
 0002:000dfdc0       ??_GJNL_Listen@@QAEPAXI@Z  00555dc0 f i jnetlib:webserver.obj
 0002:000dfe30       ??0WebServerBaseClass@@IAE@XZ 00555e30 f   jnetlib:webserver.obj
 0002:000dffe0       ??0WS_ItemList@@QAE@XZ     00555fe0 f i jnetlib:webserver.obj
 0002:000e0030       ?setMaxConnections@WebServerBaseClass@@QAEXH@Z 00556030 f   jnetlib:webserver.obj
 0002:000e0080       ?setRequestTimeout@WebServerBaseClass@@QAEXH@Z 00556080 f   jnetlib:webserver.obj
 0002:000e00d0       ?addListenPort@WebServerBaseClass@@QAEHHK@Z 005560d0 f   jnetlib:webserver.obj
 0002:000e0210       ?is_error@JNL_Listen@@QAEHXZ 00556210 f i jnetlib:webserver.obj
 0002:000e0260       ?removeListenPort@WebServerBaseClass@@QAEXH@Z 00556260 f   jnetlib:webserver.obj
 0002:000e0370       ?port@JNL_Listen@@QAEFXZ   00556370 f i jnetlib:webserver.obj
 0002:000e03b0       ?removeListenIdx@WebServerBaseClass@@QAEXH@Z 005563b0 f   jnetlib:webserver.obj
 0002:000e0490       ?getListenPort@WebServerBaseClass@@QAEHHPAH@Z 00556490 f   jnetlib:webserver.obj
 0002:000e0520       ?attachConnection@WebServerBaseClass@@QAEXPAVJNL_Connection@@H@Z 00556520 f   jnetlib:webserver.obj
 0002:000e0630       ?run@WebServerBaseClass@@QAEXXZ 00556630 f   jnetlib:webserver.obj
 0002:000e0810       ?run_connection@WebServerBaseClass@@AAEHPAVWS_conInst@@@Z 00556810 f   jnetlib:webserver.obj
 0002:000e0ae0       ?bytes_inqueue@JNL_HTTPServ@@QAEHXZ 00556ae0 f i jnetlib:webserver.obj
 0002:000e0b60       ?bytes_cansend@JNL_HTTPServ@@QAEHXZ 00556b60 f i jnetlib:webserver.obj
 0002:000e0bd0       ?write_bytes@JNL_HTTPServ@@QAEXPADH@Z 00556bd0 f i jnetlib:webserver.obj
 0002:000e0c30       ?url_encode@WebServerBaseClass@@SAXPAD0H@Z 00556c30 f   jnetlib:webserver.obj
 0002:000e0e10       ?url_decode@WebServerBaseClass@@SAXPAD0H@Z 00556e10 f   jnetlib:webserver.obj
 0002:000e1010       ?base64decode@WebServerBaseClass@@SAXPAD0H@Z 00557010 f   jnetlib:webserver.obj
 0002:000e11a0       ?base64encode@WebServerBaseClass@@SAXPAD0@Z 005571a0 f   jnetlib:webserver.obj
 0002:000e1370       ?parseAuth@WebServerBaseClass@@SAHPAD0H@Z 00557370 f   jnetlib:webserver.obj
 0002:000e1470       ??0JNL_HTTPServ@@QAE@PAVJNL_Connection@@@Z 00557470 f   jnetlib:httpserv.obj
 0002:000e1590       ??1JNL_HTTPServ@@QAE@XZ    00557590 f   jnetlib:httpserv.obj
 0002:000e16e0       ??_GJNL_Connection@@QAEPAXI@Z 005576e0 f i jnetlib:httpserv.obj
 0002:000e1750       ?run@JNL_HTTPServ@@QAEHXZ  00557750 f   jnetlib:httpserv.obj
 0002:000e1d80       ?get_state@JNL_Connection@@QAEHXZ 00557d80 f i jnetlib:httpserv.obj
 0002:000e1dc0       ?get_errstr@JNL_Connection@@QBEPBDXZ 00557dc0 f i jnetlib:httpserv.obj
 0002:000e1e20       ?seterrstr@JNL_HTTPServ@@IAEXPBD@Z 00557e20 f i jnetlib:httpserv.obj
 0002:000e1e80       ?get_request_file@JNL_HTTPServ@@QBEPBDXZ 00557e80 f   jnetlib:httpserv.obj
 0002:000e1f20       ?get_request_parm@JNL_HTTPServ@@QBEPBDUCBString@Bstrlib@@@Z 00557f20 f   jnetlib:httpserv.obj
 0002:000e20e0       ?getheader@JNL_HTTPServ@@QBEPBDPBD@Z 005580e0 f   jnetlib:httpserv.obj
 0002:000e22a0       ?set_reply_string@JNL_HTTPServ@@QAEXPBD@Z 005582a0 f   jnetlib:httpserv.obj
 0002:000e2300       ?set_reply_header@JNL_HTTPServ@@QAEXPBD@Z 00558300 f   jnetlib:httpserv.obj
 0002:000e2370       ??0JNL_AsyncDNS@@QAE@H@Z   00558370 f   jnetlib:asyncdns.obj
 0002:000e2430       ??1JNL_AsyncDNS@@QAE@XZ    00558430 f   jnetlib:asyncdns.obj
 0002:000e24f0       ?_threadfunc@JNL_AsyncDNS@@CGKPAX@Z 005584f0 f   jnetlib:asyncdns.obj
 0002:000e27d0       ?resolve@JNL_AsyncDNS@@QAEHUCBString@Bstrlib@@PAK@Z 005587d0 f   jnetlib:asyncdns.obj
 0002:000e2d00       ?reverse@JNL_AsyncDNS@@QAEHKAAUCBString@Bstrlib@@@Z 00558d00 f   jnetlib:asyncdns.obj
 0002:000e3050       ?makesurethreadisrunning@JNL_AsyncDNS@@AAEXXZ 00559050 f   jnetlib:asyncdns.obj
 0002:000e3170       ??0JNL_Listen@@QAE@FK@Z    00559170 f   jnetlib:listen.obj
 0002:000e3320       ??1JNL_Listen@@QAE@XZ      00559320 f   jnetlib:listen.obj
 0002:000e3380       ?get_connect@JNL_Listen@@QAEPAVJNL_Connection@@HH@Z 00559380 f   jnetlib:listen.obj
 0002:000e3540       ??0JNL_Connection@@QAE@PAVJNL_AsyncDNS@@HH@Z 00559540 f   jnetlib:connection.obj
 0002:000e37d0       ?connect@JNL_Connection@@QAEXHPAUsockaddr_in@@@Z 005597d0 f   jnetlib:connection.obj
 0002:000e3920       ?connect@JNL_Connection@@QAEXUCBString@Bstrlib@@H@Z 00559920 f   jnetlib:connection.obj
 0002:000e3b20       ??1JNL_Connection@@QAE@XZ  00559b20 f   jnetlib:connection.obj
 0002:000e3cc0       ??_GJNL_AsyncDNS@@QAEPAXI@Z 00559cc0 f i jnetlib:connection.obj
 0002:000e3d30       ?run@JNL_Connection@@QAEXHHPAH0@Z 00559d30 f   jnetlib:connection.obj
 0002:000e46b0       ?close@JNL_Connection@@QAEXH@Z 0055a6b0 f   jnetlib:connection.obj
 0002:000e4820       ?send_bytes_in_queue@JNL_Connection@@QAEHXZ 0055a820 f   jnetlib:connection.obj
 0002:000e4860       ?send_bytes_available@JNL_Connection@@QAEHXZ 0055a860 f   jnetlib:connection.obj
 0002:000e48b0       ?send@JNL_Connection@@QAEHPBXH@Z 0055a8b0 f   jnetlib:connection.obj
 0002:000e49d0       ?send_string@JNL_Connection@@QAEHPBD@Z 0055a9d0 f   jnetlib:connection.obj
 0002:000e4a40       ?recv_bytes_available@JNL_Connection@@QAEHXZ 0055aa40 f   jnetlib:connection.obj
 0002:000e4a80       ?peek_bytes@JNL_Connection@@QAEHPAXH@Z 0055aa80 f   jnetlib:connection.obj
 0002:000e4b90       ?recv_bytes@JNL_Connection@@QAEHPAXH@Z 0055ab90 f   jnetlib:connection.obj
 0002:000e4c10       ?getbfromrecv@JNL_Connection@@IAEHHH@Z 0055ac10 f   jnetlib:connection.obj
 0002:000e4ce0       ?recv_lines_available@JNL_Connection@@QAEHXZ 0055ace0 f   jnetlib:connection.obj
 0002:000e4dd0       ?recv_line@JNL_Connection@@QAEHPADH@Z 0055add0 f   jnetlib:connection.obj
 0002:000e4ef0       ?get_interface@JNL_Connection@@QAEKXZ 0055aef0 f   jnetlib:connection.obj
 0002:000e4ff0       ?get_remote@JNL_Connection@@QAEKXZ 0055aff0 f   jnetlib:connection.obj
 0002:000e5030       ?get_remote_port@JNL_Connection@@QAEFXZ 0055b030 f   jnetlib:connection.obj
 0002:000e506e       ??1?$basic_string@DU?$char_traits@D@std@@V?$allocator@D@2@@std@@QAE@XZ 0055b06e f   msvcprtd:MSVCP80D.dll
 0002:000e5074       ??0?$basic_string@DU?$char_traits@D@std@@V?$allocator@D@2@@std@@QAE@PBD@Z 0055b074 f   msvcprtd:MSVCP80D.dll
 0002:000e507a       ??0?$basic_string@DU?$char_traits@D@std@@V?$allocator@D@2@@std@@QAE@ABV01@@Z 0055b07a f   msvcprtd:MSVCP80D.dll
 0002:000e5080       ?c_str@?$basic_string@DU?$char_traits@D@std@@V?$allocator@D@2@@std@@QBEPBDXZ 0055b080 f   msvcprtd:MSVCP80D.dll
 0002:000e5086       ?write@?$basic_ostream@DU?$char_traits@D@std@@@std@@QAEAAV12@PBDH@Z 0055b086 f   msvcprtd:MSVCP80D.dll
 0002:000e508c       ?eof@ios_base@std@@QBE_NXZ 0055b08c f   msvcprtd:MSVCP80D.dll
 0002:000e5092       ?get@?$basic_istream@DU?$char_traits@D@std@@@std@@QAEAAV12@AAD@Z 0055b092 f   msvcprtd:MSVCP80D.dll
 0002:000e5098       ??1_Lockit@std@@QAE@XZ     0055b098 f   msvcprtd:MSVCP80D.dll
 0002:000e509e       ??0_Lockit@std@@QAE@H@Z    0055b09e f   msvcprtd:MSVCP80D.dll
 0002:000e50a4       ?_Debug_message@std@@YAXPB_W0I@Z 0055b0a4 f   msvcprtd:MSVCP80D.dll
 0002:000e50aa       ?_Orphan_all@_Container_base@std@@QBEXXZ 0055b0aa f   msvcprtd:MSVCP80D.dll
 0002:000e50b0       _memset                    0055b0b0 f   MSVCRTD:MSVCR80D.dll
 0002:000e50b6       ??2@YAPAXI@Z               0055b0b6 f   MSVCRTD:MSVCR80D.dll
 0002:000e50c0       __RTC_CheckEsp             0055b0c0 f   MSVCRTD:stack.obj
 0002:000e50f0       @_RTC_CheckStackVars@8     0055b0f0 f   MSVCRTD:stack.obj
 0002:000e5170       @_RTC_AllocaHelper@12      0055b170 f   MSVCRTD:stack.obj
 0002:000e51b0       @_RTC_CheckStackVars2@12   0055b1b0 f   MSVCRTD:stack.obj
 0002:000e52c0       _DebuggerKnownHandle       0055b2c0 f   MSVCRTD:error.obj
 0002:000e5390       ?_RTC_Failure@@YAXPAXH@Z   0055b390 f   MSVCRTD:error.obj
 0002:000e5790       ?_RTC_StackFailure@@YAXPAXPBD@Z 0055b790 f   MSVCRTD:error.obj
 0002:000e5900       ?_RTC_AllocaFailure@@YAXPAXPAU_RTC_ALLOCA_NODE@@H@Z 0055b900 f   MSVCRTD:error.obj
 0002:000e5b10       __RTC_UninitUse            0055bb10 f   MSVCRTD:error.obj
 0002:000e5c60       __RTC_InitBase             0055bc60 f   MSVCRTD:init.obj
 0002:000e5ca0       __RTC_Shutdown             0055bca0 f   MSVCRTD:init.obj
 0002:000e5cb8       ??3@YAXPAX@Z               0055bcb8 f   MSVCRTD:MSVCR80D.dll
 0002:000e5cbe       _sprintf_s                 0055bcbe f   MSVCRTD:MSVCR80D.dll
 0002:000e5cc4       ___CxxFrameHandler3        0055bcc4 f   MSVCRTD:MSVCR80D.dll
 0002:000e5cd0       @__security_check_cookie@4 0055bcd0 f   MSVCRTD:secchk.obj
 0002:000e5cf0       ??0type_info@@AAE@ABV0@@Z  0055bcf0 f   MSVCRTD:ti_inst.obj
 0002:000e5d10       ??_Etype_info@@UAEPAXI@Z   0055bd10 f i MSVCRTD:ti_inst.obj
 0002:000e5da0       ??4type_info@@AAEAAV0@ABV0@@Z 0055bda0 f   MSVCRTD:ti_inst.obj
 0002:000e5ef0       _WinMainCRTStartup         0055bef0 f   MSVCRTD:crtexew.obj
 0002:000e6300       _NtCurrentTeb              0055c300 f i MSVCRTD:crtexew.obj
 0002:000e63e8       _srand                     0055c3e8 f   MSVCRTD:MSVCR80D.dll
 0002:000e63f0       _strcmp                    0055c3f0 f   MSVCRTD:MSVCR80D.dll
 0002:000e63f6       _strncat_s                 0055c3f6 f   MSVCRTD:MSVCR80D.dll
 0002:000e63fc       _strncpy_s                 0055c3fc f   MSVCRTD:MSVCR80D.dll
 0002:000e6402       _strlen                    0055c402 f   MSVCRTD:MSVCR80D.dll
 0002:000e6408       __findclose                0055c408 f   MSVCRTD:MSVCR80D.dll
 0002:000e640e       __findnext64i32            0055c40e f   MSVCRTD:MSVCR80D.dll
 0002:000e6414       __findfirst64i32           0055c414 f   MSVCRTD:MSVCR80D.dll
 0002:000e641a       _free                      0055c41a f   MSVCRTD:MSVCR80D.dll
 0002:000e6420       _malloc                    0055c420 f   MSVCRTD:MSVCR80D.dll
 0002:000e6430       _memcpy                    0055c430 f   MSVCRTD:MSVCR80D.dll
 0002:000e6440       __onexit                   0055c440 f   MSVCRTD:atonexit.obj
 0002:000e6590       _atexit                    0055c590 f   MSVCRTD:atonexit.obj
 0002:000e65b0       __alloca_probe             0055c5b0     MSVCRTD:chkstk.obj
 0002:000e65b0       __chkstk                   0055c5b0 f   MSVCRTD:chkstk.obj
 0002:000e65e6       _fopen_s                   0055c5e6 f   MSVCRTD:MSVCR80D.dll
 0002:000e65ec       __purecall                 0055c5ec f   MSVCRTD:MSVCR80D.dll
 0002:000e65f2       _fclose                    0055c5f2 f   MSVCRTD:MSVCR80D.dll
 0002:000e65f8       _fread                     0055c5f8 f   MSVCRTD:MSVCR80D.dll
 0002:000e65fe       __localtime64_s            0055c5fe f   MSVCRTD:MSVCR80D.dll
 0002:000e6610       __ftol2_sse                0055c610 f   MSVCRTD:ftol2.obj
 0002:000e6619       __ftol2_pentium4           0055c619 f   MSVCRTD:ftol2.obj
 0002:000e662c       __ftol2_sse_excpt          0055c62c f   MSVCRTD:ftol2.obj
 0002:000e6646       __ftol2                    0055c646 f   MSVCRTD:ftol2.obj
 0002:000e66f0       __alldiv                   0055c6f0 f   MSVCRTD:lldiv.obj
 0002:000e67d0       __allrem                   0055c7d0 f   MSVCRTD:llrem.obj
 0002:000e68b0       __allmul                   0055c8b0 f   MSVCRTD:llmul.obj
 0002:000e6900       __alldvrm                  0055c900 f   MSVCRTD:lldvrm.obj
 0002:000e6a20       __allshl                   0055ca20 f   MSVCRTD:llshl.obj
 0002:000e6a50       __aullrem                  0055ca50 f   MSVCRTD:ullrem.obj
 0002:000e6af0       __aulldvrm                 0055caf0 f   MSVCRTD:ulldvrm.obj
 0002:000e6baa       _realloc                   0055cbaa f   MSVCRTD:MSVCR80D.dll
 0002:000e6bb0       _memmove                   0055cbb0 f   MSVCRTD:MSVCR80D.dll
 0002:000e6bb6       _strncmp                   0055cbb6 f   MSVCRTD:MSVCR80D.dll
 0002:000e6bc0       __aullshr                  0055cbc0 f   MSVCRTD:ullshr.obj
 0002:000e6be6       _sscanf_s                  0055cbe6 f   MSVCRTD:MSVCR80D.dll
 0002:000e6bec       _strtod                    0055cbec f   MSVCRTD:MSVCR80D.dll
 0002:000e6bf2       __stat64i32                0055cbf2 f   MSVCRTD:MSVCR80D.dll
 0002:000e6bf8       _rand                      0055cbf8 f   MSVCRTD:MSVCR80D.dll
 0002:000e6bfe       _rand_s                    0055cbfe f   MSVCRTD:MSVCR80D.dll
 0002:000e6c04       _localeconv                0055cc04 f   MSVCRTD:MSVCR80D.dll
 0002:000e6c0a       __wassert                  0055cc0a f   MSVCRTD:MSVCR80D.dll
 0002:000e6c10       _sscanf                    0055cc10 f   MSVCRTD:MSVCR80D.dll
 0002:000e6c16       __CxxThrowException@8      0055cc16 f   MSVCRTD:MSVCR80D.dll
 0002:000e6c1c       ??0exception@std@@QAE@ABV01@@Z 0055cc1c f   MSVCRTD:MSVCR80D.dll
 0002:000e6c22       ??1exception@std@@UAE@XZ   0055cc22 f   MSVCRTD:MSVCR80D.dll
 0002:000e6c28       ??0exception@std@@QAE@XZ   0055cc28 f   MSVCRTD:MSVCR80D.dll
 0002:000e6c2e       __vsnprintf                0055cc2e f   MSVCRTD:MSVCR80D.dll
 0002:000e6c34       _isspace                   0055cc34 f   MSVCRTD:MSVCR80D.dll
 0002:000e6c3a       __invalid_parameter        0055cc3a f   MSVCRTD:MSVCR80D.dll
 0002:000e6c40       __CrtDbgReportW            0055cc40 f   MSVCRTD:MSVCR80D.dll
 0002:000e6c46       ??0exception@std@@QAE@ABQBD@Z 0055cc46 f   MSVCRTD:MSVCR80D.dll
 0002:000e6c4c       ?what@exception@std@@UBEPBDXZ 0055cc4c f   MSVCRTD:MSVCR80D.dll
 0002:000e6c52       _toupper                   0055cc52 f   MSVCRTD:MSVCR80D.dll
 0002:000e6c58       _tolower                   0055cc58 f   MSVCRTD:MSVCR80D.dll
 0002:000e6c5e       _memcmp                    0055cc5e f   MSVCRTD:MSVCR80D.dll
 0002:000e6c64       _memchr                    0055cc64 f   MSVCRTD:MSVCR80D.dll
 0002:000e6c6a       __time64                   0055cc6a f   MSVCRTD:MSVCR80D.dll
 0002:000e6c70       __strnicmp                 0055cc70 f   MSVCRTD:MSVCR80D.dll
 0002:000e6c76       _strcat                    0055cc76 f   MSVCRTD:MSVCR80D.dll
 0002:000e6c7c       _strcpy                    0055cc7c f   MSVCRTD:MSVCR80D.dll
 0002:000e6c90       __except_handler4          0055cc90 f   MSVCRTD:chandler4gs.obj
 0002:000e6cc0       ?_RTC_GetSrcLine@@YAHPAEPA_WKPAH1K@Z 0055ccc0 f   MSVCRTD:pdblkup.obj
 0002:000e7270       __RTC_NumErrors            0055d270 f   MSVCRTD:userapi.obj
 0002:000e7280       __RTC_GetErrDesc           0055d280 f   MSVCRTD:userapi.obj
 0002:000e72a0       __RTC_SetErrorType         0055d2a0 f   MSVCRTD:userapi.obj
 0002:000e72d0       __RTC_SetErrorFunc         0055d2d0 f   MSVCRTD:userapi.obj
 0002:000e7300       __RTC_SetErrorFuncW        0055d300 f   MSVCRTD:userapi.obj
 0002:000e7330       ?_RTC_GetErrorFunc@@YAP6AHHPBDH00ZZPBX@Z 0055d330 f   MSVCRTD:userapi.obj
 0002:000e7340       ?_RTC_GetErrorFuncW@@YAP6AHHPB_WH00ZZPBX@Z 0055d340 f   MSVCRTD:userapi.obj
 0002:000e7346       __CRT_RTC_INITW            0055d346 f   MSVCRTD:MSVCR80D.dll
 0002:000e7350       ___report_gsfailure        0055d350 f   MSVCRTD:gs_report.obj
 0002:000e74a0       ??_M@YGXPAXIHP6EX0@Z@Z     0055d4a0 f   MSVCRTD:ehvecdtr.obj
 0002:000e7580       ?__ArrayUnwind@@YGXPAXIHP6EX0@Z@Z 0055d580 f   MSVCRTD:ehvecdtr.obj
 0002:000e7670       ?__CxxUnhandledExceptionFilter@@YGJPAU_EXCEPTION_POINTERS@@@Z 0055d670 f   MSVCRTD:unhandld.obj
 0002:000e76f0       ___CxxSetUnhandledExceptionFilter 0055d6f0 f   MSVCRTD:unhandld.obj
 0002:000e7706       __configthreadlocale       0055d706 f   MSVCRTD:MSVCR80D.dll
 0002:000e7710       __setdefaultprecision      0055d710 f   MSVCRTD:fp8.obj
 0002:000e7760       __invoke_watson_if_error   0055d760 f i MSVCRTD:fp8.obj
 0002:000e7794       ___setusermatherr          0055d794 f   MSVCRTD:MSVCR80D.dll
 0002:000e77a0       __matherr                  0055d7a0 f   MSVCRTD:merr.obj
 0002:000e77b0       __setargv                  0055d7b0 f   MSVCRTD:dllargv.obj
 0002:000e77c0       __RTC_Initialize           0055d7c0 f   MSVCRTD:initsect.obj
 0002:000e77f0       __RTC_Terminate            0055d7f0 f   MSVCRTD:initsect.obj
 0002:000e781e       ___p__commode              0055d81e f   MSVCRTD:MSVCR80D.dll
 0002:000e7824       ___p__fmode                0055d824 f   MSVCRTD:MSVCR80D.dll
 0002:000e782a       __encode_pointer           0055d82a f   MSVCRTD:MSVCR80D.dll
 0002:000e7830       ___set_app_type            0055d830 f   MSVCRTD:MSVCR80D.dll
 0002:000e7836       __amsg_exit                0055d836 f   MSVCRTD:MSVCR80D.dll
 0002:000e783c       ___getmainargs             0055d83c f   MSVCRTD:MSVCR80D.dll
 0002:000e7850       ___security_init_cookie    0055d850 f   MSVCRTD:gs_support.obj
 0002:000e7960       __exit                     0055d960 f   MSVCRTD:MSVCR80D.dll
 0002:000e7966       __XcptFilter               0055d966 f   MSVCRTD:MSVCR80D.dll
 0002:000e796c       __cexit                    0055d96c f   MSVCRTD:MSVCR80D.dll
 0002:000e7972       _exit                      0055d972 f   MSVCRTD:MSVCR80D.dll
 0002:000e7978       __ismbblead                0055d978 f   MSVCRTD:MSVCR80D.dll
 0002:000e797e       __CrtSetCheckCount         0055d97e f   MSVCRTD:MSVCR80D.dll
 0002:000e7990       __ValidateImageBase        0055d990 f   MSVCRTD:pesect.obj
 0002:000e7a10       __FindPESection            0055da10 f   MSVCRTD:pesect.obj
 0002:000e7aa0       __IsNonwritableInCurrentImage 0055daa0 f   MSVCRTD:pesect.obj
 0002:000e7bf4       __initterm                 0055dbf4 f   MSVCRTD:MSVCR80D.dll
 0002:000e7bfa       __initterm_e               0055dbfa f   MSVCRTD:MSVCR80D.dll
 0002:000e7c00       __stricmp                  0055dc00 f   MSVCRTD:MSVCR80D.dll
 0002:000e7c06       __unlock                   0055dc06 f   MSVCRTD:MSVCR80D.dll
 0002:000e7c0c       ___dllonexit               0055dc0c f   MSVCRTD:MSVCR80D.dll
 0002:000e7c12       __lock                     0055dc12 f   MSVCRTD:MSVCR80D.dll
 0002:000e7c18       __decode_pointer           0055dc18 f   MSVCRTD:MSVCR80D.dll
 0002:000e7c20       __get_sse2_info            0055dc20 f   MSVCRTD:cpu_disp.obj
 0002:000e7d90       ___sse2_available_init     0055dd90 f   MSVCRTD:cpu_disp.obj
 0002:000e7da6       __except_handler4_common   0055dda6 f   MSVCRTD:MSVCR80D.dll
 0002:000e7dac       __crt_debugger_hook        0055ddac f   MSVCRTD:MSVCR80D.dll
 0002:000e7db2       ?terminate@@YAXXZ          0055ddb2 f   MSVCRTD:MSVCR80D.dll
 0002:000e7db8       ?_type_info_dtor_internal_method@type_info@@QAEXXZ 0055ddb8 f   MSVCRTD:MSVCR80D.dll
 0002:000e7db8       ??1type_info@@UAE@XZ       0055ddb8 f   MSVCRTD:MSVCR80D.dll
 0002:000e7dbe       __controlfp_s              0055ddbe f   MSVCRTD:MSVCR80D.dll
 0002:000e7dc4       __invoke_watson            0055ddc4 f   MSVCRTD:MSVCR80D.dll
 0002:000e7dca       _WSAStartup@8              0055ddca f   WS2_32:WS2_32.dll
 0002:000e7dd0       _WSACleanup@0              0055ddd0 f   WS2_32:WS2_32.dll
 0002:000e7dd6       _inet_addr@4               0055ddd6 f   WS2_32:WS2_32.dll
 0002:000e7ddc       _inet_ntoa@4               0055dddc f   WS2_32:WS2_32.dll
 0002:000e7de2       _gethostbyaddr@12          0055dde2 f   WS2_32:WS2_32.dll
 0002:000e7de8       _gethostbyname@4           0055dde8 f   WS2_32:WS2_32.dll
 0002:000e7dee       _listen@8                  0055ddee f   WS2_32:WS2_32.dll
 0002:000e7df4       _closesocket@4             0055ddf4 f   WS2_32:WS2_32.dll
 0002:000e7dfa       _bind@12                   0055ddfa f   WS2_32:WS2_32.dll
 0002:000e7e00       _htons@4                   0055de00 f   WS2_32:WS2_32.dll
 0002:000e7e06       _ioctlsocket@12            0055de06 f   WS2_32:WS2_32.dll
 0002:000e7e0c       _socket@12                 0055de0c f   WS2_32:WS2_32.dll
 0002:000e7e12       _accept@12                 0055de12 f   WS2_32:WS2_32.dll
 0002:000e7e18       _shutdown@8                0055de18 f   WS2_32:WS2_32.dll
 0002:000e7e1e       _recv@16                   0055de1e f   WS2_32:WS2_32.dll
 0002:000e7e24       _send@16                   0055de24 f   WS2_32:WS2_32.dll
 0002:000e7e2a       ___WSAFDIsSet@8            0055de2a f   WS2_32:WS2_32.dll
 0002:000e7e30       _select@20                 0055de30 f   WS2_32:WS2_32.dll
 0002:000e7e36       _WSAGetLastError@0         0055de36 f   WS2_32:WS2_32.dll
 0002:000e7e3c       _connect@12                0055de3c f   WS2_32:WS2_32.dll
 0002:000e7e42       _getsockname@12            0055de42 f   WS2_32:WS2_32.dll
 0002:000e7e48       _CreateDirectoryA@8        0055de48 f   kernel32:KERNEL32.dll
 0002:000e7e4e       _GetLastError@0            0055de4e f   kernel32:KERNEL32.dll
 0002:000e7e54       _GetProcAddress@8          0055de54 f   kernel32:KERNEL32.dll
 0002:000e7e5a       _SetLastError@4            0055de5a f   kernel32:KERNEL32.dll
 0002:000e7e60       _FreeLibrary@4             0055de60 f   kernel32:KERNEL32.dll
 0002:000e7e66       _DisableThreadLibraryCalls@4 0055de66 f   kernel32:KERNEL32.dll
 0002:000e7e6c       _LoadLibraryA@4            0055de6c f   kernel32:KERNEL32.dll
 0002:000e7e72       _SetErrorMode@4            0055de72 f   kernel32:KERNEL32.dll
 0002:000e7e78       _Sleep@4                   0055de78 f   kernel32:KERNEL32.dll
 0002:000e7e7e       _InitializeCriticalSection@4 0055de7e f   kernel32:KERNEL32.dll
 0002:000e7e84       _InterlockedCompareExchange@12 0055de84 f   kernel32:KERNEL32.dll
 0002:000e7e8a       _DeleteCriticalSection@4   0055de8a f   kernel32:KERNEL32.dll
 0002:000e7e90       _EnterCriticalSection@4    0055de90 f   kernel32:KERNEL32.dll
 0002:000e7e96       _LeaveCriticalSection@4    0055de96 f   kernel32:KERNEL32.dll
 0002:000e7e9c       _GetVersionExA@4           0055de9c f   kernel32:KERNEL32.dll
 0002:000e7ea2       _MultiByteToWideChar@24    0055dea2 f   kernel32:KERNEL32.dll
 0002:000e7ea8       _WideCharToMultiByte@32    0055dea8 f   kernel32:KERNEL32.dll
 0002:000e7eae       _AreFileApisANSI@0         0055deae f   kernel32:KERNEL32.dll
 0002:000e7eb4       _UnlockFile@20             0055deb4 f   kernel32:KERNEL32.dll
 0002:000e7eba       _LockFile@20               0055deba f   kernel32:KERNEL32.dll
 0002:000e7ec0       _LockFileEx@24             0055dec0 f   kernel32:KERNEL32.dll
 0002:000e7ec6       _UnlockFileEx@20           0055dec6 f   kernel32:KERNEL32.dll
 0002:000e7ecc       _LoadLibraryW@4            0055decc f   kernel32:KERNEL32.dll
 0002:000e7ed2       _QueryPerformanceCounter@4 0055ded2 f   kernel32:KERNEL32.dll
 0002:000e7ed8       _GetTickCount@0            0055ded8 f   kernel32:KERNEL32.dll
 0002:000e7ede       _GetCurrentProcessId@0     0055dede f   kernel32:KERNEL32.dll
 0002:000e7ee4       _GetSystemTime@4           0055dee4 f   kernel32:KERNEL32.dll
 0002:000e7eea       _GetSystemTimeAsFileTime@4 0055deea f   kernel32:KERNEL32.dll
 0002:000e7ef0       _LocalFree@4               0055def0 f   kernel32:KERNEL32.dll
 0002:000e7ef6       _FormatMessageA@28         0055def6 f   kernel32:KERNEL32.dll
 0002:000e7efc       _FormatMessageW@28         0055defc f   kernel32:KERNEL32.dll
 0002:000e7f02       _SetFilePointer@16         0055df02 f   kernel32:KERNEL32.dll
 0002:000e7f08       _CloseHandle@4             0055df08 f   kernel32:KERNEL32.dll
 0002:000e7f0e       _ReadFile@20               0055df0e f   kernel32:KERNEL32.dll
 0002:000e7f14       _WriteFile@20              0055df14 f   kernel32:KERNEL32.dll
 0002:000e7f1a       _SetEndOfFile@4            0055df1a f   kernel32:KERNEL32.dll
 0002:000e7f20       _FlushFileBuffers@4        0055df20 f   kernel32:KERNEL32.dll
 0002:000e7f26       _GetFileSize@8             0055df26 f   kernel32:KERNEL32.dll
 0002:000e7f2c       _GetTempPathA@8            0055df2c f   kernel32:KERNEL32.dll
 0002:000e7f32       _GetTempPathW@8            0055df32 f   kernel32:KERNEL32.dll
 0002:000e7f38       _GetFileAttributesA@4      0055df38 f   kernel32:KERNEL32.dll
 0002:000e7f3e       _DeleteFileA@4             0055df3e f   kernel32:KERNEL32.dll
 0002:000e7f44       _GetFileAttributesW@4      0055df44 f   kernel32:KERNEL32.dll
 0002:000e7f4a       _DeleteFileW@4             0055df4a f   kernel32:KERNEL32.dll
 0002:000e7f50       _GetFileAttributesExW@12   0055df50 f   kernel32:KERNEL32.dll
 0002:000e7f56       _GetFullPathNameA@16       0055df56 f   kernel32:KERNEL32.dll
 0002:000e7f5c       _GetFullPathNameW@16       0055df5c f   kernel32:KERNEL32.dll
 0002:000e7f62       _GetDiskFreeSpaceA@20      0055df62 f   kernel32:KERNEL32.dll
 0002:000e7f68       _GetDiskFreeSpaceW@20      0055df68 f   kernel32:KERNEL32.dll
 0002:000e7f6e       _UnmapViewOfFile@4         0055df6e f   kernel32:KERNEL32.dll
 0002:000e7f74       _CreateFileA@28            0055df74 f   kernel32:KERNEL32.dll
 0002:000e7f7a       _CreateFileW@28            0055df7a f   kernel32:KERNEL32.dll
 0002:000e7f80       _GetSystemInfo@4           0055df80 f   kernel32:KERNEL32.dll
 0002:000e7f86       _MapViewOfFile@20          0055df86 f   kernel32:KERNEL32.dll
 0002:000e7f8c       _CreateFileMappingA@24     0055df8c f   kernel32:KERNEL32.dll
 0002:000e7f92       _GetVersionExW@4           0055df92 f   kernel32:KERNEL32.dll
 0002:000e7f98       _GetModuleFileNameW@12     0055df98 f   kernel32:KERNEL32.dll
 0002:000e7f9e       _CreateThread@24           0055df9e f   kernel32:KERNEL32.dll
 0002:000e7fa4       _WaitForSingleObject@8     0055dfa4 f   kernel32:KERNEL32.dll
 0002:000e7faa       _SetThreadPriority@8       0055dfaa f   kernel32:KERNEL32.dll
 0002:000e7fb0       _GetThreadPriority@4       0055dfb0 f   kernel32:KERNEL32.dll
 0002:000e7fb6       _CreateMutexW@12           0055dfb6 f   kernel32:KERNEL32.dll
 0002:000e7fbc       _ReleaseMutex@4            0055dfbc f   kernel32:KERNEL32.dll
 0002:000e7fc2       _RaiseException@16         0055dfc2 f   kernel32:KERNEL32.dll
 0002:000e7fc8       _DebugBreak@0              0055dfc8 f   kernel32:KERNEL32.dll
 0002:000e7fce       _IsDebuggerPresent@0       0055dfce f   kernel32:KERNEL32.dll
 0002:000e7fd4       _lstrlenA@4                0055dfd4 f   kernel32:KERNEL32.dll
 0002:000e7fda       _InterlockedExchange@8     0055dfda f   kernel32:KERNEL32.dll
 0002:000e7fe0       _GetStartupInfoA@4         0055dfe0 f   kernel32:KERNEL32.dll
 0002:000e7fe6       _HeapFree@12               0055dfe6 f   kernel32:KERNEL32.dll
 0002:000e7fec       _HeapAlloc@12              0055dfec f   kernel32:KERNEL32.dll
 0002:000e7ff2       _GetProcessHeap@0          0055dff2 f   kernel32:KERNEL32.dll
 0002:000e7ff8       _VirtualQuery@12           0055dff8 f   kernel32:KERNEL32.dll
 0002:000e7ffe       _TerminateProcess@8        0055dffe f   kernel32:KERNEL32.dll
 0002:000e8004       _UnhandledExceptionFilter@4 0055e004 f   kernel32:KERNEL32.dll
 0002:000e800a       _SetUnhandledExceptionFilter@4 0055e00a f   kernel32:KERNEL32.dll
 0002:000e8010       _GetCurrentThreadId@0      0055e010 f   kernel32:KERNEL32.dll
 0002:000e8016       _SetTimer@16               0055e016 f   user32:USER32.dll
 0002:000e801c       _KillTimer@8               0055e01c f   user32:USER32.dll
 0002:000e8022       _DestroyWindow@4           0055e022 f   user32:USER32.dll
 0002:000e8028       _SetWindowLongW@12         0055e028 f   user32:USER32.dll
 0002:000e802e       _CreateWindowExW@48        0055e02e f   user32:USER32.dll
 0002:000e8034       _RegisterClassExW@4        0055e034 f   user32:USER32.dll
 0002:000e803a       _GetClassInfoExW@12        0055e03a f   user32:USER32.dll
 0002:000e8040       _SendMessageA@16           0055e040 f   user32:USER32.dll
 0002:000e8046       _PostMessageW@16           0055e046 f   user32:USER32.dll
 0002:000e804c       _PostMessageA@16           0055e04c f   user32:USER32.dll
 0002:000e8052       _DefWindowProcW@16         0055e052 f   user32:USER32.dll
 0002:000e8058       _GetWindowLongW@8          0055e058 f   user32:USER32.dll
 0003:00000000       ___xc_a                    00569000     MSVCRTD:cinitexe.obj
 0003:0000031c       ___xc_z                    0056931c     MSVCRTD:cinitexe.obj
 0003:00000420       ___xi_a                    00569420     MSVCRTD:cinitexe.obj
 0003:00000830       ___xi_z                    00569830     MSVCRTD:cinitexe.obj
 0003:00000934       ___xl_a                    00569934     MSVCRTD:tlssup.obj
 0003:00000938       ___xl_z                    00569938     MSVCRTD:tlssup.obj
 0003:0000095c       ??_C@_0P@GHFPNOJB@bad?5allocation?$AA@ 0056995c     main.obj
 0003:00000970       ?collate@?$_Locbase@H@std@@2HB 00569970     main.obj
 0003:00000974       ?ctype@?$_Locbase@H@std@@2HB 00569974     main.obj
 0003:00000978       ?monetary@?$_Locbase@H@std@@2HB 00569978     main.obj
 0003:0000097c       ?numeric@?$_Locbase@H@std@@2HB 0056997c     main.obj
 0003:00000980       ?time@?$_Locbase@H@std@@2HB 00569980     main.obj
 0003:00000984       ?messages@?$_Locbase@H@std@@2HB 00569984     main.obj
 0003:00000988       ?all@?$_Locbase@H@std@@2HB 00569988     main.obj
 0003:0000098c       ?none@?$_Locbase@H@std@@2HB 0056998c     main.obj
 0003:00000990       ?skipws@?$_Iosb@H@std@@2W4_Fmtflags@12@B 00569990     main.obj
 0003:00000994       ?unitbuf@?$_Iosb@H@std@@2W4_Fmtflags@12@B 00569994     main.obj
 0003:00000998       ?uppercase@?$_Iosb@H@std@@2W4_Fmtflags@12@B 00569998     main.obj
 0003:0000099c       ?showbase@?$_Iosb@H@std@@2W4_Fmtflags@12@B 0056999c     main.obj
 0003:000009a0       ?showpoint@?$_Iosb@H@std@@2W4_Fmtflags@12@B 005699a0     main.obj
 0003:000009a4       ?showpos@?$_Iosb@H@std@@2W4_Fmtflags@12@B 005699a4     main.obj
 0003:000009a8       ?left@?$_Iosb@H@std@@2W4_Fmtflags@12@B 005699a8     main.obj
 0003:000009ac       ?right@?$_Iosb@H@std@@2W4_Fmtflags@12@B 005699ac     main.obj
 0003:000009b0       ?internal@?$_Iosb@H@std@@2W4_Fmtflags@12@B 005699b0     main.obj
 0003:000009b4       ?dec@?$_Iosb@H@std@@2W4_Fmtflags@12@B 005699b4     main.obj
 0003:000009b8       ?oct@?$_Iosb@H@std@@2W4_Fmtflags@12@B 005699b8     main.obj
 0003:000009bc       ?hex@?$_Iosb@H@std@@2W4_Fmtflags@12@B 005699bc     main.obj
 0003:000009c0       ?scientific@?$_Iosb@H@std@@2W4_Fmtflags@12@B 005699c0     main.obj
 0003:000009c4       ?fixed@?$_Iosb@H@std@@2W4_Fmtflags@12@B 005699c4     main.obj
 0003:000009c8       ?boolalpha@?$_Iosb@H@std@@2W4_Fmtflags@12@B 005699c8     main.obj
 0003:000009cc       ?_Stdio@?$_Iosb@H@std@@2W4_Fmtflags@12@B 005699cc     main.obj
 0003:000009d0       ?adjustfield@?$_Iosb@H@std@@2W4_Fmtflags@12@B 005699d0     main.obj
 0003:000009d4       ?basefield@?$_Iosb@H@std@@2W4_Fmtflags@12@B 005699d4     main.obj
 0003:000009d8       ?floatfield@?$_Iosb@H@std@@2W4_Fmtflags@12@B 005699d8     main.obj
 0003:000009dc       ?goodbit@?$_Iosb@H@std@@2W4_Iostate@12@B 005699dc     main.obj
 0003:000009e0       ?eofbit@?$_Iosb@H@std@@2W4_Iostate@12@B 005699e0     main.obj
 0003:000009e4       ?failbit@?$_Iosb@H@std@@2W4_Iostate@12@B 005699e4     main.obj
 0003:000009e8       ?badbit@?$_Iosb@H@std@@2W4_Iostate@12@B 005699e8     main.obj
 0003:000009ec       ?_Hardfail@?$_Iosb@H@std@@2W4_Iostate@12@B 005699ec     main.obj
 0003:000009f0       ?in@?$_Iosb@H@std@@2W4_Openmode@12@B 005699f0     main.obj
 0003:000009f4       ?out@?$_Iosb@H@std@@2W4_Openmode@12@B 005699f4     main.obj
 0003:000009f8       ?ate@?$_Iosb@H@std@@2W4_Openmode@12@B 005699f8     main.obj
 0003:000009fc       ?app@?$_Iosb@H@std@@2W4_Openmode@12@B 005699fc     main.obj
 0003:00000a00       ?trunc@?$_Iosb@H@std@@2W4_Openmode@12@B 00569a00     main.obj
 0003:00000a04       ?_Nocreate@?$_Iosb@H@std@@2W4_Openmode@12@B 00569a04     main.obj
 0003:00000a08       ?_Noreplace@?$_Iosb@H@std@@2W4_Openmode@12@B 00569a08     main.obj
 0003:00000a0c       ?binary@?$_Iosb@H@std@@2W4_Openmode@12@B 00569a0c     main.obj
 0003:00000a10       ?beg@?$_Iosb@H@std@@2W4_Seekdir@12@B 00569a10     main.obj
 0003:00000a14       ?cur@?$_Iosb@H@std@@2W4_Seekdir@12@B 00569a14     main.obj
 0003:00000a18       ?end@?$_Iosb@H@std@@2W4_Seekdir@12@B 00569a18     main.obj
 0003:00000a1c       ??_C@_1CG@OPKKLMGG@?$AAG?$AAe?$AAt?$AAM?$AAe?$AAs?$AAs?$AAa?$AAg?$AAe?$AA?$CI?$AA?$CJ?$AA?5?$AAE?$AAr?$AAr?$AAo?$AAr?$AA?$AA@ 00569a1c     main.obj
 0003:00000a4c       ??_C@_1BA@PNIKOCLL@?$AAE?$AAR?$AAR?$AAO?$AAR?$AA?$CB?$AA?$CB?$AA?$AA@ 00569a4c     main.obj
 0003:00000a60       ??_C@_0BB@CCIJFIMF@RMX?5Automation?52?$AA@ 00569a60     main.obj
 0003:00000a74       ??_C@_05BMGBEOOC@?$CFs?2?$CFs?$AA@ 00569a74     main.obj
 0003:00000a7b       ??_C@_00CNPNBAHC@?$AA@     00569a7b     main.obj
 0003:00000a7c       ??_C@_09CBJIPELH@_rmx_full?$AA@ 00569a7c     main.obj
 0003:00000a88       ??_C@_0CD@NPKKKNEA@RMX?5Automation?52?5?9?5v2?40?5?$CI2012030@ 00569a88     main.obj
 0003:00000ab4       ??_C@_0L@DDANIHFK@_rmx_title?$AA@ 00569ab4     main.obj
 0003:00000ac8       ??_7saPlugins@@6B@         00569ac8     main.obj
 0003:00000af8       ??_7saExitFunction@@6B@    00569af8     main.obj
 0003:00000b28       ??_7saExitFunction@@6BrmxString@@@ 00569b28     main.obj
 0003:00000b34       ??_7saExitFunction@@6BrmxData@@@ 00569b34     main.obj
 0003:00000b74       ??_C@_04LBABLPF@Exit?$AA@  00569b74     main.obj
 0003:00000b7c       ??_C@_04MKNBDEPB@exit?$AA@ 00569b7c     main.obj
 0003:00000b88       ??_7saTest@@6B@            00569b88     main.obj
 0003:00000bb8       ??_7saTest@@6BrmxString@@@ 00569bb8     main.obj
 0003:00000bc4       ??_7saTest@@6BrmxData@@@   00569bc4     main.obj
 0003:00000c04       ??_C@_0O@GPJLOCIP@TEST?5FUNCTION?$AA@ 00569c04     main.obj
 0003:00000c14       ??_C@_04CEJDCDCH@test?$AA@ 00569c14     main.obj
 0003:00000c1c       ??_C@_0BH@KKMJDGDL@Command?5Line?5Arguments?$AA@ 00569c1c     main.obj
 0003:00000c38       ??_C@_06FLMDCCAG@f_args?$AA@ 00569c38     main.obj
 0003:00000c40       ??_C@_0BL@LMCLJGLI@Application?5?$CIpath?5to?5?4exe?$CJ?$AA@ 00569c40     main.obj
 0003:00000c60       ??_C@_06PDLJLCPG@f_path?$AA@ 00569c60     main.obj
 0003:00000c68       ??_C@_06ICGJLFIM@string?$AA@ 00569c68     main.obj
 0003:00000c74       ??_7saLaunch@@6B@          00569c74     main.obj
 0003:00000ca4       ??_7saLaunch@@6BrmxString@@@ 00569ca4     main.obj
 0003:00000cb0       ??_7saLaunch@@6BrmxData@@@ 00569cb0     main.obj
 0003:00000cf0       ??_C@_06CPOOJICK@Launch?$AA@ 00569cf0     main.obj
 0003:00000cf8       ??_C@_05OOLEAMGB@shell?$AA@ 00569cf8     main.obj
 0003:00000d04       ??_7saLaunchThread@@6B@    00569d04     main.obj
 0003:00000d2c       ??_7rmxString@@6B@         00569d2c     main.obj
 0003:00000d34       ??_C@_19BDAJEHDN@?$AAo?$AAp?$AAe?$AAn?$AA?$AA@ 00569d34     main.obj
 0003:00000d40       ??_C@_11LOCGONAA@?$AA?$AA@ 00569d40     main.obj
 0003:00000d44       ??_C@_03DAGBJKHL@ico?$AA@  00569d44     rmx core:Loader.obj
 0003:00000d48       ??_C@_0N@DKCCOJIM@image?1x?9icon?$AA@ 00569d48     rmx core:Loader.obj
 0003:00000d58       ??_C@_03CAKEDOOO@bmp?$AA@  00569d58     rmx core:Loader.obj
 0003:00000d5c       ??_C@_0BE@ENPMPPMO@image?1x?9windows?9bmp?$AA@ 00569d5c     rmx core:Loader.obj
 0003:00000d74       ??_C@_03NNHBJLDF@png?$AA@  00569d74     rmx core:Loader.obj
 0003:00000d78       ??_C@_09NGJJJBGE@image?1png?$AA@ 00569d78     rmx core:Loader.obj
 0003:00000d84       ??_C@_03MOLNDNH@gif?$AA@   00569d84     rmx core:Loader.obj
 0003:00000d88       ??_C@_09HADNJIG@image?1gif?$AA@ 00569d88     rmx core:Loader.obj
 0003:00000d94       ??_C@_04OFMADDDJ@jpeg?$AA@ 00569d94     rmx core:Loader.obj
 0003:00000d9c       ??_C@_03PEGNKCLE@jpg?$AA@  00569d9c     rmx core:Loader.obj
 0003:00000da0       ??_C@_0L@PJKHLKFB@image?1jpeg?$AA@ 00569da0     rmx core:Loader.obj
 0003:00000db0       ??_C@_02EBOMECCO@js?$AA@   00569db0     rmx core:Loader.obj
 0003:00000db4       ??_C@_0BH@IDCBDBML@application?1javascript?$AA@ 00569db4     rmx core:Loader.obj
 0003:00000dd0       ??_C@_03KFINIEDC@css?$AA@  00569dd0     rmx core:Loader.obj
 0003:00000dd4       ??_C@_08FLCBBKMI@text?1css?$AA@ 00569dd4     rmx core:Loader.obj
 0003:00000de0       ??_C@_03PJHHNEEI@xml?$AA@  00569de0     rmx core:Loader.obj
 0003:00000de4       ??_C@_08HNLEKLC@text?1xml?$AA@ 00569de4     rmx core:Loader.obj
 0003:00000df0       ??_C@_04PNIFHPHN@html?$AA@ 00569df0     rmx core:Loader.obj
 0003:00000df8       ??_C@_03KDICCKGJ@htm?$AA@  00569df8     rmx core:Loader.obj
 0003:00000dfc       ??_C@_09KABDMIOB@text?1html?$AA@ 00569dfc     rmx core:Loader.obj
 0003:00000e08       ??_C@_09GBFPJCCH@_rmx_arch?$AA@ 00569e08     rmx core:Loader.obj
 0003:00000e14       ??_C@_03NDFEINMN@x86?$AA@  00569e14     rmx core:Loader.obj
 0003:00000e18       ??_C@_0O@HPEIBMC@_rmx_platform?$AA@ 00569e18     rmx core:Loader.obj
 0003:00000e28       ??_C@_0N@BFCLEJAL@_rmx_windows?$AA@ 00569e28     rmx core:Loader.obj
 0003:00000e38       ??_C@_08FOJKHHJA@?$CFd?4?$CFd?4?$CFd?$AA@ 00569e38     rmx core:Loader.obj
 0003:00000e44       ??_C@_0N@FMLGCDJK@_sdk_version?$AA@ 00569e44     rmx core:Loader.obj
 0003:00000e54       ??_C@_08LCAKNPNL@20120309?$AA@ 00569e54     rmx core:Loader.obj
 0003:00000e60       ??_C@_0N@HNPEJNKP@_app_version?$AA@ 00569e60     rmx core:Loader.obj
 0003:00000e70       ??_C@_0BA@JHPKACOL@v2?40?5?$CI20120309?$CJ?$AA@ 00569e70     rmx core:Loader.obj
 0003:00000e84       ??_C@_0N@HAMHGLJL@_rmx_version?$AA@ 00569e84     rmx core:Loader.obj
 0003:00000e94       ??_C@_03GJAMENNA@2?40?$AA@ 00569e94     rmx core:Loader.obj
 0003:00000e98       ??_C@_0BC@LDIHFNHC@_sqlite_source_id?$AA@ 00569e98     rmx core:Loader.obj
 0003:00000eb0       ??_C@_0BH@EFODKBFI@_sqlite_version_number?$AA@ 00569eb0     rmx core:Loader.obj
 0003:00000ecc       ??_C@_0BA@HFCIBDPB@_sqlite_version?$AA@ 00569ecc     rmx core:Loader.obj
 0003:00000ee4       ??_7vPluginLoader@@6B@     00569ee4     rmx core:Loader.obj
 0003:00000f10       ??_C@_0BC@COCKLMEN@BEGIN?5TRANSACTION?$AA@ 00569f10     rmx core:Loader.obj
 0003:00000f28       ??_C@_0BD@CIOKAMEA@COMMIT?5TRANSACTION?$AA@ 00569f28     rmx core:Loader.obj
 0003:00000f44       ??_7rmx_server@@6BvTimer@@@ 00569f44     rmx core:Loader.obj
 0003:00000f54       ??_7rmx_server@@6BWebServerBaseClass@@@ 00569f54     rmx core:Loader.obj
 0003:00000f60       ??_C@_04KDEOOPC@Core?$AA@  00569f60     rmx core:Loader.obj
 0003:00000f68       ??_C@_08NLOGHLEJ@Stopping?$AA@ 00569f68     rmx core:Loader.obj
 0003:00000f74       ??_C@_0CB@KKABHCB@Plugins?5Finished?5Loading?5in?5?$CFdms@ 00569f74     rmx core:Loader.obj
 0003:00000f9c       ??_C@_0BM@PECGFHCL@http?3?1?1rmx?4sourceforge?4net?1?$AA@ 00569f9c     rmx core:Loader.obj
 0003:00000fc0       ??_C@_0BE@KMFLAPOA@RMX?4SourceForge?4Net?$AA@ 00569fc0     rmx core:Loader.obj
 0003:00000fd8       ??_C@_0BE@GBPGGJAI@All?5rights?5reserved?$AA@ 00569fd8     rmx core:Loader.obj
 0003:00000ff0       ??_C@_0BC@HJLFJKDC@copyright_rmx_arr?$AA@ 00569ff0     rmx core:Loader.obj
 0003:00001008       ??_C@_0EK@JMEDKKAD@RM?9X?5General?5Purpose?5Control?5Cop@ 0056a008     rmx core:Loader.obj
 0003:00001060       ??_C@_0BC@MIDDCJA@copyright_rmx_gpc?$AA@ 0056a060     rmx core:Loader.obj
 0003:00001078       ??_C@_0EB@GIEEJOLJ@RMX?5Automation?5v1?4x?5Copyright?5?$CIC@ 0056a078     rmx core:Loader.obj
 0003:000010c8       ??_C@_0BB@MHNJKNP@copyright_rmx_a1?$AA@ 0056a0c8     rmx core:Loader.obj
 0003:000010dc       ??_C@_0DP@KLCNJKIN@RMX?5Automation?5v2?40?5Copyright?5?$CIC@ 0056a0dc     rmx core:Loader.obj
 0003:00001128       ??_C@_0BB@CHFAMJBM@copyright_rmx_a2?$AA@ 0056a128     rmx core:Loader.obj
 0003:0000113c       ??_C@_0BF@NGIOJJKO@About?5RMX?5Automation?$AA@ 0056a13c     rmx core:Loader.obj
 0003:00001158       ??_C@_05BDOHFCKE@About?$AA@ 0056a158     rmx core:Loader.obj
 0003:00001160       ??_C@_05CBJPDLOK@align?$AA@ 0056a160     rmx core:Loader.obj
 0003:00001168       ??_C@_06BBLOAEEI@center?$AA@ 0056a168     rmx core:Loader.obj
 0003:00001170       ??_C@_05PHLGJONK@title?$AA@ 0056a170     rmx core:Loader.obj
 0003:00001178       ??_C@_04GOOOJOPP@left?$AA@ 0056a178     rmx core:Loader.obj
 0003:00001184       ??_7cfgLabel@@6B@          0056a184     rmx core:Loader.obj
 0003:000011b4       ??_7cfgLabel@@6BrmxString@@@ 0056a1b4     rmx core:Loader.obj
 0003:000011c0       ??_7cfgLabel@@6BrmxData@@@ 0056a1c0     rmx core:Loader.obj
 0003:000011f0       ??_C@_05IDCCNNGI@label?$AA@ 0056a1f0     rmx core:Loader.obj
 0003:000011f8       ??_C@_05DHJDAOHK@right?$AA@ 0056a1f8     rmx core:Loader.obj
 0003:00001204       ??_7vConsolePluginCallback@@6B@ 0056a204     rmx core:Loader.obj
 0003:00001218       ??_7vPluginCallback@@6B@   0056a218     rmx core:Loader.obj
 0003:0000122c       ??_7vFunctionPluginCallback@@6B@ 0056a22c     rmx core:Loader.obj
 0003:0000123c       ??_C@_05MGJOOGAJ@group?$AA@ 0056a23c     rmx core:Loader.obj
 0003:00001244       ??_C@_08HFFPPCHF@function?$AA@ 0056a244     rmx core:Loader.obj
 0003:00001254       ??_7cbRootFunction@@6B@    0056a254     rmx core:Loader.obj
 0003:000012a0       ??_7cbRoot@@6B@            0056a2a0     rmx core:Loader.obj
 0003:000012e4       ??_C@_04LDONOGJH@FUNC?$AA@ 0056a2e4     rmx core:Loader.obj
 0003:000012ec       ??_C@_02BBAHNLBA@?$CFp?$AA@ 0056a2ec     rmx core:Loader.obj
 0003:000012f4       ??_7sqlPluginCallback@@6B@ 0056a2f4     rmx core:Loader.obj
 0003:00001308       ??_7funcNone@@6B@          0056a308     rmx core:Loader.obj
 0003:00001338       ??_7funcNone@@6BrmxString@@@ 0056a338     rmx core:Loader.obj
 0003:00001344       ??_7funcNone@@6BrmxData@@@ 0056a344     rmx core:Loader.obj
 0003:00001380       ??_C@_06KODPHKHE@?$FLNONE?$FN?$AA@ 0056a380     rmx core:Loader.obj
 0003:00001388       ??_C@_0BH@BDLDLDLI@Total?5Start?5Time?3?5?$CFdms?$AA@ 0056a388     rmx core:Loader.obj
 0003:000013a4       ??_C@_0BD@LFBILGEH@Error?5in?5Post?5Init?$AA@ 0056a3a4     rmx core:Loader.obj
 0003:000013bc       ??_C@_0CA@BDIODPLN@Post?5Init?5Finished?5Successfully?$AA@ 0056a3bc     rmx core:Loader.obj
 0003:000013e4       ??_C@_0BD@IOGHHFLG@Begining?5Post?5Init?$AA@ 0056a3e4     rmx core:Loader.obj
 0003:000013fc       ??_C@_0P@BIILFNJD@DELAYED?5DELETE?$AA@ 0056a3fc     rmx core:Loader.obj
 0003:00001410       ??_C@_0BC@OCJHDEPA@Unloading?5Plugins?$AA@ 0056a410     rmx core:Loader.obj
 0003:00001428       ??_C@_0L@NEBDKONN@Add?5Plugin?$AA@ 0056a428     rmx core:Loader.obj
 0003:00001438       ??_C@_0O@JADFPBMA@?2rmx_plugins?2?$AA@ 0056a438     rmx core:Loader.obj
 0003:00001448       ??_C@_0P@DHBLFCIJ@Unknown?5Plugin?$AA@ 0056a448     rmx core:Loader.obj
 0003:0000145c       ??_C@_0BD@MIKEFACF@GetProcAddress?3?5?$CFd?$AA@ 0056a45c     rmx core:Loader.obj
 0003:00001474       ??_C@_0L@EGCEFNDI@_RMX_ENTRY?$AA@ 0056a474     rmx core:Loader.obj
 0003:00001484       ??_C@_0BF@IBKFENBN@?$CFs?2rmx_plugins?2?$CK?4dll?$AA@ 0056a484     rmx core:Loader.obj
 0003:000014a0       ??_C@_0BA@DMBNCJJC@Loading?5Plugins?$AA@ 0056a4a0     rmx core:Loader.obj
 0003:000014b8       ??_7?$rmxList@PAVvPlugin@@@@6B@ 0056a4b8     rmx core:Loader.obj
 0003:000014cc       ??_7?$rmxList@PAVvPluginCallback@@@@6B@ 0056a4cc     rmx core:Loader.obj
 0003:000014e0       ??_7rmxMasterPlugin@@6BcfgRoot@@@ 0056a4e0     rmx core:rmxMasterPlugin.obj
 0003:00001510       ??_7rmxMasterPlugin@@6BrmxString@@@ 0056a510     rmx core:rmxMasterPlugin.obj
 0003:0000151c       ??_7rmxMasterPlugin@@6BrmxData@@@ 0056a51c     rmx core:rmxMasterPlugin.obj
 0003:00001554       ??_7rmxMasterPlugin@@6BvPlugin@@@ 0056a554     rmx core:rmxMasterPlugin.obj
 0003:000015dc       ??_C@_06INNNFHKM@Master?$AA@ 0056a5dc     rmx core:rmxMasterPlugin.obj
 0003:000015e4       ??_C@_08BFHGMNOH@Embedded?$AA@ 0056a5e4     rmx core:rmxMasterPlugin.obj
 0003:000015f0       ??_C@_0CB@LCICIALI@ERROR?5CREATING?5?$FLmimetypes?$FN?5TABLE@ 0056a5f0     rmx core:sqlite.obj
 0003:00001618       ??_C@_0FI@IFAGKJJD@CREATE?5TABLE?5IF?5NOT?5EXISTS?5?$FLmime@ 0056a618     rmx core:sqlite.obj
 0003:00001684       ??_C@_0BO@ELFOINGN@ERROR?5CREATING?5?$GAparams?$GA?5TABLE?$AA@ 0056a684     rmx core:sqlite.obj
 0003:000016a8       ??_C@_0BEN@PNFIIDM@CREATE?5TABLE?5IF?5NOT?5EXISTS?5?$GApara@ 0056a6a8     rmx core:sqlite.obj
 0003:00001838       ??_C@_0CD@NBBMCEAH@ERROR?5CREATING?5?$GAparam_names?$GA?5TAB@ 0056a838     rmx core:sqlite.obj
 0003:00001868       ??_C@_0GJ@LDNNHJAC@CREATE?5TABLE?5IF?5NOT?5EXISTS?5?$GApara@ 0056a868     rmx core:sqlite.obj
 0003:000018e8       ??_C@_0BO@GNHNMMD@ERROR?5CREATING?5?$GAobject?$GA?5TABLE?$AA@ 0056a8e8     rmx core:sqlite.obj
 0003:00001910       ??_C@_0BMC@EHLJEKLA@CREATE?5TABLE?5IF?5NOT?5EXISTS?5?$GAobje@ 0056a910     rmx core:sqlite.obj
 0003:00001b2c       ??_C@_0CD@GPDOPNNN@ERROR?5CREATING?5?$GAobject_type?$GA?5TAB@ 0056ab2c     rmx core:sqlite.obj
 0003:00001b58       ??_C@_0HA@MNBJKHGF@CREATE?5TABLE?5IF?5NOT?5EXISTS?5?$GAobje@ 0056ab58     rmx core:sqlite.obj
 0003:00001be0       ??_C@_0CC@OFBFNKJG@ERROR?5CREATING?5?$GAsettings?$GA?5TRIGGE@ 0056abe0     rmx core:sqlite.obj
 0003:00001c08       ??_C@_0LC@GCNFGHEF@CREATE?5TRIGGER?5IF?5NOT?5EXISTS?5?$GAse@ 0056ac08     rmx core:sqlite.obj
 0003:00001ce0       ??_C@_0CA@BGGDDCAC@ERROR?5CREATING?5?$GAsettings?$GA?5TABLE?$AA@ 0056ace0     rmx core:sqlite.obj
 0003:00001d08       ??_C@_0GA@GJGEKBJ@CREATE?5TABLE?5IF?5NOT?5EXISTS?5?$FLsett@ 0056ad08     rmx core:sqlite.obj
 0003:00001d7c       ??_C@_0N@CEEMEAMB@foreign_keys?$AA@ 0056ad7c     rmx core:sqlite.obj
 0003:00001d8c       ??_C@_02BFICIOJL@ON?$AA@   0056ad8c     rmx core:sqlite.obj
 0003:00001d90       ??_C@_06CHCDFKFG@SQLite?$AA@ 0056ad90     rmx core:sqlite.obj
 0003:00001d98       ??_C@_0CD@FKOECIOH@ERROR?5CREATING?5DATABASE?5CONNECTI@ 0056ad98     rmx core:sqlite.obj
 0003:00001dc4       ??_C@_0P@GHIBLMJK@?$CFs?2storage?4rmx?$AA@ 0056adc4     rmx core:sqlite.obj
 0003:00001ddc       ??_7vSqlite@@6B@           0056addc     rmx core:sqlite.obj
 0003:00001de4       ??_C@_0BH@IBGGENCB@Empty?5SQL?5query?5string?$AA@ 0056ade4     rmx core:sqlite.obj
 0003:00001e00       ??_C@_0CA@DHEMJGLG@SQLite?5database?5not?5initialized?$AA@ 0056ae00     rmx core:sqlite.obj
 0003:00001e28       ??_C@_09CEGNFEDL@?5LIMIT?51?$DL?$AA@ 0056ae28     rmx core:sqlite.obj
 0003:00001e34       ??_C@_08HECGALIH@?$FN?5WHERE?5?$AA@ 0056ae34     rmx core:sqlite.obj
 0003:00001e40       ??_C@_08NHNPELJO@?$FN?5FROM?5?$FL?$AA@ 0056ae40     rmx core:sqlite.obj
 0003:00001e4c       ??_C@_08NFFEKGKK@SELECT?5?$FL?$AA@ 0056ae4c     rmx core:sqlite.obj
 0003:00001e58       ??_C@_0DM@CJNDHNID@REPLACE?5INTO?5?$FLsettings?$FN?5VALUES?5?$CI@ 0056ae58     rmx core:sqlite.obj
 0003:00001ea0       ??_C@_02DPKJAMEF@?$CFd?$AA@ 0056aea0     rmx core:sqlite.obj
 0003:00001ea4       ??_C@_02NJPGOMH@?$CFf?$AA@ 0056aea4     rmx core:sqlite.obj
 0003:00001ea8       ??_C@_0DF@MJDNHFFE@SELECT?5?$FLvalue?$FN?5FROM?5?$FLsettings?$FN?5W@ 0056aea8     rmx core:sqlite.obj
 0003:00001eec       ??_7timerString@@6BrmxString@@@ 0056aeec     rmx core:sqlite.obj
 0003:00001ef8       ??_7timerString@@6BtimerDelete@@@ 0056aef8     rmx core:sqlite.obj
 0003:00001f0c       ??_7timerDelete@@6B@       0056af0c     rmx core:sqlite.obj
 0003:00001f20       __real@0000000000000000    0056af20     rmx core:sqlite.obj
 0003:00001f2c       ??_C@_0CH@GHJEHPJC@REPLACE?5INTO?5?$FLmimetypes?$FN?5VALUES?5@ 0056af2c     rmx core:sqlite.obj
 0003:00001f60       ??_C@_0EF@LJENNKNG@SELECT?5?$FLmime_type?$FN?5FROM?5?$FLmimetyp@ 0056af60     rmx core:sqlite.obj
 0003:00001fb4       ??_C@_0BJ@JDCJMJCJ@application?1octet?9stream?$AA@ 0056afb4     rmx core:sqlite.obj
 0003:00001fd4       ??_C@_0P@CMIGFBL@PRAGMA?5?$CFs?5?$DN?5?$CFs?$AA@ 0056afd4     rmx core:sqlite.obj
 0003:00001fe8       ??_C@_09NBKNJIPO@PRAGMA?5?$CFs?$AA@ 0056afe8     rmx core:sqlite.obj
 0003:00001ff4       ??_C@_0P@JCOIHDGI@object_type_id?$AA@ 0056aff4     rmx core:sqlite.obj
 0003:00002008       ??_C@_0M@OLOAACKL@object_type?$AA@ 0056b008     rmx core:sqlite.obj
 0003:00002018       ??_C@_0BI@OFDGCAMG@?$FLobject_type_name?$FN?$DN?8?$CFs?8?$AA@ 0056b018     rmx core:sqlite.obj
 0003:00002038       ??_C@_0EE@PNCCKOIB@INSERT?5OR?5IGNORE?5INTO?5?$FLobject_ty@ 0056b038     rmx core:sqlite.obj
 0003:0000208c       ??_C@_0O@BPHGDBML@param_name_id?$AA@ 0056b08c     rmx core:sqlite.obj
 0003:0000209c       ??_C@_0L@HMMPDBAE@param_name?$AA@ 0056b09c     rmx core:sqlite.obj
 0003:000020ac       ??_C@_0BC@CBIBIJNC@?$FLparam_name?$FN?$DN?8?$CFs?8?$AA@ 0056b0ac     rmx core:sqlite.obj
 0003:000020c4       ??_C@_0DO@DICINIIP@INSERT?5OR?5IGNORE?5INTO?5?$FLparam_nam@ 0056b0c4     rmx core:sqlite.obj
 0003:00002110       ??_C@_0P@NLMALFCD@Identification?$AA@ 0056b110     rmx core:Parser.obj
 0003:00002124       ??_C@_04NIDJFNBE@info?$AA@ 0056b124     rmx core:Parser.obj
 0003:0000212c       ??_C@_06OLONEIEH@script?$AA@ 0056b12c     rmx core:Parser.obj
 0003:00002134       ??_C@_0BH@CEDBNBNG@HTTP?11?41?5404?5NOT?5FOUND?$AA@ 0056b134     rmx core:http.obj
 0003:00002150       ??_C@_03CLFHJCDC@txt?$AA@  0056b150     rmx core:http.obj
 0003:00002154       ??_C@_04MLPFMBPG@core?$AA@ 0056b154     rmx core:http.obj
 0003:0000215c       ??_C@_03LNOPAIDL@api?$AA@  0056b15c     rmx core:http.obj
 0003:00002160       ??_C@_0M@LFMFBCIF@?1index?4html?$AA@ 0056b160     rmx core:http.obj
 0003:00002170       ??_C@_01KMDKNFGN@?1?$AA@   0056b170     rmx core:http.obj
 0003:00002174       ??_C@_0BK@HBGNJNMO@Server?3rmx_automation?12?40?$AA@ 0056b174     rmx core:http.obj
 0003:00002198       ??_7rmxDataList@@6B@       0056b198     rmx core:http.obj
 0003:000021b0       ??_7?$rmxList@PAVrmxData@@@@6B@ 0056b1b0     rmx core:http.obj
 0003:000021c0       ??_C@_0BA@NHHCNFOM@?$CFs?2rmx_plugins?2?$AA@ 0056b1c0     rmx core:PluginTree.obj
 0003:000021d8       ??_7vPluginTree@@6B@       0056b1d8     rmx core:PluginTree.obj
 0003:00002208       ??_7vPluginTree@@6BrmxString@@@ 0056b208     rmx core:PluginTree.obj
 0003:00002214       ??_7vPluginTree@@6BrmxData@@@ 0056b214     rmx core:PluginTree.obj
 0003:00002244       ??_C@_07PDGFLGHI@Plugins?$AA@ 0056b244     rmx core:PluginTree.obj
 0003:00002254       ??_7cfgLine@@6B@           0056b254     rmx core:PluginTree.obj
 0003:00002284       ??_7cfgLine@@6BrmxString@@@ 0056b284     rmx core:PluginTree.obj
 0003:00002290       ??_7cfgLine@@6BrmxData@@@  0056b290     rmx core:PluginTree.obj
 0003:000022c0       ??_C@_02FLHDKHAB@hr?$AA@   0056b2c0     rmx core:PluginTree.obj
 0003:000022c4       ??_C@_08BABJIOEM@filename?$AA@ 0056b2c4     rmx core:PluginTree.obj
 0003:000022d0       ??_C@_04DDKJGDCM@bool?$AA@ 0056b2d0     rmx core:PluginTree.obj
 0003:000022d8       ??_C@_0BE@MLCKNMEL@Unknown?5LIB?5Version?$AA@ 0056b2d8     rmx core:PluginTree.obj
 0003:000022f0       ??_C@_0BE@ICCHMIAL@Unknown?5SDK?5Version?$AA@ 0056b2f0     rmx core:PluginTree.obj
 0003:00002308       ??_C@_0N@EJCJPMGA@plugin_build?$AA@ 0056b308     rmx core:PluginTree.obj
 0003:00002318       ??_C@_0L@OHFFDGMC@plugin_sdk?$AA@ 0056b318     rmx core:PluginTree.obj
 0003:00002328       ??_C@_0M@LPKNHJKK@plugin_path?$AA@ 0056b328     rmx core:PluginTree.obj
 0003:0000233c       ??_7vPluginManager@@6B@    0056b33c     rmx core:PluginTree.obj
 0003:0000236c       ??_7vPluginManager@@6BrmxString@@@ 0056b36c     rmx core:PluginTree.obj
 0003:00002378       ??_7vPluginManager@@6BrmxData@@@ 0056b378     rmx core:PluginTree.obj
 0003:000023a8       ??_C@_0BC@GLHFBGBD@Unknown?5LIB?5Build?$AA@ 0056b3a8     rmx core:PluginTree.obj
 0003:000023c0       ??_C@_0O@GBMMHJOE@LIB?5Build?3?5?$CFd?$AA@ 0056b3c0     rmx core:PluginTree.obj
 0003:000023d0       ??_C@_0BC@FDNADAAK@Unknown?5SDK?5Build?$AA@ 0056b3d0     rmx core:PluginTree.obj
 0003:000023e8       ??_C@_0O@ILGPKLJB@SDK?5Build?3?5?$CFd?$AA@ 0056b3e8     rmx core:PluginTree.obj
 0003:000023f8       ??_C@_0BP@PCCKFOOA@Plugin?5Loaded?5Successfully?3?5?$CFs?$AA@ 0056b3f8     rmx core:PluginTree.obj
 0003:00002420       ??_C@_0N@MJBPJOAO@PluginStatus?$AA@ 0056b420     rmx core:PluginTree.obj
 0003:00002430       ??_C@_0L@CHJBHF@LoadPlugin?$AA@ 0056b430     rmx core:PluginTree.obj
 0003:00002440       ??_C@_0M@MBOFDDHE@LoadLibrary?$AA@ 0056b440     rmx core:PluginTree.obj
 0003:00002450       ??_C@_0BC@DOOGODPH@?$CFs?2rmx_plugins?2?$CFs?$AA@ 0056b450     rmx core:PluginTree.obj
 0003:00002468       ??_C@_03GOOGPOAB@sdk?$AA@  0056b468     rmx core:PluginTree.obj
 0003:0000246c       ??_C@_03LPIGJBNC@lib?$AA@  0056b46c     rmx core:PluginTree.obj
 0003:00002470       ??_C@_0CG@KOCBPNAB@Error?5loading?5plugin?3?5?$CFs?5?9?5Reaso@ 0056b470     rmx core:PluginTree.obj
 0003:000024a0       ??_C@_04NNJGACCK@Scan?$AA@ 0056b4a0     rmx core:PluginTree.obj
 0003:000024ac       ??_7vPluginScanBtn@@6B@    0056b4ac     rmx core:PluginTree.obj
 0003:000024dc       ??_7vPluginScanBtn@@6BrmxString@@@ 0056b4dc     rmx core:PluginTree.obj
 0003:000024e8       ??_7vPluginScanBtn@@6BrmxData@@@ 0056b4e8     rmx core:PluginTree.obj
 0003:00002520       ??_C@_0BF@LEDFJLIM@Scan?5for?5new?5plugins?$AA@ 0056b520     rmx core:PluginTree.obj
 0003:0000253c       ??_C@_04CIMGMMMG@text?$AA@ 0056b53c     rmx core:PluginTree.obj
 0003:00002548       ??_7?$rmxList@PAVvPluginManager@@@@6B@ 0056b548     rmx core:PluginTree.obj
 0003:00002558       ??_C@_07FFLLKOAD@Command?$AA@ 0056b558     rmx core:jsonParser.obj
 0003:00002564       ??_C@_06GFNAEJNG@f_json?$AA@ 0056b564     rmx core:jsonParser.obj
 0003:00002570       ??_7rmxJsonParser@@6B@     0056b570     rmx core:jsonParser.obj
 0003:000025a0       ??_7rmxJsonParser@@6BrmxString@@@ 0056b5a0     rmx core:jsonParser.obj
 0003:000025ac       ??_7rmxJsonParser@@6BrmxData@@@ 0056b5ac     rmx core:jsonParser.obj
 0003:000025ec       ??_C@_0N@LEOIBAAA@JSON?5Command?$AA@ 0056b5ec     rmx core:jsonParser.obj
 0003:000025fc       ??_C@_0BF@CEGPILEE@Syntax?5Error?5?9?5Code?3?$AA@ 0056b5fc     rmx core:jsonParser.obj
 0003:00002618       ??_C@_04OHBKEADA@JSON?$AA@ 0056b618     rmx core:jsonParser.obj
 0003:00002620       ??_C@_0BE@JCINEKNL@Character?5Error?3?5?$CFc?$AA@ 0056b620     rmx core:jsonParser.obj
 0003:00002638       ??_C@_05NNNMIPMB@OTHER?$AA@ 0056b638     rmx core:jsonParser.obj
 0003:00002640       ??_C@_05MAJJAKPI@FALSE?$AA@ 0056b640     rmx core:jsonParser.obj
 0003:00002648       ??_C@_04HCDDPBNL@TRUE?$AA@ 0056b648     rmx core:jsonParser.obj
 0003:00002650       ??_C@_04HIBGFPH@NULL?$AA@  0056b650     rmx core:jsonParser.obj
 0003:00002658       ??_C@_05GGMHDFKJ@FLOAT?$AA@ 0056b658     rmx core:jsonParser.obj
 0003:00002660       ??_C@_03JMHEAPMO@INT?$AA@  0056b660     rmx core:jsonParser.obj
 0003:00002664       ??_C@_01CELHOKLL@?$HN?$AA@ 0056b664     rmx core:jsonParser.obj
 0003:00002668       ??_C@_01HCONENDN@?$HL?$AA@ 0056b668     rmx core:jsonParser.obj
 0003:0000266c       ??_C@_01LBDDMOBJ@?$FN?$AA@ 0056b66c     rmx core:jsonParser.obj
 0003:00002670       ??_C@_01OHGJGJJP@?$FL?$AA@ 0056b670     rmx core:jsonParser.obj
 0003:00002674       ??_C@_07PGLPGHFC@Console?$AA@ 0056b674     rmx core:cbConsole.obj
 0003:00002680       ??_C@_0CB@GFDMJDKB@New?3?5PLUGIN?$DN?$CFp?5?5LIST?$DN?$CFp?5?5NAME?$DN?$CFs@ 0056b680     rmx core:cbConsole.obj
 0003:000026ac       ??_7cbCoreConsole@@6B@     0056b6ac     rmx core:cbConsole.obj
 0003:000026f0       ??_C@_0CE@LCNAIFPG@Delete?3?5PLUGIN?$DN?$CFp?5?5LIST?$DN?$CFp?5?5NAME@ 0056b6f0     rmx core:cbConsole.obj
 0003:0000271c       ??_C@_07PMJAFAE@console?$AA@ 0056b71c     rmx core:cbConsole.obj
 0003:0000272c       ??_7cbRootConsole@@6B@     0056b72c     rmx core:cbConsole.obj
 0003:00002778       ??_7?$rmxList@PAVcbCoreConsole@@@@6B@ 0056b778     rmx core:cbConsole.obj
 0003:0000278c       ??_7cbCoreFunction@@6B@    0056b78c     rmx core:cbFunction.obj
 0003:000027d0       ??_C@_0CB@NKCKBLON@Infinite?5recursive?5loop?5detected@ 0056b7d0     rmx core:cbFunction.obj
 0003:000027f8       ??_C@_04EBPADADD@desc?$AA@ 0056b7f8     rmx core:cbFunction.obj
 0003:00002800       ??_C@_03MFPIGDOF@?5?$DO?5?$AA@ 0056b800     rmx core:cbFunction.obj
 0003:00002804       ??_C@_0P@MPJLIPPA@?$FLDEFAULT?$FN?5?$CI?$CFs?$CJ?$AA@ 0056b804     rmx core:cbFunction.obj
 0003:00002818       ??_C@_09BJMMOPHF@?$FLDEFAULT?$FN?$AA@ 0056b818     rmx core:cbFunction.obj
 0003:00002824       ??_C@_04NPKLNGDP@hint?$AA@ 0056b824     rmx core:cbFunction.obj
 0003:0000282c       ??_C@_0P@CALDMOHL@?$FLUNREGISTERED?$FN?$AA@ 0056b82c     rmx core:cbFunction.obj
 0003:00002840       ??_C@_04DONFEANM@list?$AA@ 0056b840     rmx core:cbFunction.obj
 0003:00002848       ??_C@_06NKHGCJAI@plugin?$AA@ 0056b848     rmx core:cbFunction.obj
 0003:00002854       ??_7?$rmxList@PBD@@6B@     0056b854     rmx core:cbFunction.obj
 0003:00002868       ??_7?$rmxList@PAVcbCoreFunction@@@@6B@ 0056b868     rmx core:cbFunction.obj
 0003:0000287c       ??_7sqlCallback@@6B@       0056b87c     rmx core:sqlCallback.obj
 0003:000028c0       ??_C@_02HJPKOJGD@?8?$CJ?$AA@ 0056b8c0     rmx core:sqlCallback.obj
 0003:000028c4       ??_C@_02OLCMCLAM@?0?8?$AA@ 0056b8c4     rmx core:sqlCallback.obj
 0003:000028c8       ??_C@_01IHBHIGKO@?0?$AA@   0056b8c8     rmx core:sqlCallback.obj
 0003:000028cc       ??_C@_0N@PECJPGJD@?0NULL?0NULL?0?8?$AA@ 0056b8cc     rmx core:sqlCallback.obj
 0003:000028e0       ??_C@_0EP@LLEDCLAB@INSERT?5INTO?5?$FLobjects?$FN?5?$CI?$FLobject_t@ 0056b8e0     rmx core:sqlCallback.obj
 0003:00002940       ??_C@_06EDCLFEAE@?0NULL?$CJ?$AA@ 0056b940     rmx core:sqlCallback.obj
 0003:00002948       ??_C@_05BKOPINHE@NULL?0?$AA@ 0056b948     rmx core:sqlCallback.obj
 0003:00002950       ??_C@_0EK@POPBFBEF@INSERT?5INTO?5?$FLparams?$FN?5?$CI?$FLparam_nam@ 0056b950     rmx core:sqlCallback.obj
 0003:000029a8       ??_C@_0DB@NFOAOJC@UPDATE?5?$FLobjects?$FN?5SET?5?$FLname?$FN?$DN?$DP?5WH@ 0056b9a8     rmx core:sqlCallback.obj
 0003:000029e4       ??_C@_0DG@PKHMMAPE@UPDATE?5?$FLparams?$FN?5SET?5?$FLparam_value@ 0056b9e4     rmx core:sqlCallback.obj
 0003:00002a24       ??_C@_08GIPMHENH@?5LIMIT?51?$AA@ 0056ba24     rmx core:sqlCallback.obj
 0003:00002a30       ??_C@_0M@HALACAHM@?5AND?5name?$DN?$DP?$AA@ 0056ba30     rmx core:sqlCallback.obj
 0003:00002a40       ??_C@_0BA@IMGECGHJ@?5AND?5parent_id?$DN?$AA@ 0056ba40     rmx core:sqlCallback.obj
 0003:00002a54       ??_C@_0BF@PDLPNPLB@?5AND?5root_id?5IS?5NULL?$AA@ 0056ba54     rmx core:sqlCallback.obj
 0003:00002a70       ??_C@_0BH@BNCOBLPG@?5AND?5?$FLobject_type_id?$FN?$DN?$AA@ 0056ba70     rmx core:sqlCallback.obj
 0003:00002a8c       ??_C@_0BC@GFCACNNF@?5AND?5?$FLobject_id?$FN?$DN?$AA@ 0056ba8c     rmx core:sqlCallback.obj
 0003:00002aa8       ??_C@_0IH@JDLGMOGK@SELECT?5?$FLobject_id?$FN?0?5?$FLparam_id?$FN?0?5@ 0056baa8     rmx core:sqlCallback.obj
 0003:00002b4c       ??_C@_09MAPOBAKG@?8?5LIMIT?51?$AA@ 0056bb4c     rmx core:sqlCallback.obj
 0003:00002b58       ??_C@_0BE@JBFKKELI@?5AND?5?$FLparam_name?$FN?$DN?8?$AA@ 0056bb58     rmx core:sqlCallback.obj
 0003:00002b70       ??_C@_0GN@FEFHPACB@SELECT?5?$FLparam_id?$FN?0?5?$FLparam_value?$FN@ 0056bb70     rmx core:sqlCallback.obj
 0003:00002bf4       ??_C@_0DF@MJIPKLKA@SELECT?5?$FLparam_value?$FN?5FROM?5?$FLparam@ 0056bbf4     rmx core:sqlCallback.obj
 0003:00002c38       ??_C@_0IG@EODKNHFA@SELECT?5?$FLparam_id?$FN?0?5?$FLparam_name?$FN?0@ 0056bc38     rmx core:sqlCallback.obj
 0003:00002cdc       ??_7?$rmxList@PAVsqlCallback@@@@6B@ 0056bcdc     rmx core:sqlCallback.obj
 0003:00002cf4       ??_7RmxPlugin@@6B@         0056bcf4     rmx core:RmxPlugin.obj
 0003:00002d80       ??_C@_03OCHKFGFI@dll?$AA@  0056bd80     rmx core:RmxPlugin.obj
 0003:00002d84       ??_C@_0BF@KPMALNBK@Unloading?5Plugin?3?5?$CFs?$AA@ 0056bd84     rmx core:RmxPlugin.obj
 0003:00002da0       ??_C@_0BI@FGNBHFBP@ON?5FIRST?5LOAD?5?9?5SUCCESS?$AA@ 0056bda0     rmx core:RmxPlugin.obj
 0003:00002dbc       ??_C@_03PEIMBJDE@XML?$AA@  0056bdbc     rmx core:RmxPlugin.obj
 0003:00002dc0       ??_C@_0O@NGGDLJII@ON?5FIRST?5LOAD?$AA@ 0056bdc0     rmx core:RmxPlugin.obj
 0003:00002dd4       ??_7vLocalPlugin@@6BcfgRoot@@@ 0056bdd4     rmx core:LocalPlugin.obj
 0003:00002e04       ??_7vLocalPlugin@@6BrmxString@@@ 0056be04     rmx core:LocalPlugin.obj
 0003:00002e10       ??_7vLocalPlugin@@6BrmxData@@@ 0056be10     rmx core:LocalPlugin.obj
 0003:00002e44       ??_7vLocalPlugin@@6BvPlugin@@@ 0056be44     rmx core:LocalPlugin.obj
 0003:00002ed4       ??_7vPlugin@@6B@           0056bed4     rmx core:Plugin.obj
 0003:00002f5c       ??_C@_07KCOHIFOP@WARNING?$AA@ 0056bf5c     rmx core:Plugin.obj
 0003:00002f68       ??_C@_0BN@JJPLHPNA@Undeleted?5List?5Callback?5?3?5?$CFp?$AA@ 0056bf68     rmx core:Plugin.obj
 0003:00002f8c       ??_C@_02LACNDIPD@CB?$AA@   0056bf8c     rmx core:Plugin.obj
 0003:00002f90       ??_C@_0BK@DIDPEGJH@DELETE?3?5?$CFp?5?$CFp?5?$CFp?5?$CFp?5?$CFp?5?$CFp?$AA@ 0056bf90     rmx core:Plugin.obj
 0003:00002fb0       ??_C@_0BH@BEFCHDEP@NEW?3?5?$CFp?5?$CFp?5?$CFp?5?$CFp?5?$CFp?5?$CFp?$AA@ 0056bfb0     rmx core:Plugin.obj
 0003:00002fd0       ??_7?$rmxList@PAVplugCallback@@@@6B@ 0056bfd0     rmx core:Plugin.obj
 0003:00002fe0       ??_C@_0O@PDMPCIFL@Content?9Type?3?$AA@ 0056bfe0     rmx core:file.obj
 0003:00002ff0       ??_C@_0BA@DNNGICBF@HTTP?11?41?5200?5OK?$AA@ 0056bff0     rmx core:file.obj
 0003:00003004       ??_C@_03HMFOOINA@r?$CLb?$AA@ 0056c004     rmx core:file.obj
 0003:00003008       ??_C@_0O@DFKNDJFK@?$CFs?2rmx_web?2?$CFs?$AA@ 0056c008     rmx core:file.obj
 0003:0000301c       ??_7httpFile@@6B@          0056c01c     rmx core:file.obj
 0003:00003034       ??_7IPageGenerator@@6B@    0056c034     rmx core:file.obj
 0003:00003048       ??_C@_0BO@BDECMOMJ@Content?9Type?3application?1json?$AA@ 0056c048     rmx core:api.obj
 0003:0000306c       ??_C@_0BB@DLIKIIIB@?$CCrmx_api?$CC?3?$CC2?40?$CC?$HN?$AA@ 0056c06c     rmx core:api.obj
 0003:00003080       ??_C@_02CEGNPMN@?$CC?0?$AA@ 0056c080     rmx core:api.obj
 0003:00003084       ??_C@_03FKMOGBDA@?$CC?3?$CC?$AA@ 0056c084     rmx core:api.obj
 0003:00003088       ??_C@_01BJJEKLCA@?$CC?$AA@ 0056c088     rmx core:api.obj
 0003:0000308c       ??_C@_05MFEJDJP@value?$AA@ 0056c08c     rmx core:api.obj
 0003:00003094       ??_C@_05IAKJCFIM@style?$AA@ 0056c094     rmx core:api.obj
 0003:0000309c       ??_C@_05JIFABLDP@press?$AA@ 0056c09c     rmx core:api.obj
 0003:000030a4       ??_C@_0L@OCEBJBL@rmx_return?$AA@ 0056c0a4     rmx core:api.obj
 0003:000030b4       ??_C@_09CHCLNJLH@rmx_stack?$AA@ 0056c0b4     rmx core:api.obj
 0003:000030c4       ??_7httpApi@@6BrmxString@@@ 0056c0c4     rmx core:api.obj
 0003:000030d0       ??_7httpApi@@6BIPageGenerator@@@ 0056c0d0     rmx core:api.obj
 0003:000030e4       ??_C@_02KBOGLDNI@?$CC?$HN?$AA@ 0056c0e4     rmx core:apiCore.obj
 0003:000030e8       ??_C@_0BI@OIDAIOAB@?$CCrmx_api?$CC?3?$CC2?40?$CC?0?$CCapi?$CC?3?$CC?$AA@ 0056c0e8     rmx core:apiCore.obj
 0003:00003108       ??_7httpApiCore@@6BrmxString@@@ 0056c108     rmx core:apiCore.obj
 0003:00003114       ??_7httpApiCore@@6BIPageGenerator@@@ 0056c114     rmx core:apiCore.obj
 0003:00003128       ??_C@_02GFKGLGEA@?$HN?0?$AA@ 0056c128     rmx core:apiCore.obj
 0003:0000312c       ??_C@_02JGFLNPEJ@?0?$CC?$AA@ 0056c12c     rmx core:apiCore.obj
 0003:00003130       ??_C@_07FNPBILPH@?$CC?0?$CCid?$CC?3?$AA@ 0056c130     rmx core:apiCore.obj
 0003:0000313c       ??_C@_0M@JHCEAFJI@?$CC?3?$HL?$CCtype?$CC?3?$CC?$AA@ 0056c13c     rmx core:apiCore.obj
 0003:0000314c       ??_C@_06MGPEFMEM@?$CClist_?$AA@ 0056c14c     rmx core:apiCore.obj
 0003:00003158       ??_7httpBase@@6BrmxString@@@ 0056c158     rmx core:base.obj
 0003:00003164       ??_7httpBase@@6BIPageGenerator@@@ 0056c164     rmx core:base.obj
 0003:00003178       ??_C@_03ODAOEF@rwc?$AA@    0056c178     sqlite:sqlite3.obj
 0003:0000317c       ??_C@_02DHLFHFOC@rw?$AA@   0056c17c     sqlite:sqlite3.obj
 0003:00003180       ??_C@_02LFKOONLL@ro?$AA@   0056c180     sqlite:sqlite3.obj
 0003:00003184       ??_C@_07NMPLPEPB@private?$AA@ 0056c184     sqlite:sqlite3.obj
 0003:00003190       ??_C@_06HBFNPGIC@shared?$AA@ 0056c190     sqlite:sqlite3.obj
 0003:00003198       ??_C@_0CH@JKOMOHHH@file?5is?5encrypted?5or?5is?5not?5a?5da@ 0056c198     sqlite:sqlite3.obj
 0003:000031c8       ??_C@_0CC@OHMKLHEA@bind?5or?5column?5index?5out?5of?5rang@ 0056c1c8     sqlite:sqlite3.obj
 0003:000031f0       ??_C@_0CA@DBBJFBEG@auxiliary?5database?5format?5error?$AA@ 0056c1f0     sqlite:sqlite3.obj
 0003:00003218       ??_C@_0BF@LMCDAPDN@authorization?5denied?$AA@ 0056c218     sqlite:sqlite3.obj
 0003:00003234       ??_C@_0BP@GMDPJID@large?5file?5support?5is?5disabled?$AA@ 0056c234     sqlite:sqlite3.obj
 0003:0000325c       ??_C@_0CH@GCDGLLPA@library?5routine?5called?5out?5of?5se@ 0056c25c     sqlite:sqlite3.obj
 0003:0000328c       ??_C@_0BC@FILINGOB@datatype?5mismatch?$AA@ 0056c28c     sqlite:sqlite3.obj
 0003:000032a4       ??_C@_0BC@IFKPGMGK@constraint?5failed?$AA@ 0056c2a4     sqlite:sqlite3.obj
 0003:000032bc       ??_C@_0BH@BEFJIDGM@string?5or?5blob?5too?5big?$AA@ 0056c2bc     sqlite:sqlite3.obj
 0003:000032d8       ??_C@_0BM@FKBOKANJ@database?5schema?5has?5changed?$AA@ 0056c2d8     sqlite:sqlite3.obj
 0003:000032fc       ??_C@_0BH@OCNELEJF@table?5contains?5no?5data?$AA@ 0056c2fc     sqlite:sqlite3.obj
 0003:00003318       ??_C@_0BB@MCPOJJBB@locking?5protocol?$AA@ 0056c318     sqlite:sqlite3.obj
 0003:0000332c       ??_C@_0BN@JLONMGIA@unable?5to?5open?5database?5file?$AA@ 0056c32c     sqlite:sqlite3.obj
 0003:00003350       ??_C@_0BJ@GDNBBAEL@database?5or?5disk?5is?5full?$AA@ 0056c350     sqlite:sqlite3.obj
 0003:00003370       ??_C@_0BC@BDMDPLFD@unknown?5operation?$AA@ 0056c370     sqlite:sqlite3.obj
 0003:00003388       ??_C@_0CB@ONDDCPGK@database?5disk?5image?5is?5malformed@ 0056c388     sqlite:sqlite3.obj
 0003:000033b0       ??_C@_0P@FOPPKBJH@disk?5I?1O?5error?$AA@ 0056c3b0     sqlite:sqlite3.obj
 0003:000033c4       ??_C@_0M@EGEKIIMP@interrupted?$AA@ 0056c3c4     sqlite:sqlite3.obj
 0003:000033d4       ??_C@_0CF@JBLJEMGC@attempt?5to?5write?5a?5readonly?5data@ 0056c3d4     sqlite:sqlite3.obj
 0003:00003400       ??_C@_0O@BNNCBLEN@out?5of?5memory?$AA@ 0056c400     sqlite:sqlite3.obj
 0003:00003410       ??_C@_0BJ@DNPONIEG@database?5table?5is?5locked?$AA@ 0056c410     sqlite:sqlite3.obj
 0003:00003430       ??_C@_0BD@DAAAMHOI@database?5is?5locked?$AA@ 0056c430     sqlite:sqlite3.obj
 0003:00003448       ??_C@_0BP@BFMDEDKN@callback?5requested?5query?5abort?$AA@ 0056c448     sqlite:sqlite3.obj
 0003:00003470       ??_C@_0BJ@OFHFLJKH@access?5permission?5denied?$AA@ 0056c470     sqlite:sqlite3.obj
 0003:00003490       ??_C@_0CE@BCMAPMOL@SQL?5logic?5error?5or?5missing?5datab@ 0056c490     sqlite:sqlite3.obj
 0003:000034bc       ??_C@_0N@FKKFHCIB@not?5an?5error?$AA@ 0056c4bc     sqlite:sqlite3.obj
 0003:000034cc       ??_C@_06EENFNEPD@detail?$AA@ 0056c4cc     sqlite:sqlite3.obj
 0003:000034d4       ??_C@_04HNEBHLOP@from?$AA@ 0056c4d4     sqlite:sqlite3.obj
 0003:000034dc       ??_C@_05NDNMCCJH@order?$AA@ 0056c4dc     sqlite:sqlite3.obj
 0003:000034e4       ??_C@_08CAKEGGLM@selectid?$AA@ 0056c4e4     sqlite:sqlite3.obj
 0003:000034f0       ??_C@_07GJGNEJFD@comment?$AA@ 0056c4f0     sqlite:sqlite3.obj
 0003:000034fc       ??_C@_02PGHOIMAL@p5?$AA@   0056c4fc     sqlite:sqlite3.obj
 0003:00003500       ??_C@_02OPGFLNEK@p4?$AA@   0056c500     sqlite:sqlite3.obj
 0003:00003504       ??_C@_02KACECLIN@p3?$AA@   0056c504     sqlite:sqlite3.obj
 0003:00003508       ??_C@_02LJDPBKMM@p2?$AA@   0056c508     sqlite:sqlite3.obj
 0003:0000350c       ??_C@_02JCBCEJAP@p1?$AA@   0056c50c     sqlite:sqlite3.obj
 0003:00003510       ??_C@_06POMMAHJK@opcode?$AA@ 0056c510     sqlite:sqlite3.obj
 0003:00003518       ??_C@_04HLBMEOMD@addr?$AA@ 0056c518     sqlite:sqlite3.obj
 0003:00003520       ??_C@_05MNCHLHCA@UTF16?$AA@ 0056c520     sqlite:sqlite3.obj
 0003:00003528       ??_C@_06KNDPGIKI@UTF?916?$AA@ 0056c528     sqlite:sqlite3.obj
 0003:00003530       ??_C@_07JDFIEPAG@UTF16be?$AA@ 0056c530     sqlite:sqlite3.obj
 0003:0000353c       ??_C@_07JJMGGCAM@UTF16le?$AA@ 0056c53c     sqlite:sqlite3.obj
 0003:00003548       ??_C@_08HGGOPCBI@UTF?916be?$AA@ 0056c548     sqlite:sqlite3.obj
 0003:00003554       ??_C@_08HMPANPBC@UTF?916le?$AA@ 0056c554     sqlite:sqlite3.obj
 0003:00003560       ??_C@_05EGJIMALK@UTF?98?$AA@ 0056c560     sqlite:sqlite3.obj
 0003:00003568       ??_C@_04OOMJJNCF@UTF8?$AA@ 0056c568     sqlite:sqlite3.obj
 0003:00003570       ??_C@_03KIAODNHK@wal?$AA@  0056c570     sqlite:sqlite3.obj
 0003:00003574       ??_C@_06HLKELJGF@memory?$AA@ 0056c574     sqlite:sqlite3.obj
 0003:0000357c       ??_C@_08MABILMFG@truncate?$AA@ 0056c57c     sqlite:sqlite3.obj
 0003:00003588       ??_C@_03MCADLMAF@off?$AA@  0056c588     sqlite:sqlite3.obj
 0003:0000358c       ??_C@_07EMFBDGOD@persist?$AA@ 0056c58c     sqlite:sqlite3.obj
 0003:00003598       ??_C@_06FOBLBEIN@delete?$AA@ 0056c598     sqlite:sqlite3.obj
 0003:000035a0       ??_C@_0BD@IAMNLMFM@recursive_triggers?$AA@ 0056c5a0     sqlite:sqlite3.obj
 0003:000035b8       ??_C@_0BB@KLHJNGLH@read_uncommitted?$AA@ 0056c5b8     sqlite:sqlite3.obj
 0003:000035cc       ??_C@_0O@FCIFIHH@omit_readlock?$AA@ 0056c5cc     sqlite:sqlite3.obj
 0003:000035dc       ??_C@_0BA@OHBCLCAL@writable_schema?$AA@ 0056c5dc     sqlite:sqlite3.obj
 0003:000035f0       ??_C@_0BJ@KLIMENGM@ignore_check_constraints?$AA@ 0056c5f0     sqlite:sqlite3.obj
 0003:00003610       ??_C@_0BA@NMINPKHE@automatic_index?$AA@ 0056c610     sqlite:sqlite3.obj
 0003:00003624       ??_C@_0BK@ECMFJINF@reverse_unordered_selects?$AA@ 0056c624     sqlite:sqlite3.obj
 0003:00003644       ??_C@_0BF@IOJNJBPA@checkpoint_fullfsync?$AA@ 0056c644     sqlite:sqlite3.obj
 0003:00003660       ??_C@_09MLJLLBEB@fullfsync?$AA@ 0056c660     sqlite:sqlite3.obj
 0003:0000366c       ??_C@_0BD@LEFOEGBK@legacy_file_format?$AA@ 0056c66c     sqlite:sqlite3.obj
 0003:00003684       ??_C@_0BH@CMLDBHJP@empty_result_callbacks?$AA@ 0056c684     sqlite:sqlite3.obj
 0003:000036a0       ??_C@_0O@PEBBJPHD@count_changes?$AA@ 0056c6a0     sqlite:sqlite3.obj
 0003:000036b0       ??_C@_0BD@BFIEDLEP@short_column_names?$AA@ 0056c6b0     sqlite:sqlite3.obj
 0003:000036c8       ??_C@_0BC@CBBNFKC@full_column_names?$AA@ 0056c6c8     sqlite:sqlite3.obj
 0003:000036e0       ??_C@_04HPDJJBAE@like?$AA@ 0056c6e0     sqlite:sqlite3.obj
 0003:000036e8       ??_C@_04HHHPGODM@glob?$AA@ 0056c6e8     sqlite:sqlite3.obj
 0003:000036f0       ??_C@_0N@KKLIBDFO@group_concat?$AA@ 0056c6f0     sqlite:sqlite3.obj
 0003:00003700       ??_C@_05IOMEMJEC@count?$AA@ 0056c700     sqlite:sqlite3.obj
 0003:00003708       ??_C@_03CHOBFJAH@avg?$AA@  0056c708     sqlite:sqlite3.obj
 0003:0000370c       ??_C@_05KBOMEDGA@total?$AA@ 0056c70c     sqlite:sqlite3.obj
 0003:00003714       ??_C@_03CFFIJAMA@sum?$AA@  0056c714     sqlite:sqlite3.obj
 0003:00003718       ??_C@_0P@BJKPICNH@load_extension?$AA@ 0056c718     sqlite:sqlite3.obj
 0003:0000372c       ??_C@_08OAGHJJOG@zeroblob?$AA@ 0056c72c     sqlite:sqlite3.obj
 0003:00003738       ??_C@_07CLEHDIEJ@replace?$AA@ 0056c738     sqlite:sqlite3.obj
 0003:00003744       ??_C@_0O@MLEKHAGK@total_changes?$AA@ 0056c744     sqlite:sqlite3.obj
 0003:00003754       ??_C@_07HFLFHMNL@changes?$AA@ 0056c754     sqlite:sqlite3.obj
 0003:00003760       ??_C@_0BC@EKKKCJJE@last_insert_rowid?$AA@ 0056c760     sqlite:sqlite3.obj
 0003:00003778       ??_C@_05JHEGFHLM@quote?$AA@ 0056c778     sqlite:sqlite3.obj
 0003:00003780       ??_C@_0BJ@BHKPGCCL@sqlite_compileoption_get?$AA@ 0056c780     sqlite:sqlite3.obj
 0003:000037a0       ??_C@_0BK@NPIMPNGH@sqlite_compileoption_used?$AA@ 0056c7a0     sqlite:sqlite3.obj
 0003:000037c0       ??_C@_0L@HNFKFGGK@sqlite_log?$AA@ 0056c7c0     sqlite:sqlite3.obj
 0003:000037d0       ??_C@_0BB@HPCCOLJC@sqlite_source_id?$AA@ 0056c7d0     sqlite:sqlite3.obj
 0003:000037e4       ??_C@_0P@IPDPEBN@sqlite_version?$AA@ 0056c7e4     sqlite:sqlite3.obj
 0003:000037f8       ??_C@_06LLGGGFDC@nullif?$AA@ 0056c7f8     sqlite:sqlite3.obj
 0003:00003800       ??_C@_0L@IDMFPHDO@randomblob?$AA@ 0056c800     sqlite:sqlite3.obj
 0003:00003810       ??_C@_06NLFCANPD@random?$AA@ 0056c810     sqlite:sqlite3.obj
 0003:00003818       ??_C@_06FAHGEKJN@ifnull?$AA@ 0056c818     sqlite:sqlite3.obj
 0003:00003820       ??_C@_03IJNDAFDK@hex?$AA@  0056c820     sqlite:sqlite3.obj
 0003:00003824       ??_C@_08FNGHHBID@coalesce?$AA@ 0056c824     sqlite:sqlite3.obj
 0003:00003830       ??_C@_05IPJEPLHL@lower?$AA@ 0056c830     sqlite:sqlite3.obj
 0003:00003838       ??_C@_05NECKJAMC@upper?$AA@ 0056c838     sqlite:sqlite3.obj
 0003:00003840       ??_C@_05MIMAKCN@round?$AA@ 0056c840     sqlite:sqlite3.obj
 0003:00003848       ??_C@_03BCGAIFPO@abs?$AA@  0056c848     sqlite:sqlite3.obj
 0003:0000384c       ??_C@_06DAHFIGOC@substr?$AA@ 0056c84c     sqlite:sqlite3.obj
 0003:00003854       ??_C@_06IJDLPEM@length?$AA@ 0056c854     sqlite:sqlite3.obj
 0003:0000385c       ??_C@_06NDJPCPHC@typeof?$AA@ 0056c85c     sqlite:sqlite3.obj
 0003:00003864       ??_C@_03LJAEFNNE@max?$AA@  0056c864     sqlite:sqlite3.obj
 0003:00003868       ??_C@_03KLIPLJLL@min?$AA@  0056c868     sqlite:sqlite3.obj
 0003:0000386c       ??_C@_04GDOMMDLP@trim?$AA@ 0056c86c     sqlite:sqlite3.obj
 0003:00003874       ??_C@_05FCOGDJML@rtrim?$AA@ 0056c874     sqlite:sqlite3.obj
 0003:0000387c       ??_C@_05GLDKFKCA@ltrim?$AA@ 0056c87c     sqlite:sqlite3.obj
 0003:00003884       ??_C@_01CLKCMJKC@?5?$AA@   0056c884     sqlite:sqlite3.obj
 0003:00003888       ??_C@_08COBEBGNM@ROLLBACK?$AA@ 0056c888     sqlite:sqlite3.obj
 0003:00003894       ??_C@_07LDDIIHCM@RELEASE?$AA@ 0056c894     sqlite:sqlite3.obj
 0003:000038a0       ??_C@_05ILMMJGEC@BEGIN?$AA@ 0056c8a0     sqlite:sqlite3.obj
 0003:000038a8       ??_C@_05IKBMIIDA@?5REAL?$AA@ 0056c8a8     sqlite:sqlite3.obj
 0003:000038b0       ??_C@_04LKNDAIML@?5INT?$AA@ 0056c8b0     sqlite:sqlite3.obj
 0003:000038b8       ??_C@_04KMHHNFPL@?5NUM?$AA@ 0056c8b8     sqlite:sqlite3.obj
 0003:000038c0       ??_C@_05JELAHNDG@?5TEXT?$AA@ 0056c8c0     sqlite:sqlite3.obj
 0003:000038c8       ??_C@_0O@GJLGHGMJ@sqlite_attach?$AA@ 0056c8c8     sqlite:sqlite3.obj
 0003:000038d8       ??_C@_0O@PDAEIIFA@sqlite_detach?$AA@ 0056c8d8     sqlite:sqlite3.obj
 0003:000038e8       ??_C@_0N@BCOBMINH@tbl?0idx?0stat?$AA@ 0056c8e8     sqlite:sqlite3.obj
 0003:000038f8       ??_C@_0N@EIGEIEIJ@sqlite_stat1?$AA@ 0056c8f8     sqlite:sqlite3.obj
 0003:00003908       ??_C@_0BF@CIKMGNA@sqlite_rename_parent?$AA@ 0056c908     sqlite:sqlite3.obj
 0003:00003924       ??_C@_0BG@DKJJOMDK@sqlite_rename_trigger?$AA@ 0056c924     sqlite:sqlite3.obj
 0003:00003940       ??_C@_0BE@JHJAJICL@sqlite_rename_table?$AA@ 0056c940     sqlite:sqlite3.obj
 0003:00003958       ??_C@_05NMJMPJJB@win32?$AA@ 0056c958     sqlite:sqlite3.obj
 0003:00003960       ??_C@_07EMCFMDDO@Explain?$AA@ 0056c960     sqlite:sqlite3.obj
 0003:0000396c       ??_C@_04NBOPPMHE@Noop?$AA@ 0056c96c     sqlite:sqlite3.obj
 0003:00003974       ??_C@_05ILLBNNOP@Trace?$AA@ 0056c974     sqlite:sqlite3.obj
 0003:0000397c       ??_C@_08PCPIJAPH@MaxPgcnt?$AA@ 0056c97c     sqlite:sqlite3.obj
 0003:00003988       ??_C@_09CNCANJNI@Pagecount?$AA@ 0056c988     sqlite:sqlite3.obj
 0003:00003994       ??_C@_06ICNNEOIM@ToReal?$AA@ 0056c994     sqlite:sqlite3.obj
 0003:0000399c       ??_C@_05CNEGLJEO@ToInt?$AA@ 0056c99c     sqlite:sqlite3.obj
 0003:000039a4       ??_C@_09IAEPJEPI@ToNumeric?$AA@ 0056c9a4     sqlite:sqlite3.obj
 0003:000039b0       ??_C@_06LCIJGAA@ToBlob?$AA@ 0056c9b0     sqlite:sqlite3.obj
 0003:000039b8       ??_C@_06JMHBLLIK@ToText?$AA@ 0056c9b8     sqlite:sqlite3.obj
 0003:000039c0       ??_C@_07NHABAPID@VUpdate?$AA@ 0056c9c0     sqlite:sqlite3.obj
 0003:000039cc       ??_C@_07BIPKCCHL@VRename?$AA@ 0056c9cc     sqlite:sqlite3.obj
 0003:000039d8       ??_C@_05GOGANBLF@VNext?$AA@ 0056c9d8     sqlite:sqlite3.obj
 0003:000039e0       ??_C@_07DOIHNMAE@VColumn?$AA@ 0056c9e0     sqlite:sqlite3.obj
 0003:000039ec       ??_C@_07OKDOHLDO@VFilter?$AA@ 0056c9ec     sqlite:sqlite3.obj
 0003:000039f8       ??_C@_05JABEJFFA@VOpen?$AA@ 0056c9f8     sqlite:sqlite3.obj
 0003:00003a00       ??_C@_08JBEDGDCN@VDestroy?$AA@ 0056ca00     sqlite:sqlite3.obj
 0003:00003a0c       ??_C@_07KDKHCOMM@VCreate?$AA@ 0056ca0c     sqlite:sqlite3.obj
 0003:00003a18       ??_C@_06CLFNNGGK@VBegin?$AA@ 0056ca18     sqlite:sqlite3.obj
 0003:00003a20       ??_C@_09FDKNKOOK@TableLock?$AA@ 0056ca20     sqlite:sqlite3.obj
 0003:00003a2c       ??_C@_04PHKLBGME@Real?$AA@ 0056ca2c     sqlite:sqlite3.obj
 0003:00003a34       ??_C@_06GDNCIOGJ@Expire?$AA@ 0056ca34     sqlite:sqlite3.obj
 0003:00003a3c       ??_C@_0L@POHPJECG@IncrVacuum?$AA@ 0056ca3c     sqlite:sqlite3.obj
 0003:00003a4c       ??_C@_06OBCEMCJB@Vacuum?$AA@ 0056ca4c     sqlite:sqlite3.obj
 0003:00003a54       ??_C@_0M@FAIDBMDK@JournalMode?$AA@ 0056ca54     sqlite:sqlite3.obj
 0003:00003a64       ??_C@_0L@IHLHABNJ@Checkpoint?$AA@ 0056ca64     sqlite:sqlite3.obj
 0003:00003a74       ??_C@_08FCKHNOBN@AggFinal?$AA@ 0056ca74     sqlite:sqlite3.obj
 0003:00003a80       ??_C@_07NOMHFNIB@AggStep?$AA@ 0056ca80     sqlite:sqlite3.obj
 0003:00003a8c       ??_C@_06KGOGOHGB@IfZero?$AA@ 0056ca8c     sqlite:sqlite3.obj
 0003:00003a94       ??_C@_05GPHDFMLA@IfNeg?$AA@ 0056ca94     sqlite:sqlite3.obj
 0003:00003a9c       ??_C@_05PMIMCOJP@IfPos?$AA@ 0056ca9c     sqlite:sqlite3.obj
 0003:00003aa4       ??_C@_06LJFJMLCE@MemMax?$AA@ 0056caa4     sqlite:sqlite3.obj
 0003:00003aac       ??_C@_08PNIKOKNB@FkIfZero?$AA@ 0056caac     sqlite:sqlite3.obj
 0003:00003ab8       ??_C@_09EBKOHGDP@FkCounter?$AA@ 0056cab8     sqlite:sqlite3.obj
 0003:00003ac4       ??_C@_05LOJBNELM@Param?$AA@ 0056cac4     sqlite:sqlite3.obj
 0003:00003acc       ??_C@_07DOMMNIGK@Program?$AA@ 0056cacc     sqlite:sqlite3.obj
 0003:00003ad8       ??_C@_0L@EOJPAHGG@RowSetTest?$AA@ 0056cad8     sqlite:sqlite3.obj
 0003:00003ae8       ??_C@_0L@JELPJHIJ@RowSetRead?$AA@ 0056cae8     sqlite:sqlite3.obj
 0003:00003af8       ??_C@_09KPGKMOML@RowSetAdd?$AA@ 0056caf8     sqlite:sqlite3.obj
 0003:00003b04       ??_C@_0M@KCIGPGBI@IntegrityCk?$AA@ 0056cb04     sqlite:sqlite3.obj
 0003:00003b14       ??_C@_0M@JKNINGPB@DropTrigger?$AA@ 0056cb14     sqlite:sqlite3.obj
 0003:00003b24       ??_C@_09KDDJLBNF@DropIndex?$AA@ 0056cb24     sqlite:sqlite3.obj
 0003:00003b30       ??_C@_09ELPHDPAO@DropTable?$AA@ 0056cb30     sqlite:sqlite3.obj
 0003:00003b3c       ??_C@_0N@FEAPPFEN@LoadAnalysis?$AA@ 0056cb3c     sqlite:sqlite3.obj
 0003:00003b4c       ??_C@_0M@IPJMJJPI@ParseSchema?$AA@ 0056cb4c     sqlite:sqlite3.obj
 0003:00003b5c       ??_C@_0M@BDPOJHGL@CreateTable?$AA@ 0056cb5c     sqlite:sqlite3.obj
 0003:00003b6c       ??_C@_0M@PLDABJLA@CreateIndex?$AA@ 0056cb6c     sqlite:sqlite3.obj
 0003:00003b7c       ??_C@_05MDNHABIA@Clear?$AA@ 0056cb7c     sqlite:sqlite3.obj
 0003:00003b84       ??_C@_07BDCAJABG@Destroy?$AA@ 0056cb84     sqlite:sqlite3.obj
 0003:00003b90       ??_C@_05FMIIHMAD@IdxGE?$AA@ 0056cb90     sqlite:sqlite3.obj
 0003:00003b98       ??_C@_05DAELAPC@IdxLT?$AA@ 0056cb98     sqlite:sqlite3.obj
 0003:00003ba0       ??_C@_08KLKOBEJ@IdxRowid?$AA@ 0056cba0     sqlite:sqlite3.obj
 0003:00003bac       ??_C@_09PDNFOMPO@IdxDelete?$AA@ 0056cbac     sqlite:sqlite3.obj
 0003:00003bb8       ??_C@_09ENCBCCAM@IdxInsert?$AA@ 0056cbb8     sqlite:sqlite3.obj
 0003:00003bc4       ??_C@_0N@PCKBEOAP@SorterInsert?$AA@ 0056cbc4     sqlite:sqlite3.obj
 0003:00003bd4       ??_C@_04MDFHGMOB@Next?$AA@ 0056cbd4     sqlite:sqlite3.obj
 0003:00003bdc       ??_C@_07KGFHIBD@String8?$AA@ 0056cbdc     sqlite:sqlite3.obj
 0003:00003be8       ??_C@_06OBLNEDKN@BitNot?$AA@ 0056cbe8     sqlite:sqlite3.obj
 0003:00003bf0       ??_C@_04PHIBHIIF@Prev?$AA@ 0056cbf0     sqlite:sqlite3.obj
 0003:00003bf8       ??_C@_06ODAFHOMO@Concat?$AA@ 0056cbf8     sqlite:sqlite3.obj
 0003:00003c00       ??_C@_09DPOHBCHJ@Remainder?$AA@ 0056cc00     sqlite:sqlite3.obj
 0003:00003c0c       ??_C@_06JKMEHOIB@Divide?$AA@ 0056cc0c     sqlite:sqlite3.obj
 0003:00003c14       ??_C@_08EOBDLMOI@Multiply?$AA@ 0056cc14     sqlite:sqlite3.obj
 0003:00003c20       ??_C@_08DLEJPBEP@Subtract?$AA@ 0056cc20     sqlite:sqlite3.obj
 0003:00003c2c       ??_C@_03LDFMNCOE@Add?$AA@  0056cc2c     sqlite:sqlite3.obj
 0003:00003c30       ??_C@_0L@DHHFIOFJ@ShiftRight?$AA@ 0056cc30     sqlite:sqlite3.obj
 0003:00003c40       ??_C@_09IIGOLNPP@ShiftLeft?$AA@ 0056cc40     sqlite:sqlite3.obj
 0003:00003c4c       ??_C@_05BKBNAGEF@BitOr?$AA@ 0056cc4c     sqlite:sqlite3.obj
 0003:00003c54       ??_C@_06PCNOCLJN@BitAnd?$AA@ 0056cc54     sqlite:sqlite3.obj
 0003:00003c5c       ??_C@_0L@MGGJHFHJ@SorterNext?$AA@ 0056cc5c     sqlite:sqlite3.obj
 0003:00003c6c       ??_C@_02GNOBCCEK@Ge?$AA@   0056cc6c     sqlite:sqlite3.obj
 0003:00003c70       ??_C@_02DCGNOOLL@Lt?$AA@   0056cc70     sqlite:sqlite3.obj
 0003:00003c74       ??_C@_02GBLEMNKL@Le?$AA@   0056cc74     sqlite:sqlite3.obj
 0003:00003c78       ??_C@_02DODIABFK@Gt?$AA@   0056cc78     sqlite:sqlite3.obj
 0003:00003c7c       ??_C@_02EAMLCBHB@Eq?$AA@   0056cc7c     sqlite:sqlite3.obj
 0003:00003c80       ??_C@_02GCDABJMF@Ne?$AA@   0056cc80     sqlite:sqlite3.obj
 0003:00003c84       ??_C@_07HICACDPL@NotNull?$AA@ 0056cc84     sqlite:sqlite3.obj
 0003:00003c90       ??_C@_06NBBMPCN@IsNull?$AA@ 0056cc90     sqlite:sqlite3.obj
 0003:00003c98       ??_C@_06MAOEIKCJ@Rewind?$AA@ 0056cc98     sqlite:sqlite3.obj
 0003:00003ca0       ??_C@_04DJANFKGA@Sort?$AA@ 0056cca0     sqlite:sqlite3.obj
 0003:00003ca8       ??_C@_0L@DMDDEDPI@SorterSort?$AA@ 0056cca8     sqlite:sqlite3.obj
 0003:00003cb8       ??_C@_03LOMLFHDC@And?$AA@  0056ccb8     sqlite:sqlite3.obj
 0003:00003cbc       ??_C@_02GGHBPHGE@Or?$AA@   0056ccbc     sqlite:sqlite3.obj
 0003:00003cc0       ??_C@_04DKKAEHDH@Last?$AA@ 0056ccc0     sqlite:sqlite3.obj
 0003:00003cc8       ??_C@_07HJJPPOKN@NullRow?$AA@ 0056ccc8     sqlite:sqlite3.obj
 0003:00003cd4       ??_C@_05KEGGNBBF@Rowid?$AA@ 0056ccd4     sqlite:sqlite3.obj
 0003:00003cdc       ??_C@_07OHPACBNN@RowData?$AA@ 0056ccdc     sqlite:sqlite3.obj
 0003:00003ce8       ??_C@_06JIHNENAH@RowKey?$AA@ 0056cce8     sqlite:sqlite3.obj
 0003:00003cf0       ??_C@_0L@DNBEOFPP@SorterData?$AA@ 0056ccf0     sqlite:sqlite3.obj
 0003:00003d00       ??_C@_0O@GIINMLJL@SorterCompare?$AA@ 0056cd00     sqlite:sqlite3.obj
 0003:00003d10       ??_C@_0L@NDDNCBN@ResetCount?$AA@ 0056cd10     sqlite:sqlite3.obj
 0003:00003d20       ??_C@_06JBKGCNBB@Delete?$AA@ 0056cd20     sqlite:sqlite3.obj
 0003:00003d28       ??_C@_09LEJELDEO@InsertInt?$AA@ 0056cd28     sqlite:sqlite3.obj
 0003:00003d34       ??_C@_06CPFCODOD@Insert?$AA@ 0056cd34     sqlite:sqlite3.obj
 0003:00003d3c       ??_C@_08FEDJPMPH@NewRowid?$AA@ 0056cd3c     sqlite:sqlite3.obj
 0003:00003d48       ??_C@_08DOCONEG@Sequence?$AA@ 0056cd48     sqlite:sqlite3.obj
 0003:00003d54       ??_C@_09HMMGFEAA@NotExists?$AA@ 0056cd54     sqlite:sqlite3.obj
 0003:00003d60       ??_C@_08HBKIHNI@IsUnique?$AA@ 0056cd60     sqlite:sqlite3.obj
 0003:00003d6c       ??_C@_05JDGHEPJG@Found?$AA@ 0056cd6c     sqlite:sqlite3.obj
 0003:00003d74       ??_C@_08MDBAGECB@NotFound?$AA@ 0056cd74     sqlite:sqlite3.obj
 0003:00003d80       ??_C@_04ICIDABGP@Seek?$AA@ 0056cd80     sqlite:sqlite3.obj
 0003:00003d88       ??_C@_06KLOEOCMK@SeekGt?$AA@ 0056cd88     sqlite:sqlite3.obj
 0003:00003d90       ??_C@_06PIDNMBNK@SeekGe?$AA@ 0056cd90     sqlite:sqlite3.obj
 0003:00003d98       ??_C@_06PEGICODL@SeekLe?$AA@ 0056cd98     sqlite:sqlite3.obj
 0003:00003da0       ??_C@_06KHLBANCL@SeekLt?$AA@ 0056cda0     sqlite:sqlite3.obj
 0003:00003da8       ??_C@_05LGELBCGM@Close?$AA@ 0056cda8     sqlite:sqlite3.obj
 0003:00003db0       ??_C@_0L@PKPPHKBP@OpenPseudo?$AA@ 0056cdb0     sqlite:sqlite3.obj
 0003:00003dc0       ??_C@_0L@DIBNDBJM@SorterOpen?$AA@ 0056cdc0     sqlite:sqlite3.obj
 0003:00003dd0       ??_C@_0O@MHKNMBPC@OpenEphemeral?$AA@ 0056cdd0     sqlite:sqlite3.obj
 0003:00003de0       ??_C@_0O@LLCBFLCA@OpenAutoindex?$AA@ 0056cde0     sqlite:sqlite3.obj
 0003:00003df0       ??_C@_09FPCAPNBB@OpenWrite?$AA@ 0056cdf0     sqlite:sqlite3.obj
 0003:00003dfc       ??_C@_08FJFCCPFB@OpenRead?$AA@ 0056cdfc     sqlite:sqlite3.obj
 0003:00003e08       ??_C@_0N@NKEHNBGM@VerifyCookie?$AA@ 0056ce08     sqlite:sqlite3.obj
 0003:00003e18       ??_C@_09FEDANMPL@SetCookie?$AA@ 0056ce18     sqlite:sqlite3.obj
 0003:00003e24       ??_C@_0L@LIFFPDNM@ReadCookie?$AA@ 0056ce24     sqlite:sqlite3.obj
 0003:00003e34       ??_C@_0M@MEGKBOMN@Transaction?$AA@ 0056ce34     sqlite:sqlite3.obj
 0003:00003e44       ??_C@_0L@BPKAOEDK@AutoCommit?$AA@ 0056ce44     sqlite:sqlite3.obj
 0003:00003e54       ??_C@_09OJILMLHM@Savepoint?$AA@ 0056ce54     sqlite:sqlite3.obj
 0003:00003e60       ??_C@_05IJGIMMHE@Count?$AA@ 0056ce60     sqlite:sqlite3.obj
 0003:00003e68       ??_C@_0L@PGPMFKDB@MakeRecord?$AA@ 0056ce68     sqlite:sqlite3.obj
 0003:00003e78       ??_C@_08MMCPABPC@Affinity?$AA@ 0056ce78     sqlite:sqlite3.obj
 0003:00003e84       ??_C@_06FFIACGFC@Column?$AA@ 0056ce84     sqlite:sqlite3.obj
 0003:00003e8c       ??_C@_05DALJIPE@IfNot?$AA@ 0056ce8c     sqlite:sqlite3.obj
 0003:00003e94       ??_C@_02EMFCFMID@If?$AA@   0056ce94     sqlite:sqlite3.obj
 0003:00003e98       ??_C@_04GKJMKNNB@Once?$AA@ 0056ce98     sqlite:sqlite3.obj
 0003:00003ea0       ??_C@_04BIEPDJCB@Jump?$AA@ 0056cea0     sqlite:sqlite3.obj
 0003:00003ea8       ??_C@_07MBOMJGGF@Compare?$AA@ 0056cea8     sqlite:sqlite3.obj
 0003:00003eb4       ??_C@_0M@LPEOJDB@Permutation?$AA@ 0056ceb4     sqlite:sqlite3.obj
 0003:00003ec4       ??_C@_0N@KGPEGHPK@RealAffinity?$AA@ 0056cec4     sqlite:sqlite3.obj
 0003:00003ed4       ??_C@_09LLJOBHN@MustBeInt?$AA@ 0056ced4     sqlite:sqlite3.obj
 0003:00003ee0       ??_C@_06JHIJIKD@AddImm?$AA@ 0056cee0     sqlite:sqlite3.obj
 0003:00003ee8       ??_C@_03KNKIDPAC@Not?$AA@  0056cee8     sqlite:sqlite3.obj
 0003:00003eec       ??_C@_08PHKOHANG@Function?$AA@ 0056ceec     sqlite:sqlite3.obj
 0003:00003ef8       ??_C@_07MCEFGNMJ@CollSeq?$AA@ 0056cef8     sqlite:sqlite3.obj
 0003:00003f04       ??_C@_09BKHKEBMD@ResultRow?$AA@ 0056cf04     sqlite:sqlite3.obj
 0003:00003f10       ??_C@_05BCDNELCG@SCopy?$AA@ 0056cf10     sqlite:sqlite3.obj
 0003:00003f18       ??_C@_04OPMHGHMB@Copy?$AA@ 0056cf18     sqlite:sqlite3.obj
 0003:00003f20       ??_C@_04LCANPIEP@Move?$AA@ 0056cf20     sqlite:sqlite3.obj
 0003:00003f28       ??_C@_08DMMJCAML@Variable?$AA@ 0056cf28     sqlite:sqlite3.obj
 0003:00003f34       ??_C@_04HOFOMOEI@Blob?$AA@ 0056cf34     sqlite:sqlite3.obj
 0003:00003f3c       ??_C@_04KHKKIIL@Null?$AA@  0056cf3c     sqlite:sqlite3.obj
 0003:00003f44       ??_C@_06ENNEIMBA@String?$AA@ 0056cf44     sqlite:sqlite3.obj
 0003:00003f4c       ??_C@_05DPPJJBMK@Int64?$AA@ 0056cf4c     sqlite:sqlite3.obj
 0003:00003f54       ??_C@_07EDADKEAH@Integer?$AA@ 0056cf54     sqlite:sqlite3.obj
 0003:00003f60       ??_C@_04NIFKAFLK@Halt?$AA@ 0056cf60     sqlite:sqlite3.obj
 0003:00003f68       ??_C@_0L@GIACEIKJ@HaltIfNull?$AA@ 0056cf68     sqlite:sqlite3.obj
 0003:00003f78       ??_C@_05LNDKIJIJ@Yield?$AA@ 0056cf78     sqlite:sqlite3.obj
 0003:00003f80       ??_C@_06HCFIKKEA@Return?$AA@ 0056cf80     sqlite:sqlite3.obj
 0003:00003f88       ??_C@_05DLHJCIPI@Gosub?$AA@ 0056cf88     sqlite:sqlite3.obj
 0003:00003f90       ??_C@_04BNGNMAK@Goto?$AA@  0056cf90     sqlite:sqlite3.obj
 0003:00003f98       ??_C@_01OGPIMHDM@?$DP?$AA@ 0056cf98     sqlite:sqlite3.obj
 0003:00003f9c       ??_C@_0N@DJJJGBGD@current_date?$AA@ 0056cf9c     sqlite:sqlite3.obj
 0003:00003fac       ??_C@_0BC@DDICBCEN@current_timestamp?$AA@ 0056cfac     sqlite:sqlite3.obj
 0003:00003fc4       ??_C@_0N@IPDKEGPB@current_time?$AA@ 0056cfc4     sqlite:sqlite3.obj
 0003:00003fd4       ??_C@_08EPGBJPHJ@strftime?$AA@ 0056cfd4     sqlite:sqlite3.obj
 0003:00003fe0       ??_C@_08FGNPMIBK@datetime?$AA@ 0056cfe0     sqlite:sqlite3.obj
 0003:00003fec       ??_C@_04CLCEDBPF@time?$AA@ 0056cfec     sqlite:sqlite3.obj
 0003:00003ff4       ??_C@_04JNIHBGGH@date?$AA@ 0056cff4     sqlite:sqlite3.obj
 0003:00003ffc       ??_C@_09BPOICPEH@julianday?$AA@ 0056cffc     sqlite:sqlite3.obj
 0003:00004008       ??_C@_0N@HEAGAILC@THREADSAFE?$DN1?$AA@ 0056d008     sqlite:sqlite3.obj
 0003:00004018       ??_C@_0N@GOJBLMJA@TEMP_STORE?$DN1?$AA@ 0056d018     sqlite:sqlite3.obj
 0003:00004028       ??_C@_01HIHLOKLC@1?$AA@    0056d028     sqlite:sqlite3.obj
 0003:0000402c       ??_C@_01GBGANLPD@0?$AA@    0056d02c     sqlite:sqlite3.obj
 0003:00004030       _sqlite3_version           0056d030     sqlite:sqlite3.obj
 0003:00008030       __real@4048000000000000    00571030     sqlite:sqlite3.obj
 0003:00008040       __real@4024000000000000    00571040     sqlite:sqlite3.obj
 0003:00008050       __real@3ff0000000000000    00571050     sqlite:sqlite3.obj
 0003:00008060       __real@c08f400000000000    00571060     sqlite:sqlite3.obj
 0003:00008070       __real@4194997000000000    00571070     sqlite:sqlite3.obj
 0003:00008080       __real@4097d20000000000    00571080     sqlite:sqlite3.obj
 0003:00008090       __real@403e99a027525461    00571090     sqlite:sqlite3.obj
 0003:000080a0       __real@4076d40000000000    005710a0     sqlite:sqlite3.obj
 0003:000080b0       __real@405e866666666666    005710b0     sqlite:sqlite3.obj
 0003:000080c0       __real@40e1d58800000000    005710c0     sqlite:sqlite3.obj
 0003:000080d0       __real@413c7dd040000000    005710d0     sqlite:sqlite3.obj
 0003:000080e0       __real@408f400000000000    005710e0     sqlite:sqlite3.obj
 0003:000080f0       __real@4480f0cf064dd592    005710f0     sqlite:sqlite3.obj
 0003:00008100       __real@7ff0000000000000    00571100     sqlite:sqlite3.obj
 0003:00008110       __real@7fe1ccf385ebc8a0    00571110     sqlite:sqlite3.obj
 0003:00008120       __real@8000000000000000    00571120     sqlite:sqlite3.obj
 0003:0000812c       ??_C@_0BD@FKIFACO@922337203685477580?$AA@ 0057112c     sqlite:sqlite3.obj
 0003:00008144       ??_C@_03PGJCFEMG@OID?$AA@  00571144     sqlite:sqlite3.obj
 0003:00008148       ??_C@_05GIFMDDGN@ROWID?$AA@ 00571148     sqlite:sqlite3.obj
 0003:00008150       ??_C@_07HKAAOBDA@_ROWID_?$AA@ 00571150     sqlite:sqlite3.obj
 0003:0000815c       ??_C@_06IKLLLDHL@normal?$AA@ 0057115c     sqlite:sqlite3.obj
 0003:00008164       ??_C@_09JJPHINFN@exclusive?$AA@ 00571164     sqlite:sqlite3.obj
 0003:00008170       ??_C@_0M@LPKHOAFP@incremental?$AA@ 00571170     sqlite:sqlite3.obj
 0003:00008180       ??_C@_04PLMLMMEO@full?$AA@ 00571180     sqlite:sqlite3.obj
 0003:00008188       ??_C@_04CGFJFPFD@none?$AA@ 00571188     sqlite:sqlite3.obj
 0003:00008190       ??_C@_04DAMGJPCA@file?$AA@ 00571190     sqlite:sqlite3.obj
 0003:00008198       ??_C@_09DBFINONP@NO?5ACTION?$AA@ 00571198     sqlite:sqlite3.obj
 0003:000081a4       ??_C@_08KJMJNHDG@RESTRICT?$AA@ 005711a4     sqlite:sqlite3.obj
 0003:000081b0       ??_C@_07JDMPGCJB@CASCADE?$AA@ 005711b0     sqlite:sqlite3.obj
 0003:000081bc       ??_C@_0M@GCMLNHF@SET?5DEFAULT?$AA@ 005711bc     sqlite:sqlite3.obj
 0003:000081cc       ??_C@_08NNDOPPOM@SET?5NULL?$AA@ 005711cc     sqlite:sqlite3.obj
 0003:000081d8       ??_C@_09CDPONBKL@UNION?5ALL?$AA@ 005711d8     sqlite:sqlite3.obj
 0003:000081e4       ??_C@_06JFIPMMLD@EXCEPT?$AA@ 005711e4     sqlite:sqlite3.obj
 0003:000081ec       ??_C@_09JBOBNLLF@INTERSECT?$AA@ 005711ec     sqlite:sqlite3.obj
 0003:000081f8       ??_C@_05GJNJOPB@UNION?$AA@ 005711f8     sqlite:sqlite3.obj
 0003:00008200       ??_C@_05KDMKNECD@rowid?$AA@ 00571200     sqlite:sqlite3.obj
 0003:00008208       ??_C@_07EHCIHKNF@INTEGER?$AA@ 00571208     sqlite:sqlite3.obj
 0003:00008214       ??_C@_05FNONLPDI@match?$AA@ 00571214     sqlite:sqlite3.obj
 0003:00008220       __real@4010000000000000    00571220     sqlite:sqlite3.obj
 0003:0000822c       ??_C@_07LFFDKBGI@explain?$AA@ 0057122c     sqlite:sqlite3.obj
 0003:00008238       ??_C@_03JBJLGPFL@end?$AA@  00571238     sqlite:sqlite3.obj
 0003:0000823c       ??_C@_09CAHPDAG@temporary?$AA@ 0057123c     sqlite:sqlite3.obj
 0003:00008248       ??_C@_04FGEHGIFJ@temp?$AA@ 00571248     sqlite:sqlite3.obj
 0003:00008250       ??_C@_07DIDNFGDE@trigger?$AA@ 00571250     sqlite:sqlite3.obj
 0003:0000825c       ??_C@_06HBNONAG@create?$AA@ 0057125c     sqlite:sqlite3.obj
 0003:00008264       ??_C@_0DN@BPKFDBCN@2011?911?901?500?352?341?5c7c6050ef060@ 00571264     sqlite:sqlite3.obj
 0003:000082b0       ??_C@_0O@BFJCFAAK@unknown?5error?$AA@ 005712b0     sqlite:sqlite3.obj
 0003:000082c0       ??_C@_07OGLCFANK@SQLITE_?$AA@ 005712c0     sqlite:sqlite3.obj
 0003:000082d0       __real@3fe0000000000000    005712d0     sqlite:sqlite3.obj
 0003:000082dc       ??_C@_03CGLHMDPP@now?$AA@  005712dc     sqlite:sqlite3.obj
 0003:000082e0       ??_C@_09KGIEIKHI@unordered?$AA@ 005712e0     sqlite:sqlite3.obj
 0003:000082f0       __real@41f0000000000000    005712f0     sqlite:sqlite3.obj
 0003:000082fc       ??_C@_05LFNOAECD@?5AND?5?$AA@ 005712fc     sqlite:sqlite3.obj
 0003:00008304       ??_C@_01PKGAHCOL@?$CJ?$AA@ 00571304     sqlite:sqlite3.obj
 0003:00008308       ??_C@_01MNNFJEPP@?$DM?$AA@ 00571308     sqlite:sqlite3.obj
 0003:0000830c       ??_C@_01PPODPGHN@?$DO?$AA@ 0057130c     sqlite:sqlite3.obj
 0003:00008310       ??_C@_01NEMOKFLO@?$DN?$AA@ 00571310     sqlite:sqlite3.obj
 0003:00008314       ??_C@_02GFKOMOKH@?5?$CI?$AA@ 00571314     sqlite:sqlite3.obj
 0003:00008318       ??_C@_01FGNFDNOH@?$CF?$AA@ 00571318     sqlite:sqlite3.obj
 0003:0000831c       ??_C@_01LFCBOECM@?4?$AA@   0057131c     sqlite:sqlite3.obj
 0003:00008320       ??_C@_06LHGEHABH@?$CINULL?$CJ?$AA@ 00571320     sqlite:sqlite3.obj
 0003:00008328       ??_C@_03EJEJBNFP@Inf?$AA@  00571328     sqlite:sqlite3.obj
 0003:0000832c       ??_C@_04BIDOCLEL@?$CLInf?$AA@ 0057132c     sqlite:sqlite3.obj
 0003:00008334       ??_C@_04JHHONOOL@?9Inf?$AA@ 00571334     sqlite:sqlite3.obj
 0003:00008340       __real@3e45798ee2308c3a    00571340     sqlite:sqlite3.obj
 0003:00008350       __real@3949f623d5a8a733    00571350     sqlite:sqlite3.obj
 0003:0000835c       ??_C@_03ICJPMMHB@NaN?$AA@  0057135c     sqlite:sqlite3.obj
 0003:00008360       __real@4197d78400000000    00571360     sqlite:sqlite3.obj
 0003:00008370       __real@4693b8b5b5056e17    00571370     sqlite:sqlite3.obj
 0003:00008380       __real@3fb999999999999a    00571380     sqlite:sqlite3.obj
 0003:0000838c       ??_C@_0CN@EOKIBNLJ@API?5call?5with?5?$CFs?5database?5connec@ 0057138c     sqlite:sqlite3.obj
 0003:000083c4       ??_C@_07MALOAKCI@invalid?$AA@ 005713c4     sqlite:sqlite3.obj
 0003:000083d0       ??_C@_02DKCKIIND@?$CFs?$AA@ 005713d0     sqlite:sqlite3.obj
 0003:000083d4       ??_C@_0BC@EPLOMDIH@OsError?50x?$CFx?5?$CI?$CFu?$CJ?$AA@ 005713d4     sqlite:sqlite3.obj
 0003:000083ec       ??_C@_0BO@HHKGCFGO@os_win?4c?3?$CFd?3?5?$CI?$CFd?$CJ?5?$CFs?$CI?$CFs?$CJ?5?9?5?$CFs?$AA@ 005713ec     sqlite:sqlite3.obj
 0003:00008410       ??_C@_0CH@IOAFGIGM@delayed?5?$CFdms?5for?5lock?1sharing?5co@ 00571410     sqlite:sqlite3.obj
 0003:00008440       ??_C@_0M@KEGMKFKG@seekWinFile?$AA@ 00571440     sqlite:sqlite3.obj
 0003:00008450       ??_C@_08GBGPIFFF@winClose?$AA@ 00571450     sqlite:sqlite3.obj
 0003:0000845c       ??_C@_07BGDHELCN@winRead?$AA@ 0057145c     sqlite:sqlite3.obj
 0003:00008468       ??_C@_08GNMKFGC@winWrite?$AA@ 00571468     sqlite:sqlite3.obj
 0003:00008474       ??_C@_0N@LMMFAEFD@winTruncate2?$AA@ 00571474     sqlite:sqlite3.obj
 0003:00008484       ??_C@_0N@JHOIFHJA@winTruncate1?$AA@ 00571484     sqlite:sqlite3.obj
 0003:00008494       ??_C@_07HFIFFLEA@winSync?$AA@ 00571494     sqlite:sqlite3.obj
 0003:000084a0       ??_C@_0M@DODNMLAG@winFileSize?$AA@ 005714a0     sqlite:sqlite3.obj
 0003:000084b0       ??_C@_0P@DMNKIFMO@unlockReadLock?$AA@ 005714b0     sqlite:sqlite3.obj
 0003:000084c4       ??_C@_09INENJOCI@winUnlock?$AA@ 005714c4     sqlite:sqlite3.obj
 0003:000084d0       ??_C@_0L@KBKJCPCN@?$CFs?2etilqs_?$AA@ 005714d0     sqlite:sqlite3.obj
 0003:000084e0       ??_C@_07NBNPOOME@etilqs_?$AA@ 005714e0     sqlite:sqlite3.obj
 0003:000084ec       ??_C@_09MOHEIBIO@winDelete?$AA@ 005714ec     sqlite:sqlite3.obj
 0003:000084f8       ??_C@_09NBJCHJLH@winAccess?$AA@ 005714f8     sqlite:sqlite3.obj
 0003:00008504       ??_C@_01EEMJAFIK@?6?$AA@   00571504     sqlite:sqlite3.obj
 0003:00008508       ??_C@_0BJ@HHKCLCDH@2nd?5reference?5to?5page?5?$CFd?$AA@ 00571508     sqlite:sqlite3.obj
 0003:00008528       ??_C@_0BH@LLKFEBHC@invalid?5page?5number?5?$CFd?$AA@ 00571528     sqlite:sqlite3.obj
 0003:00008544       ??_C@_07MHLKLKDM@program?$AA@ 00571544     sqlite:sqlite3.obj
 0003:00008550       ??_C@_08CBEPOPA@intarray?$AA@ 00571550     sqlite:sqlite3.obj
 0003:0000855c       ??_C@_0L@IIBEKKAO@vtab?3?$CFp?3?$CFp?$AA@ 0057155c     sqlite:sqlite3.obj
 0003:0000856c       ??_C@_06OLGPAEJH@?$CIblob?$CJ?$AA@ 0057156c     sqlite:sqlite3.obj
 0003:00008574       ??_C@_05CFGAKADK@?$CF?416g?$AA@ 00571574     sqlite:sqlite3.obj
 0003:0000857c       ??_C@_04BFAHMMK@?$CFlld?$AA@ 0057157c     sqlite:sqlite3.obj
 0003:00008584       ??_C@_06BPGFIOAL@?$CFs?$CI?$CFd?$CJ?$AA@ 00571584     sqlite:sqlite3.obj
 0003:0000858c       ??_C@_0P@BMGKNHBK@collseq?$CI?$CF?420s?$CJ?$AA@ 0057158c     sqlite:sqlite3.obj
 0003:000085a0       ??_C@_0L@HDAMIFP@keyinfo?$CI?$CFd?$AA@ 005715a0     sqlite:sqlite3.obj
 0003:000085b0       ??_C@_0CN@JCKHFJMJ@API?5called?5with?5finalized?5prepar@ 005715b0     sqlite:sqlite3.obj
 0003:000085e8       ??_C@_0CI@DGDEMKDJ@API?5called?5with?5NULL?5prepared?5st@ 005715e8     sqlite:sqlite3.obj
 0003:00008618       ??_C@_0DI@IJOLPLNO@?$CFr?5?$CFs?5BY?5term?5out?5of?5range?5?9?5sho@ 00571618     sqlite:sqlite3.obj
 0003:0000865c       ??_C@_0DA@HPOBBFJP@Expression?5tree?5is?5too?5large?5?$CIma@ 0057165c     sqlite:sqlite3.obj
 0003:00008698       ??_C@_0BH@KLMBLGJH@too?5many?5SQL?5variables?$AA@ 00571698     sqlite:sqlite3.obj
 0003:000086b4       ??_C@_0CL@MAPAMFMM@variable?5number?5must?5be?5between?5@ 005716b4     sqlite:sqlite3.obj
 0003:000086e8       ??_C@_0BH@HJGFDJPB@too?5many?5columns?5in?5?$CFs?$AA@ 005716e8     sqlite:sqlite3.obj
 0003:00008704       ??_C@_0O@JAFDLLMD@?$CFs?5OR?5name?$DN?$CFQ?$AA@ 00571704     sqlite:sqlite3.obj
 0003:00008714       ??_C@_07IKCPJJF@name?$DN?$CFQ?$AA@ 00571714     sqlite:sqlite3.obj
 0003:00008720       ??_C@_0BI@IBIDABAM@type?$DN?8trigger?8?5AND?5?$CI?$CFs?$CJ?$AA@ 00571720     sqlite:sqlite3.obj
 0003:0000873c       ??_C@_0BM@IAHFHDLE@table?5?$CFs?5may?5not?5be?5altered?$AA@ 0057173c     sqlite:sqlite3.obj
 0003:00008760       ??_C@_07IOGLMIPM@sqlite_?$AA@ 00571760     sqlite:sqlite3.obj
 0003:0000876c       ??_C@_0CJ@CJKDHBGL@SELECT?5tbl?0idx?0stat?5FROM?5?$CFQ?4sqli@ 0057176c     sqlite:sqlite3.obj
 0003:000087a0       ??_C@_0BH@KNHNEHPN@authorizer?5malfunction?$AA@ 005717a0     sqlite:sqlite3.obj
 0003:000087bc       ??_C@_0CB@NCPGIDCD@access?5to?5?$CFs?4?$CFs?4?$CFs?5is?5prohibited@ 005717bc     sqlite:sqlite3.obj
 0003:000087e4       ??_C@_0BO@CMCIGPCH@access?5to?5?$CFs?4?$CFs?5is?5prohibited?$AA@ 005717e4     sqlite:sqlite3.obj
 0003:00008808       ??_C@_0P@PEBGBLCC@not?5authorized?$AA@ 00571808     sqlite:sqlite3.obj
 0003:0000881c       ??_C@_0BE@DADMKDCE@unknown?5database?5?$CFT?$AA@ 0057181c     sqlite:sqlite3.obj
 0003:00008834       ??_C@_0BB@GODMDNII@corrupt?5database?$AA@ 00571834     sqlite:sqlite3.obj
 0003:00008848       ??_C@_0CK@DHAAGEMP@object?5name?5reserved?5for?5interna@ 00571848     sqlite:sqlite3.obj
 0003:0000887c       ??_C@_0BK@CJJKBEHE@duplicate?5column?5name?3?5?$CFs?$AA@ 0057187c     sqlite:sqlite3.obj
 0003:0000889c       ??_C@_0BH@KPDMNKOM@too?5many?5columns?5on?5?$CFs?$AA@ 0057189c     sqlite:sqlite3.obj
 0003:000088b8       ??_C@_0O@BLHKEBID@CREATE?5TABLE?5?$AA@ 005718b8     sqlite:sqlite3.obj
 0003:000088c8       ??_C@_02EJGPDMNA@?6?$CJ?$AA@ 005718c8     sqlite:sqlite3.obj
 0003:000088cc       ??_C@_04PPJIEIMB@?0?6?5?5?$AA@ 005718cc     sqlite:sqlite3.obj
 0003:000088d4       ??_C@_03BMMPKCMF@?6?5?5?$AA@ 005718d4     sqlite:sqlite3.obj
 0003:000088d8       ??_C@_0BO@HNIAJBGG@DELETE?5FROM?5?$CFQ?4?$CFs?5WHERE?5?$CFs?$DN?$CFQ?$AA@ 005718d8     sqlite:sqlite3.obj
 0003:000088fc       ??_C@_0O@IOJCPKAP@sqlite_stat?$CFd?$AA@ 005718fc     sqlite:sqlite3.obj
 0003:0000890c       ??_C@_0CO@ECJPGOGF@unknown?5column?5?$CC?$CFs?$CC?5in?5foreign?5k@ 0057190c     sqlite:sqlite3.obj
 0003:00008948       ??_C@_0FO@BDBBNOLJ@number?5of?5columns?5in?5foreign?5key@ 00571948     sqlite:sqlite3.obj
 0003:000089b8       ??_C@_0DP@HFDIOLMB@foreign?5key?5on?5?$CFs?5should?5referen@ 005719b8     sqlite:sqlite3.obj
 0003:00008a04       ??_C@_0CE@GFPKLECD@a?5JOIN?5clause?5is?5required?5before@ 00571a04     sqlite:sqlite3.obj
 0003:00008a30       ??_C@_05EOONBMLM@USING?$AA@ 00571a30     sqlite:sqlite3.obj
 0003:00008a38       ??_C@_0CG@CNPJIJGN@cannot?5modify?5?$CFs?5because?5it?5is?5a@ 00571a38     sqlite:sqlite3.obj
 0003:00008a68       ??_C@_0BN@GLMOOAMK@table?5?$CFs?5may?5not?5be?5modified?$AA@ 00571a68     sqlite:sqlite3.obj
 0003:00008a8c       ??_C@_04HGGMHPIM@?$CF?4?$CKf?$AA@ 00571a8c     sqlite:sqlite3.obj
 0003:00008a98       __real@43e0000000000000    00571a98     sqlite:sqlite3.obj
 0003:00008aa4       ??_C@_06FJHKNKMG@BINARY?$AA@ 00571aa4     sqlite:sqlite3.obj
 0003:00008aac       ??_C@_0BF@PMNMLNEK@foreign?5key?5mismatch?$AA@ 00571aac     sqlite:sqlite3.obj
 0003:00008ac8       ??_C@_0CA@BPLHPOIJ@error?5during?5initialization?3?5?$CFs?$AA@ 00571ac8     sqlite:sqlite3.obj
 0003:00008af0       ??_C@_0CL@IHPFGADB@no?5entry?5point?5?$FL?$CFs?$FN?5in?5shared?5li@ 00571af0     sqlite:sqlite3.obj
 0003:00008b24       ??_C@_0CD@FENJJFPL@unable?5to?5open?5shared?5library?5?$FL?$CF@ 00571b24     sqlite:sqlite3.obj
 0003:00008b50       ??_C@_0BH@NNAEMFED@sqlite3_extension_init?$AA@ 00571b50     sqlite:sqlite3.obj
 0003:00008b6c       ??_C@_0CM@LOMFMKCH@unknown?5or?5unsupported?5join?5type@ 00571b6c     sqlite:sqlite3.obj
 0003:00008ba0       ??_C@_0DH@LJEHIDDA@RIGHT?5and?5FULL?5OUTER?5JOINs?5are?5n@ 00571ba0     sqlite:sqlite3.obj
 0003:00008be8       ??_C@_0EI@FMCKEHHB@only?5a?5single?5result?5allowed?5for@ 00571be8     sqlite:sqlite3.obj
 0003:00008c40       ??_C@_0BH@JCGMDKCI@USE?5TEMP?5B?9TREE?5FOR?5?$CFs?$AA@ 00571c40     sqlite:sqlite3.obj
 0003:00008c5c       ??_C@_0CF@IFPCHLOK@COMPOUND?5SUBQUERIES?5?$CFd?5AND?5?$CFd?5?$CFs@ 00571c5c     sqlite:sqlite3.obj
 0003:00008c88       ??_C@_0BD@INMGDFNB@USING?5TEMP?5B?9TREE?5?$AA@ 00571c88     sqlite:sqlite3.obj
 0003:00008ca0       ??_C@_05HKPGCKL@?$CFs?3?$CFd?$AA@ 00571ca0     sqlite:sqlite3.obj
 0003:00008ca8       ??_C@_0BC@EHGCNIF@no?5such?5index?3?5?$CFs?$AA@ 00571ca8     sqlite:sqlite3.obj
 0003:00008cc0       ??_C@_0BN@NKANBDNO@SCAN?5TABLE?5?$CFs?5?$CFs?$CFs?$CI?$HO?$CFd?5rows?$CJ?$AA@ 00571cc0     sqlite:sqlite3.obj
 0003:00008ce4       ??_C@_0BG@JAICCEJG@USING?5COVERING?5INDEX?5?$AA@ 00571ce4     sqlite:sqlite3.obj
 0003:00008d00       ??_C@_0BL@DGMACLBE@name?$DN?8?$CFq?8?5AND?5type?$DN?8table?8?$AA@ 00571d00     sqlite:sqlite3.obj
 0003:00008d20       ??_C@_0FI@IFIJAFLJ@UPDATE?5?$CFQ?4?$CFs?5SET?5type?$DN?8table?8?0?5n@ 00571d20     sqlite:sqlite3.obj
 0003:00008d8c       ??_C@_0O@JMEKHCEB@sqlite_master?$AA@ 00571d8c     sqlite:sqlite3.obj
 0003:00008d9c       ??_C@_0BD@OLGFAFA@sqlite_temp_master?$AA@ 00571d9c     sqlite:sqlite3.obj
 0003:00008db4       ??_C@_0BI@PDMEEOA@CREATE?5VIRTUAL?5TABLE?5?$CFT?$AA@ 00571db4     sqlite:sqlite3.obj
 0003:00008dd0       ??_C@_07JJJNOAOL@?5hidden?$AA@ 00571dd0     sqlite:sqlite3.obj
 0003:00008ddc       ??_C@_06JIKFICKK@hidden?$AA@ 00571ddc     sqlite:sqlite3.obj
 0003:00008de4       ??_C@_0CO@NAIIFAKI@vtable?5constructor?5did?5not?5decla@ 00571de4     sqlite:sqlite3.obj
 0003:00008e1c       ??_C@_0BO@DEKEKMPI@vtable?5constructor?5failed?3?5?$CFs?$AA@ 00571e1c     sqlite:sqlite3.obj
 0003:00008e40       ??_C@_0BD@KBJCCNMM@no?5such?5module?3?5?$CFs?$AA@ 00571e40     sqlite:sqlite3.obj
 0003:00008e58       ??_C@_0CO@KDPCLLKJ@table?5?$CFs?3?5xBestIndex?5returned?5an@ 00571e58     sqlite:sqlite3.obj
 0003:00008e90       ??_C@_0BA@CEKLKPCJ@?$CFs?5?$CI?$HO?$CFlld?5rows?$CJ?$AA@ 00571e90     sqlite:sqlite3.obj
 0003:00008ea4       ??_C@_0BN@GEIFLGHO@?$CFs?5VIRTUAL?5TABLE?5INDEX?5?$CFd?3?$CFs?$AA@ 00571ea4     sqlite:sqlite3.obj
 0003:00008ec8       ??_C@_0N@LLIMJMMN@?$CFs?5?$CIrowid?$DM?$DP?$CJ?$AA@ 00571ec8     sqlite:sqlite3.obj
 0003:00008ed8       ??_C@_0N@BBIFFEEG@?$CFs?5?$CIrowid?$DO?$DP?$CJ?$AA@ 00571ed8     sqlite:sqlite3.obj
 0003:00008ee8       ??_C@_0BJ@POOJNAFN@?$CFs?5?$CIrowid?$DO?$DP?5AND?5rowid?$DM?$DP?$CJ?$AA@ 00571ee8     sqlite:sqlite3.obj
 0003:00008f08       ??_C@_0N@DDAPLKI@?$CFs?5?$CIrowid?$DN?$DP?$CJ?$AA@ 00571f08     sqlite:sqlite3.obj
 0003:00008f18       ??_C@_0BN@POCKMKPK@?$CFs?5USING?5INTEGER?5PRIMARY?5KEY?$AA@ 00571f18     sqlite:sqlite3.obj
 0003:00008f3c       ??_C@_0BJ@EKHJMJEF@?$CFs?5USING?5?$CFs?$CFsINDEX?$CFs?$CFs?$CFs?$AA@ 00571f3c     sqlite:sqlite3.obj
 0003:00008f5c       ??_C@_0L@COIPKBPM@AUTOMATIC?5?$AA@ 00571f5c     sqlite:sqlite3.obj
 0003:00008f6c       ??_C@_09GCJGEEEO@COVERING?5?$AA@ 00571f6c     sqlite:sqlite3.obj
 0003:00008f78       ??_C@_08BNODOOIA@?$CFs?5AS?5?$CFs?$AA@ 00571f78     sqlite:sqlite3.obj
 0003:00008f84       ??_C@_0M@EHBHAICN@?$CFs?5TABLE?5?$CFs?$AA@ 00571f84     sqlite:sqlite3.obj
 0003:00008f94       ??_C@_0P@OLOBPMPI@?$CFs?5SUBQUERY?5?$CFd?$AA@ 00571f94     sqlite:sqlite3.obj
 0003:00008fa8       ??_C@_04NAGNMPFG@SCAN?$AA@ 00571fa8     sqlite:sqlite3.obj
 0003:00008fb0       ??_C@_06GBNAAIDA@SEARCH?$AA@ 00571fb0     sqlite:sqlite3.obj
 0003:00008fb8       ??_C@_0BG@FMAEELCM@parser?5stack?5overflow?$AA@ 00571fb8     sqlite:sqlite3.obj
 0003:00008fd4       ??_C@_0BI@CBJKLAIG@near?5?$CC?$CFT?$CC?3?5syntax?5error?$AA@ 00571fd4     sqlite:sqlite3.obj
 0003:00008ff0       ??_C@_0CK@EFFGEIFI@database?5corruption?5at?5line?5?$CFd?5o@ 00571ff0     sqlite:sqlite3.obj
 0003:00009024       ??_C@_0BN@JFEBGPPP@misuse?5at?5line?5?$CFd?5of?5?$FL?$CF?410s?$FN?$AA@ 00572024     sqlite:sqlite3.obj
 0003:00009048       ??_C@_0CH@CFKHNID@cannot?5open?5file?5at?5line?5?$CFd?5of?5?$FL@ 00572048     sqlite:sqlite3.obj
 0003:00009078       ??_C@_0CG@DAAPKCCM@failed?5to?5allocate?5?$CFu?5bytes?5of?5m@ 00572078     sqlite:sqlite3.obj
 0003:000090a8       ??_C@_0CE@BFFKOBMD@failed?5memory?5resize?5?$CFu?5to?5?$CFu?5by@ 005720a8     sqlite:sqlite3.obj
 0003:000090d4       ??_C@_08NFNJDBOK@unopened?$AA@ 005720d4     sqlite:sqlite3.obj
 0003:000090e0       ??_C@_07BEGGPPOF@winOpen?$AA@ 005720e0     sqlite:sqlite3.obj
 0003:000090ec       ??_C@_06NJMDEJD@?$CF?$CB?415g?$AA@ 005720ec     sqlite:sqlite3.obj
 0003:000090f4       ??_C@_04LABILCJL@?$CF?42x?$AA@ 005720f4     sqlite:sqlite3.obj
 0003:000090fc       ??_C@_0BO@IFNOPDMA@foreign?5key?5constraint?5failed?$AA@ 005720fc     sqlite:sqlite3.obj
 0003:00009120       ??_C@_0DD@BOPMNMAO@unable?5to?5use?5function?5?$CFs?5in?5the@ 00572120     sqlite:sqlite3.obj
 0003:00009160       ??_C@_01GEODFPGF@?8?$AA@   00572160     sqlite:sqlite3.obj
 0003:00009164       ??_C@_04NOJCDH@?$CF02x?$AA@ 00572164     sqlite:sqlite3.obj
 0003:0000916c       ??_C@_02IAJJKNGA@x?8?$AA@  0057216c     sqlite:sqlite3.obj
 0003:00009170       ??_C@_0N@OGKFEFFN@zeroblob?$CI?$CFd?$CJ?$AA@ 00572170     sqlite:sqlite3.obj
 0003:00009180       ??_C@_06BGANNCL@?8?$CF?4?$CKq?8?$AA@ 00572180     sqlite:sqlite3.obj
 0003:00009188       ??_C@_03CJPCKGBB@?9?9?5?$AA@ 00572188     sqlite:sqlite3.obj
 0003:0000918c       ??_C@_0M@FPJBBPLI@tbl_name?$DN?$CFQ?$AA@ 0057218c     sqlite:sqlite3.obj
 0003:0000919c       ??_C@_0BH@NPNIHFHO@CREATE?5TABLE?5?$CFQ?4?$CFs?$CI?$CFs?$CJ?$AA@ 0057219c     sqlite:sqlite3.obj
 0003:000091b8       ??_C@_0CO@IGOBCPDP@?$CFs?5?$CFT?5cannot?5reference?5objects?5i@ 005721b8     sqlite:sqlite3.obj
 0003:000091f0       ??_C@_0CN@MLPCOIJO@default?5value?5of?5column?5?$FL?$CFs?$FN?5is?5@ 005721f0     sqlite:sqlite3.obj
 0003:00009228       ??_C@_0DI@GKCMDFKF@UPDATE?5?$CFQ?4?$CFs?5SET?5rootpage?$DN?$CFd?5WHE@ 00572228     sqlite:sqlite3.obj
 0003:0000926c       ??_C@_06IBPPMFNL@COMMIT?$AA@ 0057226c     sqlite:sqlite3.obj
 0003:00009274       ??_C@_0BP@CGLMEPGG@no?5such?5collation?5sequence?3?5?$CFs?$AA@ 00572274     sqlite:sqlite3.obj
 0003:0000929c       ??_C@_0BB@KBEKGHFK@integer?5overflow?$AA@ 0057229c     sqlite:sqlite3.obj
 0003:000092b0       ??_C@_0CN@PAMOLCDH@ESCAPE?5expression?5must?5be?5a?5sing@ 005722b0     sqlite:sqlite3.obj
 0003:000092e8       ??_C@_0CB@LFIMBCA@LIKE?5or?5GLOB?5pattern?5too?5complex@ 005722e8     sqlite:sqlite3.obj
 0003:00009310       ??_C@_03PLGJJJLK@oid?$AA@  00572310     sqlite:sqlite3.obj
 0003:00009314       ??_C@_03CLCAEGCJ@new?$AA@  00572314     sqlite:sqlite3.obj
 0003:00009318       ??_C@_03PNKCFLFB@old?$AA@  00572318     sqlite:sqlite3.obj
 0003:0000931c       ??_C@_07FCJAGJJB@?$CFs?5?9?5?$CFs?$AA@ 0057231c     sqlite:sqlite3.obj
 0003:00009328       ??_C@_0BP@EHGGIFII@malformed?5database?5schema?5?$CI?$CFs?$CJ?$AA@ 00572328     sqlite:sqlite3.obj
 0003:00009350       ??_C@_0EA@LFCKDDII@cannot?5join?5using?5column?5?$CFs?5?9?5co@ 00572350     sqlite:sqlite3.obj
 0003:0000939c       ??_C@_0DH@DHMOHNCE@cannot?5have?5both?5ON?5and?5USING?5cl@ 0057239c     sqlite:sqlite3.obj
 0003:000093e0       ??_C@_0DC@NBGJANJH@a?5NATURAL?5join?5may?5not?5have?5an?5O@ 005723e0     sqlite:sqlite3.obj
 0003:0000941c       ??_C@_05NNFHCGPF@?$CFs?4?$CFs?$AA@ 0057241c     sqlite:sqlite3.obj
 0003:00009424       ??_C@_0BH@HEILFFIJ@local?5time?5unavailable?$AA@ 00572424     sqlite:sqlite3.obj
 0003:00009440       __real@4076d00000000000    00572440     sqlite:sqlite3.obj
 0003:00009450       __real@403e000000000000    00572450     sqlite:sqlite3.obj
 0003:0000945c       ??_C@_06BJCFNGJP@second?$AA@ 0057245c     sqlite:sqlite3.obj
 0003:00009468       __real@40ed4c0000000000    00572468     sqlite:sqlite3.obj
 0003:00009474       ??_C@_06JGJIJFNK@minute?$AA@ 00572474     sqlite:sqlite3.obj
 0003:00009480       __real@414b774000000000    00572480     sqlite:sqlite3.obj
 0003:0000948c       ??_C@_04LMOJGCPE@hour?$AA@ 0057248c     sqlite:sqlite3.obj
 0003:00009498       __real@bfe0000000000000    00572498     sqlite:sqlite3.obj
 0003:000094a4       ??_C@_03NNBHCDBP@day?$AA@  005724a4     sqlite:sqlite3.obj
 0003:000094a8       ??_C@_04JFPLDHAO@year?$AA@ 005724a8     sqlite:sqlite3.obj
 0003:000094b0       ??_C@_05MEBAADFH@month?$AA@ 005724b0     sqlite:sqlite3.obj
 0003:000094b8       ??_C@_09CABLEOFK@start?5of?5?$AA@ 005724b8     sqlite:sqlite3.obj
 0003:000094c8       __real@401c000000000000    005724c8     sqlite:sqlite3.obj
 0003:000094d4       ??_C@_08IPAOEBNP@weekday?5?$AA@ 005724d4     sqlite:sqlite3.obj
 0003:000094e0       ??_C@_03JPHCIIKF@utc?$AA@  005724e0     sqlite:sqlite3.obj
 0003:000094e4       ??_C@_09KNIMKLBK@unixepoch?$AA@ 005724e4     sqlite:sqlite3.obj
 0003:000094f0       ??_C@_09EKBOCLDN@localtime?$AA@ 005724f0     sqlite:sqlite3.obj
 0003:000094fc       ??_C@_04HDOCAJNK@?$CFs?$CFs?$AA@ 005724fc     sqlite:sqlite3.obj
 0003:00009504       ??_C@_01JOAMLHOP@?9?$AA@   00572504     sqlite:sqlite3.obj
 0003:00009508       ??_C@_0CI@NKIMDBDG@bind?5on?5a?5busy?5prepared?5statemen@ 00572508     sqlite:sqlite3.obj
 0003:00009538       ??_C@_06DJHOIPC@?$CFs?3?5?$CFs?$AA@ 00572538     sqlite:sqlite3.obj
 0003:00009540       ??_C@_09DEPFKOIN@?$CFs?3?5?$CFs?4?$CFs?$AA@ 00572540     sqlite:sqlite3.obj
 0003:0000954c       ??_C@_0N@GOMHGJCA@?$CFs?3?5?$CFs?4?$CFs?4?$CFs?$AA@ 0057254c     sqlite:sqlite3.obj
 0003:0000955c       ??_C@_0BG@CPPEOILG@ambiguous?5column?5name?$AA@ 0057255c     sqlite:sqlite3.obj
 0003:00009578       ??_C@_0P@OOEELNMH@no?5such?5column?$AA@ 00572578     sqlite:sqlite3.obj
 0003:0000958c       ??_C@_0BP@LIGNHLP@misuse?5of?5aliased?5aggregate?5?$CFs?$AA@ 0057258c     sqlite:sqlite3.obj
 0003:000095b4       ??_C@_0CL@HIKOHDBA@parameters?5prohibited?5in?5CHECK?5c@ 005725b4     sqlite:sqlite3.obj
 0003:000095e8       ??_C@_0CL@HPCDGFPK@subqueries?5prohibited?5in?5CHECK?5c@ 005725e8     sqlite:sqlite3.obj
 0003:0000961c       ??_C@_0CN@GBOJIJCC@wrong?5number?5of?5arguments?5to?5fun@ 0057261c     sqlite:sqlite3.obj
 0003:00009654       ??_C@_0BH@DEPAIHDK@no?5such?5function?3?5?$CF?4?$CKs?$AA@ 00572654     sqlite:sqlite3.obj
 0003:00009670       ??_C@_0CE@JOMBDPK@misuse?5of?5aggregate?5function?5?$CF?4?$CK@ 00572670     sqlite:sqlite3.obj
 0003:0000969c       ??_C@_0CD@CLOCOINF@not?5authorized?5to?5use?5function?3?5@ 0057269c     sqlite:sqlite3.obj
 0003:000096c8       ??_C@_0BP@OLNMGBH@too?5many?5terms?5in?5?$CFs?5BY?5clause?$AA@ 005726c8     sqlite:sqlite3.obj
 0003:000096f0       ??_C@_0BJ@HNBNONDH@EXECUTE?5?$CFs?$CFs?5SUBQUERY?5?$CFd?$AA@ 005726f0     sqlite:sqlite3.obj
 0003:00009710       ??_C@_0M@MCLOEEML@CORRELATED?5?$AA@ 00572710     sqlite:sqlite3.obj
 0003:00009720       ??_C@_06LEOGOFDE@SCALAR?$AA@ 00572720     sqlite:sqlite3.obj
 0003:00009728       ??_C@_04PCOPKCKE@LIST?$AA@ 00572728     sqlite:sqlite3.obj
 0003:00009730       ??_C@_0L@HDDJIJMP@?$CF?4?$CKs?$CC?$CFw?$CC?$CFs?$AA@ 00572730     sqlite:sqlite3.obj
 0003:00009740       ??_C@_0L@GGMNOGLF@?$CFs?$CF?4?$CKs?$CC?$CFw?$CC?$AA@ 00572740     sqlite:sqlite3.obj
 0003:00009750       ??_C@_0GN@GPPLIGGM@UPDATE?5?$CC?$CFw?$CC?4?$CFs?5SET?5sql?5?$DN?5substr?$CI@ 00572750     sqlite:sqlite3.obj
 0003:000097d4       ??_C@_0CO@DPKGGDEF@Cannot?5add?5a?5column?5with?5non?9con@ 005727d4     sqlite:sqlite3.obj
 0003:0000980c       ??_C@_0DF@JACFJFPO@Cannot?5add?5a?5NOT?5NULL?5column?5wit@ 0057280c     sqlite:sqlite3.obj
 0003:0000984c       ??_C@_0DL@KNFPANHI@Cannot?5add?5a?5REFERENCES?5column?5w@ 0057284c     sqlite:sqlite3.obj
 0003:00009894       ??_C@_0BL@NAFLCLKF@Cannot?5add?5a?5UNIQUE?5column?$AA@ 00572894     sqlite:sqlite3.obj
 0003:000098b4       ??_C@_0CA@KEHKHMLG@Cannot?5add?5a?5PRIMARY?5KEY?5column?$AA@ 005728b4     sqlite:sqlite3.obj
 0003:000098dc       ??_C@_0BD@BGLLCPKM@invalid?5name?3?5?$CC?$CFs?$CC?$AA@ 005728dc     sqlite:sqlite3.obj
 0003:000098f4       ??_C@_04MLLLIHIP@null?$AA@ 005728f4     sqlite:sqlite3.obj
 0003:000098fc       ??_C@_04LPJPOBEM@blob?$AA@ 005728fc     sqlite:sqlite3.obj
 0003:00009904       ??_C@_04DGGKDJMA@real?$AA@ 00572904     sqlite:sqlite3.obj
 0003:0000990c       ??_C@_07LKHFMGFB@integer?$AA@ 0057290c     sqlite:sqlite3.obj
 0003:00009918       ??_C@_0CH@EKKEGGML@automatic?5extension?5loading?5fail@ 00572918     sqlite:sqlite3.obj
 0003:00009948       ??_C@_05BIEKMFNJ@ORDER?$AA@ 00572948     sqlite:sqlite3.obj
 0003:00009950       ??_C@_0DD@MKKFPBAF@DISTINCT?5aggregates?5must?5have?5ex@ 00572950     sqlite:sqlite3.obj
 0003:00009990       __real@4008000000000000    00572990     sqlite:sqlite3.obj
 0003:000099a0       __real@4000000000000000    005729a0     sqlite:sqlite3.obj
 0003:000099b0       __real@547d42aea2879f2e    005729b0     sqlite:sqlite3.obj
 0003:000099bc       ??_C@_0DP@BDIELDAF@unable?5to?5delete?1modify?5user?9fun@ 005729bc     sqlite:sqlite3.obj
 0003:00009a08       ??_C@_0EE@IKACNBHK@unable?5to?5delete?1modify?5collatio@ 00572a08     sqlite:sqlite3.obj
 0003:00009a5c       ??_C@_0BO@NGNOHJIK@?$CF04d?9?$CF02d?9?$CF02d?5?$CF02d?3?$CF02d?3?$CF02d?$AA@ 00572a5c     sqlite:sqlite3.obj
 0003:00009a80       ??_C@_0P@PLMNPDMB@?$CF02d?3?$CF02d?3?$CF02d?$AA@ 00572a80     sqlite:sqlite3.obj
 0003:00009a94       ??_C@_0P@MCDGMPHH@?$CF04d?9?$CF02d?9?$CF02d?$AA@ 00572a94     sqlite:sqlite3.obj
 0003:00009aa8       ??_C@_04OCCELDNI@?$CF04d?$AA@ 00572aa8     sqlite:sqlite3.obj
 0003:00009ab0       ??_C@_04OHGLKFFN@?$CF03d?$AA@ 00572ab0     sqlite:sqlite3.obj
 0003:00009ab8       ??_C@_06IAGKDDNE@?$CF06?43f?$AA@ 00572ab8     sqlite:sqlite3.obj
 0003:00009ac0       ??_C@_04OGKJMPGK@?$CF02d?$AA@ 00572ac0     sqlite:sqlite3.obj
 0003:00009ac8       __real@404dffdf3b645a1d    00572ac8     sqlite:sqlite3.obj
 0003:00009ad4       ??_C@_0DN@KHANHMIL@?$CFr?5ORDER?5BY?5term?5does?5not?5match?5@ 00572ad4     sqlite:sqlite3.obj
 0003:00009b20       ??_C@_0CC@GEJJPDIE@too?5many?5terms?5in?5ORDER?5BY?5claus@ 00572b20     sqlite:sqlite3.obj
 0003:00009b48       ??_C@_0DL@LDIIFJFH@aggregate?5functions?5are?5not?5allo@ 00572b48     sqlite:sqlite3.obj
 0003:00009b90       ??_C@_0CM@CFGBPLAG@a?5GROUP?5BY?5clause?5is?5required?5be@ 00572b90     sqlite:sqlite3.obj
 0003:00009bc4       ??_C@_05NAIABEH@GROUP?$AA@ 00572bc4     sqlite:sqlite3.obj
 0003:00009bcc       ??_C@_03GINCELHE@aaa?$AA@  00572bcc     sqlite:sqlite3.obj
 0003:00009bd0       ??_C@_0FC@CMDCIIHA@SELECTs?5to?5the?5left?5and?5right?5of@ 00572bd0     sqlite:sqlite3.obj
 0003:00009c34       ??_C@_0CN@DDIHOHHL@LIMIT?5clause?5should?5come?5after?5?$CF@ 00572c34     sqlite:sqlite3.obj
 0003:00009c6c       ??_C@_0DA@GPNKNMMI@ORDER?5BY?5clause?5should?5come?5afte@ 00572c6c     sqlite:sqlite3.obj
 0003:00009ca8       ??_C@_0L@LOLDMHK@auto?9index?$AA@ 00572ca8     sqlite:sqlite3.obj
 0003:00009cb8       __real@546d42aea2879f2e    00572cb8     sqlite:sqlite3.obj
 0003:00009cc4       ??_C@_0BP@NPACMCHA@indexed?5columns?5are?5not?5unique?$AA@ 00572cc4     sqlite:sqlite3.obj
 0003:00009cec       ??_C@_05JGHLFIHG@MATCH?$AA@ 00572cec     sqlite:sqlite3.obj
 0003:00009cf4       ??_C@_0L@NHPDAEHO@winOpenShm?$AA@ 00572cf4     sqlite:sqlite3.obj
 0003:00009d04       ??_C@_06KEOMCCGA@?$CFs?9shm?$AA@ 00572d04     sqlite:sqlite3.obj
 0003:00009d0c       ??_C@_0L@KOMLJHDC@winShmMap3?$AA@ 00572d0c     sqlite:sqlite3.obj
 0003:00009d1c       ??_C@_0L@LHNAKGHD@winShmMap2?$AA@ 00572d1c     sqlite:sqlite3.obj
 0003:00009d2c       ??_C@_0L@JMPNPFLA@winShmMap1?$AA@ 00572d2c     sqlite:sqlite3.obj
 0003:00009d3c       ??_C@_0CF@IHLLJHCL@Recovered?5?$CFd?5frames?5from?5WAL?5fil@ 00572d3c     sqlite:sqlite3.obj
 0003:00009d68       ??_C@_0BK@NCCCKLLJ@cannot?5limit?5WAL?5size?3?5?$CFs?$AA@ 00572d68     sqlite:sqlite3.obj
 0003:00009d88       ??_C@_0DG@EAEHHDPC@Bad?5ptr?5map?5entry?5key?$DN?$CFd?5expecte@ 00572d88     sqlite:sqlite3.obj
 0003:00009dc8       ??_C@_0BN@NJCBBLIO@Failed?5to?5read?5ptrmap?5key?$DN?$CFd?$AA@ 00572dc8     sqlite:sqlite3.obj
 0003:00009dec       ??_C@_0BG@GMIBDIEE@failed?5to?5get?5page?5?$CFd?$AA@ 00572dec     sqlite:sqlite3.obj
 0003:00009e08       ??_C@_0DJ@PBFEOOMP@?$CFd?5of?5?$CFd?5pages?5missing?5from?5over@ 00572e08     sqlite:sqlite3.obj
 0003:00009e4c       ??_C@_0CH@LNHECGJJ@freelist?5leaf?5count?5too?5big?5on?5p@ 00572e4c     sqlite:sqlite3.obj
 0003:00009e7c       ??_C@_0DE@NONOJPEC@Fragmentation?5of?5?$CFd?5bytes?5report@ 00572e7c     sqlite:sqlite3.obj
 0003:00009ebc       ??_C@_0CF@DKGAOHID@Multiple?5uses?5for?5byte?5?$CFd?5of?5pag@ 00572ebc     sqlite:sqlite3.obj
 0003:00009ee8       ??_C@_0CK@JLHLDHFB@Corruption?5detected?5in?5cell?5?$CFd?5o@ 00572ee8     sqlite:sqlite3.obj
 0003:00009f1c       ??_C@_0DL@NMAEPJBK@Rowid?5?$CFlld?5out?5of?5order?5?$CImin?5les@ 00572f1c     sqlite:sqlite3.obj
 0003:00009f64       ??_C@_0DN@BNLGOIPI@Rowid?5?$CFlld?5out?5of?5order?5?$CImax?5lar@ 00572f64     sqlite:sqlite3.obj
 0003:00009fb0       ??_C@_0DL@JMELIBGM@Rowid?5?$CFlld?5out?5of?5order?5?$CImin?5les@ 00572fb0     sqlite:sqlite3.obj
 0003:00009ff8       ??_C@_0DN@FNPJJAIO@Rowid?5?$CFlld?5out?5of?5order?5?$CImax?5lar@ 00572ff8     sqlite:sqlite3.obj
 0003:0000a044       ??_C@_0BM@FMPLCKPB@On?5page?5?$CFd?5at?5right?5child?3?5?$AA@ 00573044     sqlite:sqlite3.obj
 0003:0000a068       ??_C@_0BJ@FLOCKNJL@Child?5page?5depth?5differs?$AA@ 00573068     sqlite:sqlite3.obj
 0003:0000a088       ??_C@_0CM@NFGNKDIE@Rowid?5?$CFlld?5out?5of?5order?5?$CIpreviou@ 00573088     sqlite:sqlite3.obj
 0003:0000a0bc       ??_C@_0BK@DEBKKJM@On?5tree?5page?5?$CFd?5cell?5?$CFd?3?5?$AA@ 005730bc     sqlite:sqlite3.obj
 0003:0000a0dc       ??_C@_0CG@FFKEALPN@btreeInitPage?$CI?$CJ?5returns?5error?5co@ 005730dc     sqlite:sqlite3.obj
 0003:0000a10c       ??_C@_0CG@ILLDAEJM@unable?5to?5get?5the?5page?4?5error?5co@ 0057310c     sqlite:sqlite3.obj
 0003:0000a13c       ??_C@_09OLGIMPDE@Page?5?$CFd?3?5?$AA@ 0057313c     sqlite:sqlite3.obj
 0003:0000a148       ??_C@_0DP@PJBOOLEO@Outstanding?5page?5count?5goes?5from@ 00573148     sqlite:sqlite3.obj
 0003:0000a194       ??_C@_0CC@IBCKHFBM@Pointer?5map?5page?5?$CFd?5is?5reference@ 00573194     sqlite:sqlite3.obj
 0003:0000a1bc       ??_C@_0BG@NJBAMKDO@Page?5?$CFd?5is?5never?5used?$AA@ 005731bc     sqlite:sqlite3.obj
 0003:0000a1d8       ??_C@_0BF@CFAFGJN@List?5of?5tree?5roots?3?5?$AA@ 005731d8     sqlite:sqlite3.obj
 0003:0000a1f4       ??_C@_0BA@EAICBBKE@Main?5freelist?3?5?$AA@ 005731f4     sqlite:sqlite3.obj
 0003:0000a208       ??_C@_0EB@PHGCKHIG@sqlite3_get_table?$CI?$CJ?5called?5with?5@ 00573208     sqlite:sqlite3.obj
 0003:0000a258       ??_C@_0BA@JNKNNOBA@no?5such?5vfs?3?5?$CFs?$AA@ 00573258     sqlite:sqlite3.obj
 0003:0000a26c       ??_C@_0BI@PGEAHBFI@?$CFs?5mode?5not?5allowed?3?5?$CFs?$AA@ 0057326c     sqlite:sqlite3.obj
 0003:0000a288       ??_C@_0BE@CEDEHNFE@no?5such?5?$CFs?5mode?3?5?$CFs?$AA@ 00573288     sqlite:sqlite3.obj
 0003:0000a2a0       ??_C@_06EBPNOMLE@access?$AA@ 005732a0     sqlite:sqlite3.obj
 0003:0000a2a8       ??_C@_04GMGOKAFF@mode?$AA@ 005732a8     sqlite:sqlite3.obj
 0003:0000a2b0       ??_C@_05BDNCCAMC@cache?$AA@ 005732b0     sqlite:sqlite3.obj
 0003:0000a2b8       ??_C@_0BM@COJKMEBB@invalid?5uri?5authority?3?5?$CF?4?$CKs?$AA@ 005732b8     sqlite:sqlite3.obj
 0003:0000a2dc       ??_C@_09IPAEKDAI@localhost?$AA@ 005732dc     sqlite:sqlite3.obj
 0003:0000a2e8       ??_C@_05BOPHDICO@file?3?$AA@ 005732e8     sqlite:sqlite3.obj
 0003:0000a2f0       ??_C@_08NFMECEIL@?9journal?$AA@ 005732f0     sqlite:sqlite3.obj
 0003:0000a2fc       ??_C@_09PMECONDC@?$CFs?9mj?$CF08X?$AA@ 005732fc     sqlite:sqlite3.obj
 0003:0000a308       ??_C@_08CADOGOJM@?3memory?3?$AA@ 00573308     sqlite:sqlite3.obj
 0003:0000a314       ??_C@_0BG@HKAEEBEM@database?5?$CFs?5is?5locked?$AA@ 00573314     sqlite:sqlite3.obj
 0003:0000a330       ??_C@_0CK@NCGPBHIO@cannot?5DETACH?5database?5within?5tr@ 00573330     sqlite:sqlite3.obj
 0003:0000a364       ??_C@_0BK@KGABJE@cannot?5detach?5database?5?$CFs?$AA@ 00573364     sqlite:sqlite3.obj
 0003:0000a384       ??_C@_0BF@PJFCJDG@no?5such?5database?3?5?$CFs?$AA@ 00573384     sqlite:sqlite3.obj
 0003:0000a3a0       ??_C@_0EG@GIEOJFED@unable?5to?5open?5a?5temporary?5datab@ 005733a0     sqlite:sqlite3.obj
 0003:0000a3f4       ??_C@_0DO@MAKCDDCJ@temporary?5storage?5cannot?5be?5chan@ 005733f4     sqlite:sqlite3.obj
 0003:0000a440       ??_C@_0BN@JFPIJHCG@type?$DN?8trigger?8?5AND?5name?$DN?8?$CFq?8?$AA@ 00573440     sqlite:sqlite3.obj
 0003:0000a468       ??_C@_0EA@IJNEMIHP@INSERT?5INTO?5?$CFQ?4?$CFs?5VALUES?$CI?8trigge@ 00573468     sqlite:sqlite3.obj
 0003:0000a4b4       ??_C@_0DD@GGEEKLNA@unable?5to?5close?5due?5to?5unfinishe@ 005734b4     sqlite:sqlite3.obj
 0003:0000a4f4       ??_C@_0CO@DJEIPJOF@unable?5to?5close?5due?5to?5unfinalis@ 005734f4     sqlite:sqlite3.obj
 0003:0000a52c       ??_C@_0BF@HAJMIPDB@unknown?5database?3?5?$CFs?$AA@ 0057352c     sqlite:sqlite3.obj
 0003:0000a548       ??_C@_0BE@OKPJBBEB@unknown?5database?5?$CFs?$AA@ 00573548     sqlite:sqlite3.obj
 0003:0000a560       ??_C@_0CI@IHDDPHMP@source?5and?5destination?5must?5be?5d@ 00573560     sqlite:sqlite3.obj
 0003:0000a590       ??_C@_03LIPNCMMN@tbl?$AA@  00573590     sqlite:sqlite3.obj
 0003:0000a594       ??_C@_03DAKNAIGI@idx?$AA@  00573594     sqlite:sqlite3.obj
 0003:0000a598       ??_C@_0DI@FOLLFOLB@DELETE?5FROM?5?$CFQ?4?$CFs?5WHERE?5tbl_name@ 00573598     sqlite:sqlite3.obj
 0003:0000a5dc       ??_C@_0CN@DKDOKGOO@DELETE?5FROM?5?$CFQ?4sqlite_sequence?5W@ 005735dc     sqlite:sqlite3.obj
 0003:0000a614       ??_C@_0P@GKKFBNCL@?5is?5not?5unique?$AA@ 00573614     sqlite:sqlite3.obj
 0003:0000a628       ??_C@_0BA@IJKPAPH@?5are?5not?5unique?$AA@ 00573628     sqlite:sqlite3.obj
 0003:0000a63c       ??_C@_02KEGNLNML@?0?5?$AA@ 0057363c     sqlite:sqlite3.obj
 0003:0000a640       ??_C@_07OJMCPGAK@column?5?$AA@ 00573640     sqlite:sqlite3.obj
 0003:0000a64c       ??_C@_08BLECJPKD@columns?5?$AA@ 0057364c     sqlite:sqlite3.obj
 0003:0000a658       ??_C@_0BL@MIGFAHKG@PRIMARY?5KEY?5must?5be?5unique?$AA@ 00573658     sqlite:sqlite3.obj
 0003:0000a678       ??_C@_0BG@OAHBMIAD@?$CFs?4?$CFs?5may?5not?5be?5NULL?$AA@ 00573678     sqlite:sqlite3.obj
 0003:0000a694       ??_C@_0BO@EBFEALBC@database?5schema?5is?5locked?3?5?$CFs?$AA@ 00573694     sqlite:sqlite3.obj
 0003:0000a6b8       ??_C@_0BD@NDJILONF@statement?5too?5long?$AA@ 005736b8     sqlite:sqlite3.obj
 0003:0000a6d0       ??_C@_0LI@DFGNFIOM@INSERT?5INTO?5vacuum_db?4sqlite_mas@ 005736d0     sqlite:sqlite3.obj
 0003:0000a7b0       ??_C@_0JL@BNIMKHIL@SELECT?5?8INSERT?5INTO?5vacuum_db?4?8?5@ 005737b0     sqlite:sqlite3.obj
 0003:0000a870       ??_C@_0HB@CJENIKHO@SELECT?5?8DELETE?5FROM?5vacuum_db?4?8?5@ 00573870     sqlite:sqlite3.obj
 0003:0000a8f8       ??_C@_0LI@KDJAMIMI@SELECT?5?8INSERT?5INTO?5vacuum_db?4?8?5@ 005738f8     sqlite:sqlite3.obj
 0003:0000a9d8       ??_C@_0HG@GKDDPPFI@SELECT?5?8CREATE?5UNIQUE?5INDEX?5vacu@ 005739d8     sqlite:sqlite3.obj
 0003:0000aa68       ??_C@_0GI@FEDHFMIE@SELECT?5?8CREATE?5INDEX?5vacuum_db?4?8@ 00573a68     sqlite:sqlite3.obj
 0003:0000aae8       ??_C@_0II@FEBAKHNN@SELECT?5?8CREATE?5TABLE?5vacuum_db?4?8@ 00573ae8     sqlite:sqlite3.obj
 0003:0000ab8c       ??_C@_0BB@JEGCAHMF@BEGIN?5EXCLUSIVE?$DL?$AA@ 00573b8c     sqlite:sqlite3.obj
 0003:0000aba0       ??_C@_0CB@NBNOHMDI@PRAGMA?5vacuum_db?4synchronous?$DNOFF@ 00573ba0     sqlite:sqlite3.obj
 0003:0000abc8       ??_C@_0BI@OOHLJPLG@ATTACH?5?8?8?5AS?5vacuum_db?$DL?$AA@ 00573bc8     sqlite:sqlite3.obj
 0003:0000abe4       ??_C@_0CA@LDLCFKGD@ATTACH?5?8?3memory?3?8?5AS?5vacuum_db?$DL?$AA@ 00573be4     sqlite:sqlite3.obj
 0003:0000ac0c       ??_C@_0CL@HKLPPLKM@cannot?5VACUUM?5?9?5SQL?5statements?5i@ 00573c0c     sqlite:sqlite3.obj
 0003:0000ac40       ??_C@_0CI@CPMJIPOI@cannot?5VACUUM?5from?5within?5a?5tran@ 00573c40     sqlite:sqlite3.obj
 0003:0000ac70       ??_C@_04GHJNJNPO@main?$AA@ 00573c70     sqlite:sqlite3.obj
 0003:0000ac78       ??_C@_06FHKGKAHE@NOCASE?$AA@ 00573c78     sqlite:sqlite3.obj
 0003:0000ac80       ??_C@_05JJHANOIF@RTRIM?$AA@ 00573c80     sqlite:sqlite3.obj
 0003:0000ac88       ??_C@_0DC@JGGJAPOJ@RAISE?$CI?$CJ?5may?5only?5be?5used?5within?5@ 00573c88     sqlite:sqlite3.obj
 0003:0000acc4       ??_C@_0BJ@HFDHLKDG@unknown?5function?3?5?$CF?4?$CKs?$CI?$CJ?$AA@ 00573cc4     sqlite:sqlite3.obj
 0003:0000ace4       ??_C@_0BK@BMEAFNCN@misuse?5of?5aggregate?3?5?$CFs?$CI?$CJ?$AA@ 00573ce4     sqlite:sqlite3.obj
 0003:0000ad04       ??_C@_0BB@JDJPANJL@invalid?5rootpage?$AA@ 00573d04     sqlite:sqlite3.obj
 0003:0000ad18       ??_C@_0CA@CCGMBGM@constraint?5failed?5at?5?$CFd?5in?5?$FL?$CFs?$FN?$AA@ 00573d18     sqlite:sqlite3.obj
 0003:0000ad40       ??_C@_0BI@CKCEIKAL@abort?5at?5?$CFd?5in?5?$FL?$CFs?$FN?3?5?$CFs?$AA@ 00573d40     sqlite:sqlite3.obj
 0003:0000ad5c       ??_C@_0BN@JOIFECGM@database?5table?5is?5locked?3?5?$CFs?$AA@ 00573d5c     sqlite:sqlite3.obj
 0003:0000ad80       ??_C@_0DE@KIPNAMAA@cannot?5change?5?$CFs?5wal?5mode?5from?5w@ 00573d80     sqlite:sqlite3.obj
 0003:0000adc0       ??_C@_06JIMOCJPC@out?5of?$AA@ 00573dc0     sqlite:sqlite3.obj
 0003:0000adc8       ??_C@_04MHJLCKAK@into?$AA@ 00573dc8     sqlite:sqlite3.obj
 0003:0000add0       ??_C@_0CF@DBNDEPJP@too?5many?5levels?5of?5trigger?5recur@ 00573dd0     sqlite:sqlite3.obj
 0003:0000ae00       ??_C@_0EA@GFNDAJBJ@SELECT?5name?0?5rootpage?0?5sql?5FROM?5@ 00573e00     sqlite:sqlite3.obj
 0003:0000ae4c       ??_C@_0CJ@LALCBGBP@cannot?5commit?5?9?5no?5transaction?5i@ 00573e4c     sqlite:sqlite3.obj
 0003:0000ae80       ??_C@_0CL@DIEDEFLK@cannot?5rollback?5?9?5no?5transaction@ 00573e80     sqlite:sqlite3.obj
 0003:0000aeb4       ??_C@_0DH@EPKPHENF@cannot?5commit?5transaction?5?9?5SQL?5@ 00573eb4     sqlite:sqlite3.obj
 0003:0000aef8       ??_C@_0DA@CKKHGBEC@cannot?5start?5a?5transaction?5withi@ 00573ef8     sqlite:sqlite3.obj
 0003:0000af34       ??_C@_0DJ@CDFBKAJM@cannot?5rollback?5transaction?5?9?5SQ@ 00573f34     sqlite:sqlite3.obj
 0003:0000af78       ??_C@_0DB@KFLDHDBK@cannot?5?$CFs?5savepoint?5?9?5SQL?5statem@ 00573f78     sqlite:sqlite3.obj
 0003:0000afb4       ??_C@_07EOGFDLKI@release?$AA@ 00573fb4     sqlite:sqlite3.obj
 0003:0000afc0       ??_C@_08FBLICIPL@rollback?$AA@ 00573fc0     sqlite:sqlite3.obj
 0003:0000afcc       ??_C@_0BG@NADCOEGF@no?5such?5savepoint?3?5?$CFs?$AA@ 00573fcc     sqlite:sqlite3.obj
 0003:0000afe8       ??_C@_0DD@EHMCJFDN@cannot?5open?5savepoint?5?9?5SQL?5stat@ 00573fe8     sqlite:sqlite3.obj
 0003:0000b028       ??_C@_0CA@JGFGBIFL@statement?5aborts?5at?5?$CFd?3?5?$FL?$CFs?$FN?5?$CFs?$AA@ 00574028     sqlite:sqlite3.obj
 0003:0000b050       ??_C@_0BF@CGOICHOE@cannot?5use?5index?3?5?$CFs?$AA@ 00574050     sqlite:sqlite3.obj
 0003:0000b06c       ??_C@_0BM@BLDEAGOK@at?5most?5?$CFd?5tables?5in?5a?5join?$AA@ 0057406c     sqlite:sqlite3.obj
 0003:0000b090       ??_C@_0BE@PGLAJEIK@no?5such?5rowid?3?5?$CFlld?$AA@ 00574090     sqlite:sqlite3.obj
 0003:0000b0a8       ??_C@_0BN@OFFACDFM@cannot?5open?5value?5of?5type?5?$CFs?$AA@ 005740a8     sqlite:sqlite3.obj
 0003:0000b0cc       ??_C@_0DH@EMHOBABL@SELECT?5name?0?5rootpage?0?5sql?5FROM?5@ 005740cc     sqlite:sqlite3.obj
 0003:0000b110       ??_C@_0BI@FFDCNLCF@unsupported?5file?5format?$AA@ 00574110     sqlite:sqlite3.obj
 0003:0000b130       ??_C@_0EE@MLIDCBJA@attached?5databases?5must?5use?5the?5@ 00574130     sqlite:sqlite3.obj
 0003:0000b184       ??_C@_0BE@ELCABEID@no?5such?5trigger?3?5?$CFS?$AA@ 00574184     sqlite:sqlite3.obj
 0003:0000b19c       ??_C@_0BM@JECJFHOP@unable?5to?5open?5database?3?5?$CFs?$AA@ 0057419c     sqlite:sqlite3.obj
 0003:0000b1c0       ??_C@_0BN@IAAPNCPC@database?5is?5already?5attached?$AA@ 005741c0     sqlite:sqlite3.obj
 0003:0000b1e4       ??_C@_0BO@FOBANNIG@database?5?$CFs?5is?5already?5in?5use?$AA@ 005741e4     sqlite:sqlite3.obj
 0003:0000b208       ??_C@_0CK@JEFPBLHB@cannot?5ATTACH?5database?5within?5tr@ 00574208     sqlite:sqlite3.obj
 0003:0000b23c       ??_C@_0CF@FLFLBLIN@too?5many?5attached?5databases?5?9?5ma@ 0057423c     sqlite:sqlite3.obj
 0003:0000b268       ??_C@_0O@HKMEEONL@no?5such?5table?$AA@ 00574268     sqlite:sqlite3.obj
 0003:0000b278       ??_C@_0N@IAMBEAMM@no?5such?5view?$AA@ 00574278     sqlite:sqlite3.obj
 0003:0000b288       ??_C@_0BA@KDDGKFDH@sqlite_sequence?$AA@ 00574288     sqlite:sqlite3.obj
 0003:0000b29c       ??_C@_0CD@FJHICPML@there?5is?5already?5an?5index?5named?5@ 0057429c     sqlite:sqlite3.obj
 0003:0000b2c8       ??_C@_0BI@NMBJKJHP@table?5?$CFT?5already?5exists?$AA@ 005742c8     sqlite:sqlite3.obj
 0003:0000b2e4       ??_C@_0CJ@GGBIBJLH@temporary?5table?5name?5must?5be?5unq@ 005742e4     sqlite:sqlite3.obj
 0003:0000b318       ??_C@_0DB@DNHAJCKG@DELETE?5FROM?5?$CFQ?4?$CFs?5WHERE?5name?$DN?$CFQ?5@ 00574318     sqlite:sqlite3.obj
 0003:0000b358       ??_C@_0EJ@MFMNFJHB@index?5associated?5with?5UNIQUE?5or?5@ 00574358     sqlite:sqlite3.obj
 0003:0000b3b0       ??_C@_0BC@JBPCAJCH@no?5such?5index?3?5?$CFS?$AA@ 005743b0     sqlite:sqlite3.obj
 0003:0000b3c8       ??_C@_0CO@PMBDNHDC@unable?5to?5identify?5the?5object?5to@ 005743c8     sqlite:sqlite3.obj
 0003:0000b400       ??_C@_0BP@JFMLENOH@too?5many?5columns?5in?5result?5set?$AA@ 00574400     sqlite:sqlite3.obj
 0003:0000b428       ??_C@_0BE@EGLAAHPP@no?5tables?5specified?$AA@ 00574428     sqlite:sqlite3.obj
 0003:0000b440       ??_C@_0BC@OFCALFBN@no?5such?5table?3?5?$CFs?$AA@ 00574440     sqlite:sqlite3.obj
 0003:0000b458       ??_C@_0BE@EGABPGJI@sqlite_subquery_?$CFp_?$AA@ 00574458     sqlite:sqlite3.obj
 0003:0000b470       ??_C@_08BKIJJFKP@ORDER?5BY?$AA@ 00574470     sqlite:sqlite3.obj
 0003:0000b47c       ??_C@_08NKEADCLG@GROUP?5BY?$AA@ 0057447c     sqlite:sqlite3.obj
 0003:0000b488       ??_C@_08KLFLGHKI@DISTINCT?$AA@ 00574488     sqlite:sqlite3.obj
 0003:0000b498       __real@4059000000000000    00574498     sqlite:sqlite3.obj
 0003:0000b4a4       ??_C@_0CC@DHLFNDIF@too?5many?5terms?5in?5compound?5SELEC@ 005744a4     sqlite:sqlite3.obj
 0003:0000b4cc       ??_C@_0CO@GJNALGCE@cannot?5create?5INSTEAD?5OF?5trigger@ 005744cc     sqlite:sqlite3.obj
 0003:0000b504       ??_C@_0CF@CNPIEMED@cannot?5create?5?$CFs?5trigger?5on?5view@ 00574504     sqlite:sqlite3.obj
 0003:0000b530       ??_C@_05OHDJMCHE@AFTER?$AA@ 00574530     sqlite:sqlite3.obj
 0003:0000b538       ??_C@_06BIGAHLBC@BEFORE?$AA@ 00574538     sqlite:sqlite3.obj
 0003:0000b540       ??_C@_0CG@JAGCNIHD@cannot?5create?5trigger?5on?5system?5@ 00574540     sqlite:sqlite3.obj
 0003:0000b570       ??_C@_0BK@IACDKJFA@trigger?5?$CFT?5already?5exists?$AA@ 00574570     sqlite:sqlite3.obj
 0003:0000b590       ??_C@_0CJ@KLDCMPKB@cannot?5create?5triggers?5on?5virtua@ 00574590     sqlite:sqlite3.obj
 0003:0000b5c4       ??_C@_0CO@CGGBEMGD@temporary?5trigger?5may?5not?5have?5q@ 005745c4     sqlite:sqlite3.obj
 0003:0000b5fc       ??_C@_07OLKPBLEA@_rowid_?$AA@ 005745fc     sqlite:sqlite3.obj
 0003:0000b608       ??_C@_0CC@PCDMPIAA@cannot?5open?5?$CFs?5column?5for?5writin@ 00574608     sqlite:sqlite3.obj
 0003:0000b630       ??_C@_0BF@IFOHJMAC@no?5such?5column?3?5?$CC?$CFs?$CC?$AA@ 00574630     sqlite:sqlite3.obj
 0003:0000b64c       ??_C@_0BF@LEHNPEDD@cannot?5open?5view?3?5?$CFs?$AA@ 0057464c     sqlite:sqlite3.obj
 0003:0000b668       ??_C@_0BO@BCBGJJEM@cannot?5open?5virtual?5table?3?5?$CFs?$AA@ 00574668     sqlite:sqlite3.obj
 0003:0000b68c       ??_C@_07KNEBDGNE@indexed?$AA@ 0057468c     sqlite:sqlite3.obj
 0003:0000b698       ??_C@_0M@EKGNDAGL@foreign?5key?$AA@ 00574698     sqlite:sqlite3.obj
 0003:0000b6a8       ??_C@_0BD@PKLNNDD@sqlite_altertab_?$CFs?$AA@ 005746a8     sqlite:sqlite3.obj
 0003:0000b6c0       ??_C@_0BO@IKHDEECD@Cannot?5add?5a?5column?5to?5a?5view?$AA@ 005746c0     sqlite:sqlite3.obj
 0003:0000b6e4       ??_C@_0CC@HCCMFAJP@virtual?5tables?5may?5not?5be?5altere@ 005746e4     sqlite:sqlite3.obj
 0003:0000b70c       ??_C@_0BL@CHCJOOMG@name?$DN?8?$CFq?8?5AND?5type?$DN?8index?8?$AA@ 0057470c     sqlite:sqlite3.obj
 0003:0000b72c       ??_C@_0DA@DLDDDEKN@INSERT?5INTO?5?$CFQ?4?$CFs?5VALUES?$CI?8index?8@ 0057472c     sqlite:sqlite3.obj
 0003:0000b768       ??_C@_0BE@NHCJMGDI@CREATE?$CFs?5INDEX?5?$CF?4?$CKs?$AA@ 00574768     sqlite:sqlite3.obj
 0003:0000b780       ??_C@_07OGDPOKCI@?5UNIQUE?$AA@ 00574780     sqlite:sqlite3.obj
 0003:0000b78c       ??_C@_0CK@BPKJMBLB@conflicting?5ON?5CONFLICT?5clauses?5@ 0057478c     sqlite:sqlite3.obj
 0003:0000b7c0       ??_C@_0CA@MKEFOFFD@table?5?$CFs?5has?5no?5column?5named?5?$CFs?$AA@ 005747c0     sqlite:sqlite3.obj
 0003:0000b7e8       ??_C@_0BH@HCCALECK@sqlite_autoindex_?$CFs_?$CFd?$AA@ 005747e8     sqlite:sqlite3.obj
 0003:0000b804       ??_C@_0BI@HPCDPJFN@index?5?$CFs?5already?5exists?$AA@ 00574804     sqlite:sqlite3.obj
 0003:0000b820       ??_C@_0CC@CKJEJGLG@there?5is?5already?5a?5table?5named?5?$CF@ 00574820     sqlite:sqlite3.obj
 0003:0000b848       ??_C@_0CC@FKDNLIPM@virtual?5tables?5may?5not?5be?5indexe@ 00574848     sqlite:sqlite3.obj
 0003:0000b870       ??_C@_0BJ@CFGNJLOC@views?5may?5not?5be?5indexed?$AA@ 00574870     sqlite:sqlite3.obj
 0003:0000b890       ??_C@_0BM@KIGEJLNH@table?5?$CFs?5may?5not?5be?5indexed?$AA@ 00574890     sqlite:sqlite3.obj
 0003:0000b8b4       ??_C@_09NGMBFCCJ@altertab_?$AA@ 005748b4     sqlite:sqlite3.obj
 0003:0000b8c0       ??_C@_05FKHKFDID@index?$AA@ 005748c0     sqlite:sqlite3.obj
 0003:0000b8c8       ??_C@_0DI@IAIBDBA@AUTOINCREMENT?5is?5only?5allowed?5on@ 005748c8     sqlite:sqlite3.obj
 0003:0000b90c       ??_C@_0CJ@LEOOFHMA@table?5?$CC?$CFs?$CC?5has?5more?5than?5one?5pri@ 0057490c     sqlite:sqlite3.obj
 0003:0000b940       ??_C@_0O@LAHPKCHN@tbl_name?$DN?8?$CFq?8?$AA@ 00574940     sqlite:sqlite3.obj
 0003:0000b950       ??_C@_0CK@BLJIJAMD@CREATE?5TABLE?5?$CFQ?4sqlite_sequence?$CI@ 00574950     sqlite:sqlite3.obj
 0003:0000b988       ??_C@_0FH@BLIGLCKI@UPDATE?5?$CFQ?4?$CFs?5SET?5type?$DN?8?$CFs?8?0?5name@ 00574988     sqlite:sqlite3.obj
 0003:0000b9f0       ??_C@_0P@BPBAOJCC@CREATE?5?$CFs?5?$CF?4?$CKs?$AA@ 005749f0     sqlite:sqlite3.obj
 0003:0000ba04       ??_C@_04OLDJKBIG@VIEW?$AA@ 00574a04     sqlite:sqlite3.obj
 0003:0000ba0c       ??_C@_04CHADEDPO@view?$AA@ 00574a0c     sqlite:sqlite3.obj
 0003:0000ba14       ??_C@_05HJCCDKBG@TABLE?$AA@ 00574a14     sqlite:sqlite3.obj
 0003:0000ba1c       ??_C@_05LCLENNFI@table?$AA@ 00574a1c     sqlite:sqlite3.obj
 0003:0000ba24       ??_C@_0BO@BLAOKNKN@view?5?$CFs?5is?5circularly?5defined?$AA@ 00574a24     sqlite:sqlite3.obj
 0003:0000ba48       ??_C@_0O@OMFDFDMH@rows?5inserted?$AA@ 00574a48     sqlite:sqlite3.obj
 0003:0000ba58       ??_C@_0CA@HKGLKLIP@table?5?$CFS?5has?5no?5column?5named?5?$CFs?$AA@ 00574a58     sqlite:sqlite3.obj
 0003:0000ba80       ??_C@_0BJ@IABIHKKK@?$CFd?5values?5for?5?$CFd?5columns?$AA@ 00574a80     sqlite:sqlite3.obj
 0003:0000baa0       ??_C@_0DE@HLHNLKJ@table?5?$CFS?5has?5?$CFd?5columns?5but?5?$CFd?5v@ 00574aa0     sqlite:sqlite3.obj
 0003:0000bae0       ??_C@_02MFDMBIJM@ok?$AA@   00574ae0     sqlite:sqlite3.obj
 0003:0000bae4       ??_C@_0BN@JKHLHJNK@wrong?5?$CD?5of?5entries?5in?5index?5?$AA@ 00574ae4     sqlite:sqlite3.obj
 0003:0000bb08       ??_C@_0BF@JGBLFHJL@?5missing?5from?5index?5?$AA@ 00574b08     sqlite:sqlite3.obj
 0003:0000bb24       ??_C@_06DHEAJPAE@rowid?5?$AA@ 00574b24     sqlite:sqlite3.obj
 0003:0000bb2c       ??_C@_0BI@FOLPKNAK@?$CK?$CK?$CK?5in?5database?5?$CFs?5?$CK?$CK?$CK?6?$AA@ 00574b2c     sqlite:sqlite3.obj
 0003:0000bb48       ??_C@_0BD@JPABJEAI@wal_autocheckpoint?$AA@ 00574b48     sqlite:sqlite3.obj
 0003:0000bb60       ??_C@_0N@NLAOCFOK@checkpointed?$AA@ 00574b60     sqlite:sqlite3.obj
 0003:0000bb70       ??_C@_03MGHMBJCF@log?$AA@  00574b70     sqlite:sqlite3.obj
 0003:0000bb74       ??_C@_04COIEGINH@busy?$AA@ 00574b74     sqlite:sqlite3.obj
 0003:0000bb7c       ??_C@_07LDHOHMPD@restart?$AA@ 00574b7c     sqlite:sqlite3.obj
 0003:0000bb88       ??_C@_0P@OLFGCBDE@wal_checkpoint?$AA@ 00574b88     sqlite:sqlite3.obj
 0003:0000bb9c       ??_C@_0P@DCFGLPDE@compile_option?$AA@ 00574b9c     sqlite:sqlite3.obj
 0003:0000bbb0       ??_C@_0BA@CFJEIIDP@compile_options?$AA@ 00574bb0     sqlite:sqlite3.obj
 0003:0000bbc4       ??_C@_0P@GDKICNML@freelist_count?$AA@ 00574bc4     sqlite:sqlite3.obj
 0003:0000bbd8       ??_C@_0N@MPKCHLKL@user_version?$AA@ 00574bd8     sqlite:sqlite3.obj
 0003:0000bbe8       ??_C@_0P@JGMMHBPP@schema_version?$AA@ 00574be8     sqlite:sqlite3.obj
 0003:0000bbfc       ??_C@_0BJ@GJBMJNNI@unsupported?5encoding?3?5?$CFs?$AA@ 00574bfc     sqlite:sqlite3.obj
 0003:0000bc1c       ??_C@_08MLPGAEIK@encoding?$AA@ 00574c1c     sqlite:sqlite3.obj
 0003:0000bc28       ??_C@_0M@EDPCDMIO@quick_check?$AA@ 00574c28     sqlite:sqlite3.obj
 0003:0000bc38       ??_C@_0BA@EDNFHOBJ@integrity_check?$AA@ 00574c38     sqlite:sqlite3.obj
 0003:0000bc4c       ??_C@_0BE@LKBHCIHN@case_sensitive_like?$AA@ 00574c4c     sqlite:sqlite3.obj
 0003:0000bc64       ??_C@_04OKGDLNCL@NONE?$AA@ 00574c64     sqlite:sqlite3.obj
 0003:0000bc6c       ??_C@_09BILGEHCE@on_delete?$AA@ 00574c6c     sqlite:sqlite3.obj
 0003:0000bc78       ??_C@_09DFBGJPOA@on_update?$AA@ 00574c78     sqlite:sqlite3.obj
 0003:0000bc84       ??_C@_02LBCDJBAJ@to?$AA@   00574c84     sqlite:sqlite3.obj
 0003:0000bc88       ??_C@_02EGCJHIOB@id?$AA@   00574c88     sqlite:sqlite3.obj
 0003:0000bc8c       ??_C@_0BB@KJMCGNAI@foreign_key_list?$AA@ 00574c8c     sqlite:sqlite3.obj
 0003:0000bca0       ??_C@_0P@KOJNIGCH@collation_list?$AA@ 00574ca0     sqlite:sqlite3.obj
 0003:0000bcb4       ??_C@_0O@EBMNDACF@database_list?$AA@ 00574cb4     sqlite:sqlite3.obj
 0003:0000bcc4       ??_C@_06ODCMFGLL@unique?$AA@ 00574cc4     sqlite:sqlite3.obj
 0003:0000bccc       ??_C@_03NPAJGOON@seq?$AA@  00574ccc     sqlite:sqlite3.obj
 0003:0000bcd0       ??_C@_0L@MMBMMAEK@index_list?$AA@ 00574cd0     sqlite:sqlite3.obj
 0003:0000bce0       ??_C@_05OBPGIPLF@seqno?$AA@ 00574ce0     sqlite:sqlite3.obj
 0003:0000bce8       ??_C@_0L@CKPANNIC@index_info?$AA@ 00574ce8     sqlite:sqlite3.obj
 0003:0000bcf8       ??_C@_02NCEGPMNB@pk?$AA@   00574cf8     sqlite:sqlite3.obj
 0003:0000bcfc       ??_C@_0L@KNDFGGNJ@dflt_value?$AA@ 00574cfc     sqlite:sqlite3.obj
 0003:0000bd0c       ??_C@_07EAJHGOKJ@notnull?$AA@ 00574d0c     sqlite:sqlite3.obj
 0003:0000bd18       ??_C@_04GPMDFGEJ@type?$AA@ 00574d18     sqlite:sqlite3.obj
 0003:0000bd20       ??_C@_04MEMAJGDJ@name?$AA@ 00574d20     sqlite:sqlite3.obj
 0003:0000bd28       ??_C@_03LBLPCGAC@cid?$AA@  00574d28     sqlite:sqlite3.obj
 0003:0000bd2c       ??_C@_0L@NEMFJAGM@table_info?$AA@ 00574d2c     sqlite:sqlite3.obj
 0003:0000bd3c       ??_C@_0DF@GMDBDCKL@Safety?5level?5may?5not?5be?5changed?5@ 00574d3c     sqlite:sqlite3.obj
 0003:0000bd7c       ??_C@_0M@GKGFOGDE@synchronous?$AA@ 00574d7c     sqlite:sqlite3.obj
 0003:0000bd8c       ??_C@_0BJ@INLPNACB@not?5a?5writable?5directory?$AA@ 00574d8c     sqlite:sqlite3.obj
 0003:0000bdac       ??_C@_0BF@OPALIJKE@temp_store_directory?$AA@ 00574dac     sqlite:sqlite3.obj
 0003:0000bdc8       ??_C@_0L@JEPCDDIC@temp_store?$AA@ 00574dc8     sqlite:sqlite3.obj
 0003:0000bdd8       ??_C@_0BD@IEMDKFHA@incremental_vacuum?$AA@ 00574dd8     sqlite:sqlite3.obj
 0003:0000bdf0       ??_C@_0M@ENMLGDH@auto_vacuum?$AA@ 00574df0     sqlite:sqlite3.obj
 0003:0000be00       ??_C@_0BD@MCBLCGGI@journal_size_limit?$AA@ 00574e00     sqlite:sqlite3.obj
 0003:0000be18       ??_C@_0N@IPLFJDHP@journal_mode?$AA@ 00574e18     sqlite:sqlite3.obj
 0003:0000be28       ??_C@_0N@NOOMDJH@locking_mode?$AA@ 00574e28     sqlite:sqlite3.obj
 0003:0000be38       ??_C@_0P@FMLMLOHD@max_page_count?$AA@ 00574e38     sqlite:sqlite3.obj
 0003:0000be4c       ??_C@_0L@OBBCDPFM@page_count?$AA@ 00574e4c     sqlite:sqlite3.obj
 0003:0000be5c       ??_C@_0O@CPOJHNIK@secure_delete?$AA@ 00574e5c     sqlite:sqlite3.obj
 0003:0000be6c       ??_C@_09OGOMKHMG@page_size?$AA@ 00574e6c     sqlite:sqlite3.obj
 0003:0000be78       ??_C@_0L@JIGNFOJJ@cache_size?$AA@ 00574e78     sqlite:sqlite3.obj
 0003:0000be88       ??_C@_0BD@EMJOENCP@default_cache_size?$AA@ 00574e88     sqlite:sqlite3.obj
 0003:0000bea0       ??_C@_03GMLCELFL@?9?$CFT?$AA@ 00574ea0     sqlite:sqlite3.obj
 0003:0000bea4       ??_C@_0N@KMEMLEEO@rows?5updated?$AA@ 00574ea4     sqlite:sqlite3.obj
 0003:0000beb4       ??_C@_0BD@IEIMFPKF@no?5such?5column?3?5?$CFs?$AA@ 00574eb4     sqlite:sqlite3.obj
 0003:0000becc       ??_C@_0DL@DAEIJKNC@there?5is?5already?5another?5table?5o@ 00574ecc     sqlite:sqlite3.obj
 0003:0000bf18       ??_C@_0FM@GJOILOPP@UPDATE?5sqlite_temp_master?5SET?5sq@ 00574f18     sqlite:sqlite3.obj
 0003:0000bf88       ??_C@_0DK@NPMGFNPC@UPDATE?5?$CC?$CFw?$CC?4sqlite_sequence?5set?5@ 00574f88     sqlite:sqlite3.obj
 0003:0000bfd0       ??_C@_0BHB@KHLCLKBH@UPDATE?5?$CFQ?4?$CFs?5SET?5sql?5?$DN?5CASE?5WHEN@ 00574fd0     sqlite:sqlite3.obj
 0003:0000c190       ??_C@_0EF@LBDFNLNO@UPDATE?5?$CC?$CFw?$CC?4?$CFs?5SET?5sql?5?$DN?5sqlite_@ 00575190     sqlite:sqlite3.obj
 0003:0000c1e4       ??_C@_0BL@FIDIAKLG@view?5?$CFs?5may?5not?5be?5altered?$AA@ 005751e4     sqlite:sqlite3.obj
 0003:0000c204       ??_C@_0CE@HIMMFEMD@parameters?5are?5not?5allowed?5in?5vi@ 00575204     sqlite:sqlite3.obj
 0003:0000c230       ??_C@_0O@JKBKLFDA@?9?9?5TRIGGER?5?$CFs?$AA@ 00575230     sqlite:sqlite3.obj
 0003:0000c240       ??_C@_0N@DAGIBCDP@rows?5deleted?$AA@ 00575240     sqlite:sqlite3.obj
 0003:0000c250       ??_C@_0CA@FJIHAAAA@use?5DROP?5VIEW?5to?5delete?5view?5?$CFs?$AA@ 00575250     sqlite:sqlite3.obj
 0003:0000c278       ??_C@_0CC@HNNEDPB@use?5DROP?5TABLE?5to?5delete?5table?5?$CF@ 00575278     sqlite:sqlite3.obj
 0003:0000c2a0       ??_C@_0BM@JEGMLIGC@table?5?$CFs?5may?5not?5be?5dropped?$AA@ 005752a0     sqlite:sqlite3.obj
 0003:0000c2c4       ??_C@_0M@IHGMMCJN@sqlite_stat?$AA@ 005752c4     sqlite:sqlite3.obj
 0003:0000c2d8       ??_C@_0FF@IPEGLKPG@the?5NOT?5INDEXED?5clause?5is?5not?5al@ 005752d8     sqlite:sqlite3.obj
 0003:0000c340       ??_C@_0FE@ONDNFGPP@the?5INDEXED?5BY?5clause?5is?5not?5all@ 00575340     sqlite:sqlite3.obj
 0003:0000c3a8       ??_C@_0FP@BDHEAEAL@qualified?5table?5names?5are?5not?5al@ 005753a8     sqlite:sqlite3.obj
 0003:0000c41c       ??_C@_0CC@BHLMPGNH@too?5many?5arguments?5on?5function?5?$CF@ 0057541c     sqlite:sqlite3.obj
 0003:0000c444       ??_C@_08FAFAADKO@set?5list?$AA@ 00575444     sqlite:sqlite3.obj
 0003:0000c450       ??_C@_0BJ@EMNEDDKJ@unrecognized?5token?3?5?$CC?$CFT?$CC?$AA@ 00575450     sqlite:sqlite3.obj
 0003:0000c470       ??_C@_09NCAJIFEE@interrupt?$AA@ 00575470     sqlite:sqlite3.obj
 0003:0000c480       ??_7funcSingle@@6B@        00575480     rmx sdk:funcSingle.obj
 0003:0000c4b0       ??_7funcSingle@@6BrmxString@@@ 005754b0     rmx sdk:funcSingle.obj
 0003:0000c4bc       ??_7funcSingle@@6BrmxData@@@ 005754bc     rmx sdk:funcSingle.obj
 0003:0000c500       __real@c049000000000000    00575500     rmx sdk:funcSingle.obj
 0003:0000c510       __real@4049000000000000    00575510     rmx sdk:funcSingle.obj
 0003:0000c51c       ??_C@_08NCJMCBDF@relative?$AA@ 0057551c     rmx sdk:funcSingle.obj
 0003:0000c528       ??_C@_08KPFDDLMF@absolute?$AA@ 00575528     rmx sdk:funcSingle.obj
 0003:0000c538       __real@4039000000000000    00575538     rmx sdk:funcSingle.obj
 0003:0000c548       __real@4052c00000000000    00575548     rmx sdk:funcSingle.obj
 0003:0000c554       ??_C@_05HDBKIDE@state?$AA@ 00575554     rmx sdk:funcSingle.obj
 0003:0000c560       ??_7funcBase@@6B@          00575560     rmx sdk:funcBase.obj
 0003:0000c590       ??_7funcBase@@6BrmxString@@@ 00575590     rmx sdk:funcBase.obj
 0003:0000c59c       ??_7funcBase@@6BrmxData@@@ 0057559c     rmx sdk:funcBase.obj
 0003:0000c5dc       ??_7cbBase@@6B@            005755dc     rmx sdk:cbBase.obj
 0003:0000c60c       ??_7?$rmxList@PAVcfgBase@@@@6B@ 0057560c     rmx sdk:cbBase.obj
 0003:0000c620       ??_7rmxData@@6B@           00575620     rmx sdk:rmxData.obj
 0003:0000c62c       ??_C@_05LLAMLEHD@?$CFI64d?$AA@ 0057562c     rmx sdk:rmxData.obj
 0003:0000c634       ??_C@_03CEOFAKMH@?$CF4c?$AA@ 00575634     rmx sdk:rmxData.obj
 0003:0000c638       ??_C@_03NJKJADM@not?$AA@   00575638     rmx sdk:rmxData.obj
 0003:0000c63c       ??_C@_07INFCJLKD@inverse?$AA@ 0057563c     rmx sdk:rmxData.obj
 0003:0000c648       ??_C@_06CIAPFFAP@invert?$AA@ 00575648     rmx sdk:rmxData.obj
 0003:0000c650       ??_C@_06FHLCKAHH@toggle?$AA@ 00575650     rmx sdk:rmxData.obj
 0003:0000c658       ??_C@_02PGHGPEOM@?91?$AA@  00575658     rmx sdk:rmxData.obj
 0003:0000c65c       ??_C@_06JDKABGKH@cancel?$AA@ 0057565c     rmx sdk:rmxData.obj
 0003:0000c664       ??_C@_08BEHKFNNO@disabled?$AA@ 00575664     rmx sdk:rmxData.obj
 0003:0000c670       ??_C@_07DBNODEFN@disable?$AA@ 00575670     rmx sdk:rmxData.obj
 0003:0000c67c       ??_C@_05LAPONLG@false?$AA@ 0057567c     rmx sdk:rmxData.obj
 0003:0000c684       ??_C@_02KAJCLHKP@no?$AA@   00575684     rmx sdk:rmxData.obj
 0003:0000c688       ??_C@_03ILAMHENH@nil?$AA@  00575688     rmx sdk:rmxData.obj
 0003:0000c68c       ??_C@_06MPKMECK@accept?$AA@ 0057568c     rmx sdk:rmxData.obj
 0003:0000c694       ??_C@_07MHHIKOPA@enabled?$AA@ 00575694     rmx sdk:rmxData.obj
 0003:0000c6a0       ??_C@_06OFNJOBDK@enable?$AA@ 005756a0     rmx sdk:rmxData.obj
 0003:0000c6a8       ??_C@_04LOAJBDKD@true?$AA@ 005756a8     rmx sdk:rmxData.obj
 0003:0000c6b0       ??_C@_03ICICOMAL@yes?$AA@  005756b0     rmx sdk:rmxData.obj
 0003:0000c6b4       ??_C@_07DLHCIBDH@default?$AA@ 005756b4     rmx sdk:funcParam.obj
 0003:0000c6c0       ??_C@_06EMCDFPCG@suffix?$AA@ 005756c0     rmx sdk:funcParam.obj
 0003:0000c6c8       ??_C@_06CHGOAPND@prefix?$AA@ 005756c8     rmx sdk:funcParam.obj
 0003:0000c6d0       ??_C@_09CLOHNEBF@paramname?$AA@ 005756d0     rmx sdk:funcParam.obj
 0003:0000c6e0       ??_7funcParam@@6B@         005756e0     rmx sdk:funcParam.obj
 0003:0000c710       ??_7funcParam@@6BrmxString@@@ 00575710     rmx sdk:funcParam.obj
 0003:0000c71c       ??_7funcParam@@6BrmxData@@@ 0057571c     rmx sdk:funcParam.obj
 0003:0000c74c       ??_C@_08IMDGDEGB@ListItem?$AA@ 0057574c     rmx sdk:funcParam.obj
 0003:0000c75c       ??_7rmxThread@@6B@         0057575c     rmx sdk:rmxThread.obj
 0003:0000c784       ??_7vTimer@@6B@            00575784     rmx sdk:Timer.obj
 0003:0000c794       ??_7vTimedCallback@@6B@    00575794     rmx sdk:Timer.obj
 0003:0000c7a8       ??_7vTimerList@@6BvMessageWnd@@@ 005757a8     rmx sdk:Timer.obj
 0003:0000c7c4       ??_7vTimerList@@6B?$rmxList@PAVvTimer@@@@@ 005757c4     rmx sdk:Timer.obj
 0003:0000c7d4       ??_C@_06HEEPKHCM@vTimer?$AA@ 005757d4     rmx sdk:Timer.obj
 0003:0000c7e0       ??_7?$rmxList@PAX@@6B@     005757e0     rmx sdk:Timer.obj
 0003:0000c7f4       ??_7?$rmxList@PAVvTimer@@@@6B@ 005757f4     rmx sdk:Timer.obj
 0003:0000c808       ??_7cfgBase@@6B@           00575808     rmx sdk:cfgBase.obj
 0003:0000c838       ??_7cfgBase@@6BrmxString@@@ 00575838     rmx sdk:cfgBase.obj
 0003:0000c844       ??_7cfgBase@@6BrmxData@@@  00575844     rmx sdk:cfgBase.obj
 0003:0000c878       ??_7prmBase@@6BrmxString@@@ 00575878     rmx sdk:cfgBase.obj
 0003:0000c884       ??_7prmBase@@6BrmxData@@@  00575884     rmx sdk:cfgBase.obj
 0003:0000c890       ??_C@_08ICLMKHFL@expanded?$AA@ 00575890     rmx sdk:cfgBase.obj
 0003:0000c8a0       ??_7?$rmxList@PAVprmBase@@@@6B@ 005758a0     rmx sdk:cfgBase.obj
 0003:0000c8b4       ??_7?$rmxList@PAVcbBase@@@@6B@ 005758b4     rmx sdk:cfgBase.obj
 0003:0000c8c8       ??_7cfgLink@@6B@           005758c8     rmx sdk:cfgLink.obj
 0003:0000c8f8       ??_7cfgLink@@6BrmxString@@@ 005758f8     rmx sdk:cfgLink.obj
 0003:0000c904       ??_7cfgLink@@6BrmxData@@@  00575904     rmx sdk:cfgLink.obj
 0003:0000c934       ??_C@_04OHHBHOGB@link?$AA@ 00575934     rmx sdk:cfgLink.obj
 0003:0000c940       ??_7cfgTree@@6B@           00575940     rmx sdk:cfgTree.obj
 0003:0000c970       ??_7cfgTree@@6BrmxString@@@ 00575970     rmx sdk:cfgTree.obj
 0003:0000c97c       ??_7cfgTree@@6BrmxData@@@  0057597c     rmx sdk:cfgTree.obj
 0003:0000c9ac       ??_C@_04KCCPLAND@tree?$AA@ 005759ac     rmx sdk:cfgTree.obj
 0003:0000c9b8       ??_7cfgStatusBar@@6B@      005759b8     rmx sdk:cfgStatusBar.obj
 0003:0000c9e8       ??_7cfgStatusBar@@6BrmxString@@@ 005759e8     rmx sdk:cfgStatusBar.obj
 0003:0000c9f4       ??_7cfgStatusBar@@6BrmxData@@@ 005759f4     rmx sdk:cfgStatusBar.obj
 0003:0000ca24       ??_C@_09IIIMOMFA@statusbar?$AA@ 00575a24     rmx sdk:cfgStatusBar.obj
 0003:0000ca34       ??_7cbCore@@6B@            00575a34     rmx sdk:cbCore.obj
 0003:0000ca78       ?_INVALID_GUID@@3U_GUID@@B 00575a78     rmx sdk:rmxGuid.obj
 0003:0000ca8c       ??_C@_0DD@KLACBBLO@?$HL?$CF08X?9?$CF04X?9?$CF04X?9?$CF02X?$CF02X?9?$CF02X?$CF02@ 00575a8c     rmx sdk:rmxGuid.obj
 0003:0000cacc       ??_C@_0DP@KPEKGEEG@?5?$HL?5?$CF08x?5?9?5?$CF04x?5?9?5?$CF04x?5?9?5?$CF02x?$CF02x@ 00575acc     rmx sdk:rmxGuid.obj
 0003:0000cb1c       ??_7cfgBool@@6B@           00575b1c     rmx sdk:cfgBool.obj
 0003:0000cb4c       ??_7cfgBool@@6BrmxString@@@ 00575b4c     rmx sdk:cfgBool.obj
 0003:0000cb58       ??_7cfgBool@@6BrmxData@@@  00575b58     rmx sdk:cfgBool.obj
 0003:0000cb8c       ??_7cfgButton@@6B@         00575b8c     rmx sdk:cfgButton.obj
 0003:0000cbbc       ??_7cfgButton@@6BrmxString@@@ 00575bbc     rmx sdk:cfgButton.obj
 0003:0000cbc8       ??_7cfgButton@@6BrmxData@@@ 00575bc8     rmx sdk:cfgButton.obj
 0003:0000cc00       ??_C@_06HFKPFKMP@button?$AA@ 00575c00     rmx sdk:cfgButton.obj
 0003:0000cc08       ??_C@_1DE@IAGGCJPL@?$AAj?$AAc?$AA?9?$AA?$DO?$AAt?$AAy?$AAp?$AAe?$AA?5?$AA?$DN?$AA?$DN?$AA?5?$AAJ?$AAS?$AAO?$AAN?$AA_?$AAT?$AA_?$AAS?$AAT?$AAR?$AAI?$AAN?$AAG?$AA?$AA@ 00575c08     rmx sdk:JSON_parser.obj
 0003:0000cc48       ??_C@_1DI@PABKFAHB@?$AAj?$AAc?$AA?9?$AA?$DO?$AAp?$AAa?$AAr?$AAs?$AAe?$AA_?$AAb?$AAu?$AAf?$AAf?$AAe?$AAr?$AA_?$AAc?$AAo?$AAu?$AAn?$AAt?$AA?5?$AA?$DO?$AA?$DN?$AA?5?$AA1?$AA?$AA@ 00575c48     rmx sdk:JSON_parser.obj
 0003:0000cc8c       ??_C@_1DI@KDJBIMBH@?$AAj?$AAc?$AA?9?$AA?$DO?$AAp?$AAa?$AAr?$AAs?$AAe?$AA_?$AAb?$AAu?$AAf?$AAf?$AAe?$AAr?$AA_?$AAc?$AAo?$AAu?$AAn?$AAt?$AA?5?$AA?$DN?$AA?$DN?$AA?5?$AA0?$AA?$AA@ 00575c8c     rmx sdk:JSON_parser.obj
 0003:0000ccd0       ??_C@_1DA@EEMKMHML@?$AAj?$AAc?$AA?9?$AA?$DO?$AAt?$AAy?$AAp?$AAe?$AA?5?$AA?$DN?$AA?$DN?$AA?5?$AAJ?$AAS?$AAO?$AAN?$AA_?$AAT?$AA_?$AAN?$AAO?$AAN?$AAE?$AA?$AA@ 00575cd0     rmx sdk:JSON_parser.obj
 0003:0000cd10       ??_C@_1GE@DMDIMGHK@?$AAj?$AAc?$AA?9?$AA?$DO?$AAp?$AAa?$AAr?$AAs?$AAe?$AA_?$AAb?$AAu?$AAf?$AAf?$AAe?$AAr?$AA?$FL?$AAj?$AAc?$AA?9?$AA?$DO?$AAp?$AAa?$AAr?$AAs?$AAe?$AA_?$AAb?$AAu?$AAf?$AAf?$AAe@ 00575d10     rmx sdk:JSON_parser.obj
 0003:0000cd88       ??_C@_1DE@MILKPLHB@?$AAj?$AAc?$AA?9?$AA?$DO?$AAt?$AAy?$AAp?$AAe?$AA?5?$AA?$CB?$AA?$DN?$AA?5?$AAJ?$AAS?$AAO?$AAN?$AA_?$AAT?$AA_?$AAS?$AAT?$AAR?$AAI?$AAN?$AAG?$AA?$AA@ 00575d88     rmx sdk:JSON_parser.obj
 0003:0000cdc8       ??_C@_1DA@CAGIKKIK@?$AAj?$AAc?$AA?9?$AA?$DO?$AAt?$AAy?$AAp?$AAe?$AA?5?$AA?$CB?$AA?$DN?$AA?5?$AAJ?$AAS?$AAO?$AAN?$AA_?$AAT?$AA_?$AAN?$AAU?$AAL?$AAL?$AA?$AA@ 00575dc8     rmx sdk:JSON_parser.obj
 0003:0000ce04       ??_C@_1DA@EDPAKOGL@?$AAj?$AAc?$AA?9?$AA?$DO?$AAt?$AAy?$AAp?$AAe?$AA?5?$AA?$CB?$AA?$DN?$AA?5?$AAJ?$AAS?$AAO?$AAN?$AA_?$AAT?$AA_?$AAT?$AAR?$AAU?$AAE?$AA?$AA@ 00575e04     rmx sdk:JSON_parser.obj
 0003:0000ce40       ??_C@_1DC@IBGMFFHC@?$AAj?$AAc?$AA?9?$AA?$DO?$AAt?$AAy?$AAp?$AAe?$AA?5?$AA?$CB?$AA?$DN?$AA?5?$AAJ?$AAS?$AAO?$AAN?$AA_?$AAT?$AA_?$AAF?$AAA?$AAL?$AAS?$AAE?$AA?$AA@ 00575e40     rmx sdk:JSON_parser.obj
 0003:0000ce80       ??_C@_1FO@HFIFKMCI@?$AAc?$AA?3?$AA?2?$AAp?$AAr?$AAo?$AAg?$AAr?$AAa?$AAm?$AAm?$AAi?$AAn?$AAg?$AA?2?$AAr?$AAe?$AAp?$AAo?$AA?2?$AAr?$AAm?$AAx?$AA?2?$AAs?$AAd?$AAk?$AA?2?$AAj?$AAs?$AAo?$AAn@ 00575e80     rmx sdk:JSON_parser.obj
 0003:0000cef0       ??_C@_03JALODAI@?$CFld?$AA@ 00575ef0     rmx sdk:JSON_parser.obj
 0003:0000cef4       ??_C@_03DHAMHGK@?$CFLf?$AA@ 00575ef4     rmx sdk:JSON_parser.obj
 0003:0000cef8       ??_C@_1BEM@KBDCOMOP@?$AAj?$AAc?$AA?9?$AA?$DO?$AAt?$AAy?$AAp?$AAe?$AA?5?$AA?$DN?$AA?$DN?$AA?5?$AAJ?$AAS?$AAO?$AAN?$AA_?$AAT?$AA_?$AAN?$AAU?$AAL?$AAL?$AA?5?$AA?$HM?$AA?$HM?$AA?5?$AAj?$AAc?$AA?9?$AA?$DO?$AAt@ 00575ef8     rmx sdk:JSON_parser.obj
 0003:0000d088       ??_C@_1O@HOJMIDCG@?$AAx?$AA?5?$AA?$DM?$AA?5?$AA1?$AA6?$AA?$AA@ 00576088     rmx sdk:JSON_parser.obj
 0003:0000d098       ??_C@_1DI@GNMNGIMI@?$AAj?$AAc?$AA?9?$AA?$DO?$AAp?$AAa?$AAr?$AAs?$AAe?$AA_?$AAb?$AAu?$AAf?$AAf?$AAe?$AAr?$AA_?$AAc?$AAo?$AAu?$AAn?$AAt?$AA?5?$AA?$DO?$AA?$DN?$AA?5?$AA6?$AA?$AA@ 00576098     rmx sdk:JSON_parser.obj
 0003:0000d0e0       ??_7cfgRoot@@6B@           005760e0     rmx sdk:cfgRoot.obj
 0003:0000d110       ??_7cfgRoot@@6BrmxString@@@ 00576110     rmx sdk:cfgRoot.obj
 0003:0000d11c       ??_7cfgRoot@@6BrmxData@@@  0057611c     rmx sdk:cfgRoot.obj
 0003:0000d14c       ??_C@_04NBFCGMPH@root?$AA@ 0057614c     rmx sdk:cfgRoot.obj
 0003:0000d158       ??_7funcPress@@6B@         00576158     rmx sdk:funcPress.obj
 0003:0000d188       ??_7funcPress@@6BrmxString@@@ 00576188     rmx sdk:funcPress.obj
 0003:0000d194       ??_7funcPress@@6BrmxData@@@ 00576194     rmx sdk:funcPress.obj
 0003:0000d1dc       ??_7funcCallback@@6B@      005761dc     rmx sdk:funcCallback.obj
 0003:0000d230       ??_7rmxMutex@@6B@          00576230     rmx sdk:rmxMutex.obj
 0003:0000d23c       ??_7vMessageWnd@@6B@       0057623c     rmx sdk:MessageWnd.obj
 0003:0000d254       ??_C@_0BD@JIDKCIOC@vMessageWnd?3init?$CI?$CJ?$AA@ 00576254     rmx sdk:MessageWnd.obj
 0003:0000d26c       ??_C@_0BN@MJDKPGGA@vMessageWnd?3onCreateWindow?$CI?$CJ?$AA@ 0057626c     rmx sdk:MessageWnd.obj
 0003:0000d294       ??_7cfgNull@@6B@           00576294     rmx sdk:cfgNull.obj
 0003:0000d2c4       ??_7cfgNull@@6BrmxString@@@ 005762c4     rmx sdk:cfgNull.obj
 0003:0000d2d0       ??_7cfgNull@@6BrmxData@@@  005762d0     rmx sdk:cfgNull.obj
 0003:0000d300       ??_C@_0CJ@GEEEPAHP@CBString?3?3Failure?5in?5default?5con@ 00576300     bstring:bstrwrap.obj
 0003:0000d338       ??_7CBString@Bstrlib@@6B@  00576338     bstring:bstrwrap.obj
 0003:0000d344       ??_7CBStringException@Bstrlib@@6B@ 00576344     bstring:bstrwrap.obj
 0003:0000d350       ??_C@_0CH@MCPBIFOE@CBString?3?3Failure?5in?5block?5const@ 00576350     bstring:bstrwrap.obj
 0003:0000d380       ??_C@_0CO@DOCDJIBB@CBString?3?3Failure?5in?5repeat?$CIchar@ 00576380     bstring:bstrwrap.obj
 0003:0000d3b8       ??_C@_0CI@KCCJMEPJ@CBString?3?3Failure?5in?5?$CIchar?$CJ?5cons@ 005763b8     bstring:bstrwrap.obj
 0003:0000d3e8       ??_C@_0CK@IPICNHDN@CBString?3?3Failure?5in?5?$CIchar?5?$CK?$CJ?5co@ 005763e8     bstring:bstrwrap.obj
 0003:0000d41c       ??_C@_0DM@GBDLLDAI@CBString?3?3Failure?5in?5?$CIchar?5?$CK?$CJ?5co@ 0057641c     bstring:bstrwrap.obj
 0003:0000d464       ??_C@_0DD@NDDKPECH@CBString?3?3Failure?5in?5?$CIint?5len?0?5c@ 00576464     bstring:bstrwrap.obj
 0003:0000d4a4       ??_C@_0CM@HAMMOAAI@CBString?3?3Failure?5in?5?$CICBString?$CJ?5@ 005764a4     bstring:bstrwrap.obj
 0003:0000d4d8       ??_C@_0CO@LAOKKKBP@CBString?3?3Failure?5in?5?$CItagbstring@ 005764d8     bstring:bstrwrap.obj
 0003:0000d510       ??_C@_0CG@LKMDPBEE@CBString?3?3Failure?5in?5?$DN?$CIchar?$CJ?5ope@ 00576510     bstring:bstrwrap.obj
 0003:0000d540       ??_C@_0CB@IOJCANHA@CBString?3?3Write?5protection?5error@ 00576540     bstring:bstrwrap.obj
 0003:0000d568       ??_C@_0CO@JFGBEKNE@CBString?3?3Failure?5in?5?$DN?$CIconst?5cha@ 00576568     bstring:bstrwrap.obj
 0003:0000d5a0       ??_C@_0EA@OCECGL@CBString?3?3Failure?5in?5?$DN?$CIconst?5cha@ 005765a0     bstring:bstrwrap.obj
 0003:0000d5ec       ??_C@_0CK@DBFJGPDC@CBString?3?3Failure?5in?5?$DN?$CICBString?$CJ@ 005765ec     bstring:bstrwrap.obj
 0003:0000d620       ??_C@_0CM@FMHNGBND@CBString?3?3Failure?5in?5?$DN?$CItagbstrin@ 00576620     bstring:bstrwrap.obj
 0003:0000d658       ??_C@_0EF@OBAKEDGB@CBString?3?3Failure?5in?5?$DN?$CItagbstrin@ 00576658     bstring:bstrwrap.obj
 0003:0000d6ac       ??_C@_0CB@JEKLDBNL@CBString?3?3Failure?5in?5concatenate@ 005766ac     bstring:bstrwrap.obj
 0003:0000d6d4       ??_C@_0CN@PBNMKEGB@CBString?3?3Failure?5in?5?$CL?$DN?$CItagbstri@ 005766d4     bstring:bstrwrap.obj
 0003:0000d710       ??_C@_0EG@BAIDBPHK@CBString?3?3Failure?5in?5?$CL?$DN?$CItagbstri@ 00576710     bstring:bstrwrap.obj
 0003:0000d764       ??_C@_0CP@OBCADEEI@CBString?3?3Failure?5in?5?$CL?5?$CIchar?5?$CK?$CJ?5@ 00576764     bstring:bstrwrap.obj
 0003:0000d79c       ??_C@_0DI@LECABKHL@CBString?3?3Failure?5in?5?$CL?5?$CIunsigned@ 0057679c     bstring:bstrwrap.obj
 0003:0000d7e0       ??_C@_0EG@IAPHOBDF@CBString?3?3Failure?5in?5?$CL?5?$CItagbstri@ 005767e0     bstring:bstrwrap.obj
 0003:0000d834       ??_C@_0CC@CCMFFDHA@CBString?3?3Failure?5in?5compare?5?$CI?$DN?$DN@ 00576834     bstring:bstrwrap.obj
 0003:0000d85c       ??_C@_0CH@KMIBDALG@CBString?3?3Failure?5in?5compare?5?$CI?$DN?$DN@ 0057685c     bstring:bstrwrap.obj
 0003:0000d88c       ??_C@_0CB@KKJLOMLI@CBString?3?3Failure?5in?5compare?5?$CI?$DM?$CJ@ 0057688c     bstring:bstrwrap.obj
 0003:0000d8b4       ??_C@_0CC@JKHJDEBF@CBString?3?3Failure?5in?5compare?5?$CI?$DM?$DN@ 005768b4     bstring:bstrwrap.obj
 0003:0000d8dc       ??_C@_0CI@EEMLPCNN@CBString?3?3Unable?5to?5convert?5to?5a@ 005768dc     bstring:bstrwrap.obj
 0003:0000d90c       ??_C@_03DLDNIBIK@?$CFlf?$AA@ 0057690c     bstring:bstrwrap.obj
 0003:0000d910       ??_C@_0CH@EHJGHBJL@CBString?3?3Unable?5to?5convert?5to?5a@ 00576910     bstring:bstrwrap.obj
 0003:0000d940       __real@00000000            00576940     bstring:bstrwrap.obj
 0003:0000d944       ??_C@_0CG@JAJOOLCP@CBString?3?3Unable?5to?5convert?5to?5a@ 00576944     bstring:bstrwrap.obj
 0003:0000d974       ??_C@_0CP@DCGKPHMA@CBString?3?3Unable?5to?5convert?5to?5a@ 00576974     bstring:bstrwrap.obj
 0003:0000d9ac       ??_C@_02GMHACPFF@?$CFu?$AA@ 005769ac     bstring:bstrwrap.obj
 0003:0000d9b0       ??_C@_0CK@MFBANKCC@CBString?3?3CBString?3?3format?5out?5o@ 005769b0     bstring:bstrwrap.obj
 0003:0000d9e4       ??_C@_0DF@EIKFLJNK@CBString?3?3CBString?3?3format?5?$CINULL@ 005769e4     bstring:bstrwrap.obj
 0003:0000da24       ??_C@_06CBHGEMFM@?$DMNULL?$DO?$AA@ 00576a24     bstring:bstrwrap.obj
 0003:0000da2c       ??_C@_0DG@IBAOCPHE@CBString?3?3CBString?3?3formata?5?$CINUL@ 00576a2c     bstring:bstrwrap.obj
 0003:0000da6c       ??_C@_0DE@FKLJGAHG@CBString?3?3CBString?3?3caselessEqua@ 00576a6c     bstring:bstrwrap.obj
 0003:0000daac       ??_C@_0DC@OPDMMICN@CBString?3?3CBString?3?3caselessCmp?5@ 00576aac     bstring:bstrwrap.obj
 0003:0000dae8       ??_C@_0BP@COIIHCK@CBString?3?3CBString?3?3find?5NULL?4?$AA@ 00576ae8     bstring:bstrwrap.obj
 0003:0000db10       ??_C@_0CH@COPEPDBP@CBString?3?3CBString?3?3caselessfind@ 00576b10     bstring:bstrwrap.obj
 0003:0000db40       ??_C@_0CG@DKDNBBID@CBString?3?3CBString?3?3reversefind?5@ 00576b40     bstring:bstrwrap.obj
 0003:0000db70       ??_C@_0CO@BPCBLOKE@CBString?3?3CBString?3?3caselessreve@ 00576b70     bstring:bstrwrap.obj
 0003:0000dba8       ??_C@_0CC@LEIFEHHO@CBString?3?3CBString?3?3findchr?5NULL@ 00576ba8     bstring:bstrwrap.obj
 0003:0000dbd0       ??_C@_0CD@NJFKLLGF@CBString?3?3CBString?3?3nfindchr?5NUL@ 00576bd0     bstring:bstrwrap.obj
 0003:0000dbfc       ??_C@_0CJ@LDIOCKGO@CBString?3?3CBString?3?3reversefindc@ 00576bfc     bstring:bstrwrap.obj
 0003:0000dc30       ??_C@_0CK@HGOOPMGO@CBString?3?3CBString?3?3nreversefind@ 00576c30     bstring:bstrwrap.obj
 0003:0000dc64       ??_C@_0BL@IKGAHDAD@CBString?3?3Failure?5in?5alloc?$AA@ 00576c64     bstring:bstrwrap.obj
 0003:0000dc84       ??_C@_0BK@HPNCKABI@CBString?3?3Failure?5in?5fill?$AA@ 00576c84     bstring:bstrwrap.obj
 0003:0000dca4       ??_C@_0BP@KNEMFCPF@CBString?3?3Failure?5in?5setsubstr?$AA@ 00576ca4     bstring:bstrwrap.obj
 0003:0000dccc       ??_C@_0BK@BLFMPMAG@CBString?3?3setsubstr?5NULL?4?$AA@ 00576ccc     bstring:bstrwrap.obj
 0003:0000dcec       ??_C@_0BM@DMBOELCH@CBString?3?3Failure?5in?5insert?$AA@ 00576cec     bstring:bstrwrap.obj
 0003:0000dd10       ??_C@_0BH@CPMFPLPP@CBString?3?3insert?5NULL?4?$AA@ 00576d10     bstring:bstrwrap.obj
 0003:0000dd2c       ??_C@_0CA@MJGDPCIE@CBString?3?3Failure?5in?5insertchrs?$AA@ 00576d2c     bstring:bstrwrap.obj
 0003:0000dd54       ??_C@_0BN@EOCLBABO@CBString?3?3Failure?5in?5replace?$AA@ 00576d54     bstring:bstrwrap.obj
 0003:0000dd78       ??_C@_0CP@CNGAJEFO@CBString?3?3Failure?5in?5replace?0?5re@ 00576d78     bstring:bstrwrap.obj
 0003:0000ddb0       ??_C@_0CB@IDPDDFEO@CBString?3?3Failure?5in?5findreplace@ 00576db0     bstring:bstrwrap.obj
 0003:0000ddd8       ??_C@_0BM@PJKIIKBP@CBString?3?3findreplace?5NULL?4?$AA@ 00576dd8     bstring:bstrwrap.obj
 0003:0000ddfc       ??_C@_0CJ@FNIFNDIF@CBString?3?3Failure?5in?5findreplace@ 00576dfc     bstring:bstrwrap.obj
 0003:0000de30       ??_C@_0CE@ENINANCK@CBString?3?3findreplacecaseless?5NU@ 00576e30     bstring:bstrwrap.obj
 0003:0000de5c       ??_C@_0BM@NHLNDBJL@CBString?3?3Failure?5in?5remove?$AA@ 00576e5c     bstring:bstrwrap.obj
 0003:0000de80       ??_C@_0BL@CKHILLOK@CBString?3?3Failure?5in?5trunc?$AA@ 00576e80     bstring:bstrwrap.obj
 0003:0000dea0       ??_C@_0BN@DAECGFDJ@CBString?3?3Failure?5in?5toupper?$AA@ 00576ea0     bstring:bstrwrap.obj
 0003:0000dec4       ??_C@_0BN@GLPMAOIA@CBString?3?3Failure?5in?5tolower?$AA@ 00576ec4     bstring:bstrwrap.obj
 0003:0000dee8       ??_C@_0BM@GKMABECJ@CBString?3?3Failure?5in?5repeat?$AA@ 00576ee8     bstring:bstrwrap.obj
 0003:0000df0c       ??_C@_0CG@LDCJAMEE@CBString?3?3Cannot?5unprotect?5a?5con@ 00576f0c     bstring:bstrwrap.obj
 0003:0000df3c       ??_C@_0DA@JJHFINFG@CBString?3?3Failure?5in?5?$CICBStringLi@ 00576f3c     bstring:bstrwrap.obj
 0003:0000df78       ??_C@_0DK@PHIPNMGL@CBString?3?3Failure?5in?5?$CICBStringLi@ 00576f78     bstring:bstrwrap.obj
 0003:0000dfc0       ??_C@_0CG@IBOMJKPL@CBString?3?3character?5idx?5out?5of?5b@ 00576fc0     bstring:bstrwrap.obj
 0003:0000dff0       ??_C@_0CD@HFMMCOFA@CBString?3?3Null?5splitstring?5failu@ 00576ff0     bstring:bstrwrap.obj
 0003:0000e01c       ??_C@_0CA@OPBDKGPB@CBString?3?3Split?5bstream?5failure?$AA@ 0057701c     bstring:bstrwrap.obj
 0003:0000e044       ??_C@_0CK@BFHKEECM@CBString?3?3buffLengthSet?5paramete@ 00577044     bstring:bstrwrap.obj
 0003:0000e078       ??_C@_0BK@HNKHJDCG@CBString?3?3Failed?5readLine?$AA@ 00577078     bstring:bstrwrap.obj
 0003:0000e098       ??_C@_0CA@JEGKLNCP@CBString?3?3Failed?5readLineAppend?$AA@ 00577098     bstring:bstrwrap.obj
 0003:0000e0c0       ??_C@_0BG@PLLBBAAF@CBString?3?3Failed?5read?$AA@ 005770c0     bstring:bstrwrap.obj
 0003:0000e0dc       ??_C@_0BM@HDNOGPIE@CBString?3?3Failed?5readAppend?$AA@ 005770dc     bstring:bstrwrap.obj
 0003:0000e100       ??_C@_0BI@BINIFEFO@CBString?3?3Failed?5unread?$AA@ 00577100     bstring:bstrwrap.obj
 0003:0000e11c       ??_C@_0BG@BOAPHHG@CBString?3?3Failed?5peek?$AA@ 0057711c     bstring:bstrwrap.obj
 0003:0000e138       ??_C@_0BM@KPHOJFOF@CBString?3?3Failed?5peekAppend?$AA@ 00577138     bstring:bstrwrap.obj
 0003:0000e15c       ??_C@_0BF@KAJLLJCJ@CBString?3?3Failed?5eof?$AA@ 0057715c     bstring:bstrwrap.obj
 0003:0000e178       ??_C@_1DC@POOIKBAO@?$AAI?$AAT?$AAE?$AAR?$AAA?$AAT?$AAO?$AAR?$AA?5?$AAL?$AAI?$AAS?$AAT?$AA?5?$AAC?$AAO?$AAR?$AAR?$AAU?$AAP?$AAT?$AAE?$AAD?$AA?$CB?$AA?$AA@ 00577178     bstring:bstrwrap.obj
 0003:0000e1b8       ??_C@_1IK@DNLEIJBI@?$AAc?$AA?3?$AA?2?$AAp?$AAr?$AAo?$AAg?$AAr?$AAa?$AAm?$AA?5?$AAf?$AAi?$AAl?$AAe?$AAs?$AA?5?$AA?$CI?$AAx?$AA8?$AA6?$AA?$CJ?$AA?2?$AAm?$AAi?$AAc?$AAr?$AAo?$AAs?$AAo?$AAf?$AAt@ 005771b8     bstring:bstrwrap.obj
 0003:0000e260       ??_C@_0BM@NMJKDPPO@invalid?5vector?$DMT?$DO?5subscript?$AA@ 00577260     bstring:bstrwrap.obj
 0003:0000e288       ??_7out_of_range@std@@6B@  00577288     bstring:bstrwrap.obj
 0003:0000e298       ??_7logic_error@std@@6B@   00577298     bstring:bstrwrap.obj
 0003:0000e2a4       ??_C@_1BO@MEPPHOO@?$AA?$CC?$AAo?$AAu?$AAt?$AA?5?$AAo?$AAf?$AA?5?$AAr?$AAa?$AAn?$AAg?$AAe?$AA?$CC?$AA?$AA@ 005772a4     bstring:bstrwrap.obj
 0003:0000e2c8       ??_C@_1OE@CFHPFFKE@?$AAs?$AAt?$AAd?$AA?3?$AA?3?$AA_?$AAV?$AAe?$AAc?$AAt?$AAo?$AAr?$AA_?$AAc?$AAo?$AAn?$AAs?$AAt?$AA_?$AAi?$AAt?$AAe?$AAr?$AAa?$AAt?$AAo?$AAr?$AA?$DM?$AAs?$AAt?$AAr?$AAu@ 005772c8     bstring:bstrwrap.obj
 0003:0000e3e0       ??_C@_1FG@CMLDHNON@?$AA?$CI?$AA?$CC?$AAS?$AAt?$AAa?$AAn?$AAd?$AAa?$AAr?$AAd?$AA?5?$AAC?$AA?$CL?$AA?$CL?$AA?5?$AAL?$AAi?$AAb?$AAr?$AAa?$AAr?$AAi?$AAe?$AAs?$AA?5?$AAO?$AAu?$AAt?$AA?5?$AAo?$AAf?$AA?5@ 005773e0     bstring:bstrwrap.obj
 0003:0000e448       ??_C@_1EG@FOHJJHAC@?$AAv?$AAe?$AAc?$AAt?$AAo?$AAr?$AA?5?$AAi?$AAt?$AAe?$AAr?$AAa?$AAt?$AAo?$AAr?$AA?5?$AAn?$AAo?$AAt?$AA?5?$AAd?$AAe?$AAr?$AAe?$AAf?$AAe?$AAr?$AAe?$AAn?$AAc?$AAa?$AAb@ 00577448     bstring:bstrwrap.obj
 0003:0000e4a0       ??_C@_1IG@JGNOMHDJ@?$AAc?$AA?3?$AA?2?$AAp?$AAr?$AAo?$AAg?$AAr?$AAa?$AAm?$AA?5?$AAf?$AAi?$AAl?$AAe?$AAs?$AA?5?$AA?$CI?$AAx?$AA8?$AA6?$AA?$CJ?$AA?2?$AAm?$AAi?$AAc?$AAr?$AAo?$AAs?$AAo?$AAf?$AAt@ 005774a0     bstring:bstrwrap.obj
 0003:0000e540       ??_C@_1EK@EEHFMKDC@?$AAv?$AAe?$AAc?$AAt?$AAo?$AAr?$AA?5?$AAi?$AAn?$AAs?$AAe?$AAr?$AAt?$AA?5?$AAi?$AAt?$AAe?$AAr?$AAa?$AAt?$AAo?$AAr?$AA?5?$AAo?$AAu?$AAt?$AAs?$AAi?$AAd?$AAe?$AA?5?$AAr@ 00577540     bstring:bstrwrap.obj
 0003:0000e598       ??_C@_1CG@JNLFBNGN@?$AA?$CC?$AAi?$AAn?$AAv?$AAa?$AAl?$AAi?$AAd?$AA?5?$AAa?$AAr?$AAg?$AAu?$AAm?$AAe?$AAn?$AAt?$AA?$CC?$AA?$AA@ 00577598     bstring:bstrwrap.obj
 0003:0000e5c8       ??_C@_1PM@ENPJFIML@?$AAs?$AAt?$AAd?$AA?3?$AA?3?$AA_?$AAV?$AAe?$AAc?$AAt?$AAo?$AAr?$AA_?$AAc?$AAo?$AAn?$AAs?$AAt?$AA_?$AAi?$AAt?$AAe?$AAr?$AAa?$AAt?$AAo?$AAr?$AA?$DM?$AAs?$AAt?$AAr?$AAu@ 005775c8     bstring:bstrwrap.obj
 0003:0000e6f8       ??_C@_1NK@JLHOCNGO@?$AA?$CI?$AA?$CC?$AA_?$AAP?$AAv?$AAe?$AAc?$AAt?$AAo?$AAr?$AA?5?$AA?$DN?$AA?$DN?$AA?5?$AAN?$AAU?$AAL?$AAL?$AA?5?$AA?$HM?$AA?$HM?$AA?5?$AA?$CI?$AA?$CI?$AA?$CI?$AA_?$AAM?$AAy?$AAv?$AAe?$AAc?$AA?5@ 005776f8     bstring:bstrwrap.obj
 0003:0000e800       ??_C@_1OO@PBNBABMO@?$AA?$CI?$AA?$CC?$AA_?$AAM?$AAy?$AAp?$AAt?$AAr?$AA?5?$AA?$CL?$AA?5?$AA_?$AAO?$AAf?$AAf?$AA?5?$AA?$DM?$AA?$DN?$AA?5?$AA?$CI?$AA?$CI?$AA_?$AAM?$AAy?$AAv?$AAe?$AAc?$AA?5?$AA?$CK?$AA?$CJ?$AA?$CI?$AAt@ 00577800     bstring:bstrwrap.obj
 0003:0000e920       ??_C@_1OG@BIHHAKDA@?$AAs?$AAt?$AAd?$AA?3?$AA?3?$AA_?$AAV?$AAe?$AAc?$AAt?$AAo?$AAr?$AA_?$AAc?$AAo?$AAn?$AAs?$AAt?$AA_?$AAi?$AAt?$AAe?$AAr?$AAa?$AAt?$AAo?$AAr?$AA?$DM?$AAs?$AAt?$AAr?$AAu@ 00577920     bstring:bstrwrap.obj
 0003:0000ea34       ??_C@_1DK@LIMPPGHH@?$AA?$CI?$AA?$CC?$AAt?$AAh?$AAi?$AAs?$AA?9?$AA?$DO?$AA_?$AAM?$AAy?$AAc?$AAo?$AAn?$AAt?$AA?5?$AA?$CB?$AA?$DN?$AA?5?$AAN?$AAU?$AAL?$AAL?$AA?$CC?$AA?0?$AA?5?$AA0?$AA?$CJ?$AA?$AA@ 00577a34     bstring:bstrwrap.obj
 0003:0000ea7c       ??_C@_0BD@OLBABOEK@vector?$DMT?$DO?5too?5long?$AA@ 00577a7c     bstring:bstrwrap.obj
 0003:0000ea98       ??_7length_error@std@@6B@  00577a98     bstring:bstrwrap.obj
 0003:0000eaa8       ??_C@_1NO@IAKCAKJI@?$AAs?$AAt?$AAd?$AA?3?$AA?3?$AA_?$AAV?$AAe?$AAc?$AAt?$AAo?$AAr?$AA_?$AAc?$AAo?$AAn?$AAs?$AAt?$AA_?$AAi?$AAt?$AAe?$AAr?$AAa?$AAt?$AAo?$AAr?$AA?$DM?$AAs?$AAt?$AAr?$AAu@ 00577aa8     bstring:bstrwrap.obj
 0003:0000ebb8       ??_C@_1FO@OCPOOAIA@?$AA?$CI?$AA?$CC?$AAS?$AAt?$AAa?$AAn?$AAd?$AAa?$AAr?$AAd?$AA?5?$AAC?$AA?$CL?$AA?$CL?$AA?5?$AAL?$AAi?$AAb?$AAr?$AAa?$AAr?$AAi?$AAe?$AAs?$AA?5?$AAI?$AAn?$AAv?$AAa?$AAl?$AAi?$AAd@ 00577bb8     bstring:bstrwrap.obj
 0003:0000ec28       ??_C@_1DM@HINDPMBP@?$AAv?$AAe?$AAc?$AAt?$AAo?$AAr?$AA?5?$AAi?$AAt?$AAe?$AAr?$AAa?$AAt?$AAo?$AAr?$AAs?$AA?5?$AAi?$AAn?$AAc?$AAo?$AAm?$AAp?$AAa?$AAt?$AAi?$AAb?$AAl?$AAe?$AA?$AA@ 00577c28     bstring:bstrwrap.obj
 0003:0000ec74       ??_7bad_alloc@std@@6B@     00577c74     bstring:bstrwrap.obj
 0003:0000ec80       ??_C@_1CO@DGLIKNHI@?$AAi?$AAn?$AAv?$AAa?$AAl?$AAi?$AAd?$AA?5?$AAi?$AAt?$AAe?$AAr?$AAa?$AAt?$AAo?$AAr?$AA?5?$AAr?$AAa?$AAn?$AAg?$AAe?$AA?$AA@ 00577c80     bstring:bstrwrap.obj
 0003:0000ecb8       ??_C@_1IG@OIAFELDC@?$AAc?$AA?3?$AA?2?$AAp?$AAr?$AAo?$AAg?$AAr?$AAa?$AAm?$AA?5?$AAf?$AAi?$AAl?$AAe?$AAs?$AA?5?$AA?$CI?$AAx?$AA8?$AA6?$AA?$CJ?$AA?2?$AAm?$AAi?$AAc?$AAr?$AAo?$AAs?$AAo?$AAf?$AAt@ 00577cb8     bstring:bstrwrap.obj
 0003:0000ed58       ??_C@_1CK@EOPGIILJ@?$AAi?$AAn?$AAv?$AAa?$AAl?$AAi?$AAd?$AA?5?$AAn?$AAu?$AAl?$AAl?$AA?5?$AAp?$AAo?$AAi?$AAn?$AAt?$AAe?$AAr?$AA?$AA@ 00577d58     bstring:bstrwrap.obj
 0003:0000ed8c       ??_C@_0BE@NDJEJKBP@?$BL?$FL1?$DL36m?$FL?$CFs?$FN?$BL?$FL37m?5?$CFs?$AA@ 00577d8c     rmx_vs8_d:hconsole.obj
 0003:0000eda4       ??_C@_0BG@NJNOGFLM@?$BL?$FL1?$DL36m?$FL?$CFs?$FN?$BL?$FL1?$DL33m?5?$CFs?$AA@ 00577da4     rmx_vs8_d:hconsole.obj
 0003:0000edc0       ??_C@_0BG@JEBGMELH@?$BL?$FL1?$DL36m?$FL?$CFs?$FN?$BL?$FL1?$DL31m?5?$CFs?$AA@ 00577dc0     rmx_vs8_d:hconsole.obj
 0003:0000eddc       ??_C@_0BG@BCICLGBJ@?$BL?$FL1?$DL36m?$FL?$CFs?$FN?$BL?$FL1?$DL32m?5?$CFs?$AA@ 00577ddc     rmx_vs8_d:hconsole.obj
 0003:0000edfc       ??_7cbRemote@@6B@          00577dfc     rmx_vs8_d:rmx_entry.obj
 0003:0000ee28       ??_C@_0DM@FBFPGHFO@SERIOUS?5FUCKING?5ERROR?3?5Multiple?5@ 00577e28     rmx_vs8_d:plugBase.obj
 0003:0000ee74       ??_7plugBase@@6B@          00577e74     rmx_vs8_d:plugBase.obj
 0003:0000eea4       ??_7plugBase@@6BrmxString@@@ 00577ea4     rmx_vs8_d:plugBase.obj
 0003:0000eeb0       ??_7plugBase@@6BrmxData@@@ 00577eb0     rmx_vs8_d:plugBase.obj
 0003:0000eef4       ??_7WebServerBaseClass@@6B@ 00577ef4     jnetlib:webserver.obj
 0003:0000ef00       ??_C@_0EB@NFPJKBDG@ABCDEFGHIJKLMNOPQRSTUVWXYZabcdef@ 00577f00     jnetlib:webserver.obj
 0003:0000ef50       ??_C@_06JKFLNCPP@basic?5?$AA@ 00577f50     jnetlib:webserver.obj
 0003:0000ef58       ??_C@_02PCIJFNDE@?$AN?6?$AA@ 00577f58     jnetlib:httpserv.obj
 0003:0000ef5c       ??_C@_0BH@IEAKLEDA@malformed?5HTTP?5request?$AA@ 00577f5c     jnetlib:httpserv.obj
 0003:0000ef78       ??_C@_04HCJEIHPL@POST?$AA@ 00577f78     jnetlib:httpserv.obj
 0003:0000ef80       ??_C@_03HAPOJHBM@GET?$AA@  00577f80     jnetlib:httpserv.obj
 0003:0000ef84       ??_C@_04MEDPFIKH@HTTP?$AA@ 00577f84     jnetlib:httpserv.obj
 0003:0000ef8c       ??_C@_01JLIPDDHJ@?3?$AA@   00577f8c     jnetlib:httpserv.obj
 0003:0000ef90       ??_C@_0CB@LGJDJLF@invalid?5socket?5passed?5to?5connect@ 00577f90     jnetlib:connection.obj
 0003:0000efb8       ??_C@_0P@GLGGNLLK@empty?5hostname?$AA@ 00577fb8     jnetlib:connection.obj
 0003:0000efcc       ??_C@_0BA@GHFLBDCM@creating?5socket?$AA@ 00577fcc     jnetlib:connection.obj
 0003:0000efe0       ??_C@_0CG@BLMHMFFC@connecting?5to?5host?5?$CIcalling?5sele@ 00577fe0     jnetlib:connection.obj
 0003:0000f010       ??_C@_0BD@KPOLLEHO@connecting?5to?5host?$AA@ 00578010     jnetlib:connection.obj
 0003:0000f028       ??_C@_0BD@JPLGDGIE@resolving?5hostname?$AA@ 00578028     jnetlib:connection.obj
 0003:0000f040       ??_C@_0BO@GNIAFIKK@Unknown?5Runtime?5Check?5Error?6?$AN?$AA@ 00578040     MSVCRTD:error.obj
 0003:0000f064       ??_C@_0CM@NGINOKPC@Stack?5memory?5around?5_alloca?5was?5@ 00578064     MSVCRTD:error.obj
 0003:0000f098       ??_C@_0DG@HKJMLLLP@A?5local?5variable?5was?5used?5before@ 00578098     MSVCRTD:error.obj
 0003:0000f0d8       ??_C@_0BN@FFOINMNJ@Stack?5memory?5was?5corrupted?6?$AN?$AA@ 005780d8     MSVCRTD:error.obj
 0003:0000f100       ??_C@_0BBN@GPMLNJCF@A?5cast?5to?5a?5smaller?5data?5type?5ha@ 00578100     MSVCRTD:error.obj
 0003:0000f258       ??_C@_0NN@NGPKDKPD@The?5value?5of?5ESP?5was?5not?5properl@ 00578258     MSVCRTD:error.obj
 0003:0000f404       ??_C@_0CA@IODNCDPG@Run?9Time?5Check?5Failure?5?$CD?$CFd?5?9?5?$CFs?$AA@ 00578404     MSVCRTD:error.obj
 0003:0000f42c       ??_C@_0BE@GNBOBNCK@Unknown?5Module?5Name?$AA@ 0057842c     MSVCRTD:error.obj
 0003:0000f444       ??_C@_0BB@PFFGGCJP@Unknown?5Filename?$AA@ 00578444     MSVCRTD:error.obj
 0003:0000f458       ??_C@_1EA@NFKNIFJP@?$AAR?$AAu?$AAn?$AA?9?$AAT?$AAi?$AAm?$AAe?$AA?5?$AAC?$AAh?$AAe?$AAc?$AAk?$AA?5?$AAF?$AAa?$AAi?$AAl?$AAu?$AAr?$AAe?$AA?5?$AA?$CD?$AA?$CF?$AAd?$AA?5?$AA?9?$AA?5?$AA?$CF?$AAs?$AA?$AA@ 00578458     MSVCRTD:error.obj
 0003:0000f4a8       ??_C@_1GM@OLMCBDMB@?$AAR?$AAu?$AAn?$AAt?$AAi?$AAm?$AAe?$AA?5?$AAC?$AAh?$AAe?$AAc?$AAk?$AA?5?$AAE?$AAr?$AAr?$AAo?$AAr?$AA?4?$AA?6?$AA?$AN?$AA?5?$AAU?$AAn?$AAa?$AAb?$AAl?$AAe?$AA?5?$AAt?$AAo@ 005784a8     MSVCRTD:error.obj
 0003:0000f52c       ??_C@_0CG@IAFNJNEE@Stack?5corrupted?5near?5unknown?5var@ 0057852c     MSVCRTD:error.obj
 0003:0000f560       ??_C@_0EJ@LJKNEOLN@Stack?5area?5around?5_alloca?5memory@ 00578560     MSVCRTD:error.obj
 0003:0000f5b8       ??_C@_08KJEDNCKC@?$CFs?$CFs?$CFs?$CFs?$AA@ 005785b8     MSVCRTD:error.obj
 0003:0000f5c4       ??_C@_02LLMPMKNF@?$DO?5?$AA@ 005785c4     MSVCRTD:error.obj
 0003:0000f5c8       ??_C@_0BC@KIBAILCI@?$CFs?$CFs?$CFp?$CFs?$CFld?$CFs?$CFd?$CFs?$AA@ 005785c8     MSVCRTD:error.obj
 0003:0000f5e0       ??_C@_0EI@CLEPFNGI@Stack?5area?5around?5_alloca?5memory@ 005785e0     MSVCRTD:error.obj
 0003:0000f638       ??_C@_0N@MHFFIMFG@?6Address?3?50x?$AA@ 00578638     MSVCRTD:error.obj
 0003:0000f648       ??_C@_07DFDJCKFN@?6Size?3?5?$AA@ 00578648     MSVCRTD:error.obj
 0003:0000f654       ??_C@_0CK@DKGBICFE@?6Allocation?5number?5within?5this?5f@ 00578654     MSVCRTD:error.obj
 0003:0000f688       ??_C@_08OMAHNMHJ@?6Data?3?5?$DM?$AA@ 00578688     MSVCRTD:error.obj
 0003:0000f694       ??_C@_09FOPFMPEJ@wsprintfA?$AA@ 00578694     MSVCRTD:error.obj
 0003:0000f6a0       ??_C@_0L@GMPLCCII@user32?4dll?$AA@ 005786a0     MSVCRTD:error.obj
 0003:0000f6b0       ??_C@_05MKKEDADM@?$CF?42X?5?$AA@ 005786b0     MSVCRTD:error.obj
 0003:0000f6b8       ??_C@_0DE@OHJBPMBP@A?5variable?5is?5being?5used?5without@ 005786b8     MSVCRTD:error.obj
 0003:0000f6fc       ??_7type_info@@6B@         005786fc     MSVCRTD:ti_inst.obj
 0003:0000f708       ??_C@_1GA@EHAKPACL@?$AAf?$AA?3?$AA?2?$AAd?$AAd?$AA?2?$AAv?$AAc?$AAt?$AAo?$AAo?$AAl?$AAs?$AA?2?$AAc?$AAr?$AAt?$AA_?$AAb?$AAl?$AAd?$AA?2?$AAs?$AAe?$AAl?$AAf?$AA_?$AAx?$AA8?$AA6?$AA?2?$AAc@ 00578708     MSVCRTD:crtexew.obj
 0003:0000f780       ??_C@_1FA@DALEHHGL@?$AA_?$AA_?$AAn?$AAa?$AAt?$AAi?$AAv?$AAe?$AA_?$AAs?$AAt?$AAa?$AAr?$AAt?$AAu?$AAp?$AA_?$AAs?$AAt?$AAa?$AAt?$AAe?$AA?5?$AA?$DN?$AA?$DN?$AA?5?$AA_?$AA_?$AAi?$AAn?$AAi?$AAt@ 00578780     MSVCRTD:crtexew.obj
 0003:0000f7e0       ??_C@_0M@EKFFODEC@MSPDB80?4DLL?$AA@ 005787e0     MSVCRTD:pdblkup.obj
 0003:0000f7f0       ??_C@_01KDCPPGHE@r?$AA@    005787f0     MSVCRTD:pdblkup.obj
 0003:0000f7f4       ??_C@_0BB@KCIACLNC@PDBOpenValidate5?$AA@ 005787f4     MSVCRTD:pdblkup.obj
 0003:0000f808       ??_C@_0BF@BMIHBHCA@EnvironmentDirectory?$AA@ 00578808     MSVCRTD:pdblkup.obj
 0003:0000f824       ??_C@_0CN@EAEOKKOC@SOFTWARE?2Microsoft?2VisualStudio?2@ 00578824     MSVCRTD:pdblkup.obj
 0003:0000f85c       ??_C@_0M@HLOHPNFA@RegCloseKey?$AA@ 0057885c     MSVCRTD:pdblkup.obj
 0003:0000f86c       ??_C@_0BB@HHEIPGME@RegQueryValueExA?$AA@ 0057886c     MSVCRTD:pdblkup.obj
 0003:0000f880       ??_C@_0O@DCOGKJGG@RegOpenKeyExA?$AA@ 00578880     MSVCRTD:pdblkup.obj
 0003:0000f890       ??_C@_0N@JJPEKNFO@ADVAPI32?4DLL?$AA@ 00578890     MSVCRTD:pdblkup.obj
 0003:0000f8a0       ??_C@_0BP@OGBCLIBO@Stack?5around?5_alloca?5corrupted?$AA@ 005788a0     MSVCRTD:userapi.obj
 0003:0000f8c8       ??_C@_0CK@CNLNOEPB@Local?5variable?5used?5before?5initi@ 005788c8     MSVCRTD:userapi.obj
 0003:0000f8fc       ??_C@_0BI@CIGMDCBH@Stack?5memory?5corruption?$AA@ 005788fc     MSVCRTD:userapi.obj
 0003:0000f918       ??_C@_0CK@FEGOIOPB@Cast?5to?5smaller?5type?5causing?5los@ 00578918     MSVCRTD:userapi.obj
 0003:0000f94c       ??_C@_0BJ@HEGAHDFO@Stack?5pointer?5corruption?$AA@ 0057894c     MSVCRTD:userapi.obj
 0003:0000f990       ?ProcessDetach@NativeDll@<CrtImplementationDetails>@@0IB 00578990     MSVCRTD:unhandld.obj
 0003:0000f994       ?ProcessAttach@NativeDll@<CrtImplementationDetails>@@0IB 00578994     MSVCRTD:unhandld.obj
 0003:0000f998       ?ThreadAttach@NativeDll@<CrtImplementationDetails>@@0IB 00578998     MSVCRTD:unhandld.obj
 0003:0000f99c       ?ThreadDetach@NativeDll@<CrtImplementationDetails>@@0IB 0057899c     MSVCRTD:unhandld.obj
 0003:0000f9a0       ?ProcessVerifier@NativeDll@<CrtImplementationDetails>@@0IB 005789a0     MSVCRTD:unhandld.obj
 0003:0000f9a8       ??_C@_1GE@KOCFNGPB@?$AA_?$AAc?$AAo?$AAn?$AAt?$AAr?$AAo?$AAl?$AAf?$AAp?$AA_?$AAs?$AA?$CI?$AA?$CI?$AA?$CI?$AAv?$AAo?$AAi?$AAd?$AA?5?$AA?$CK?$AA?$CJ?$AA0?$AA?$CJ?$AA?0?$AA?5?$AA0?$AAx?$AA0?$AA0?$AA0?$AA1@ 005789a8     MSVCRTD:fp8.obj
 0003:0000fa20       ??_C@_1CK@JMKHCBEI@?$AA_?$AAs?$AAe?$AAt?$AAd?$AAe?$AAf?$AAa?$AAu?$AAl?$AAt?$AAp?$AAr?$AAe?$AAc?$AAi?$AAs?$AAi?$AAo?$AAn?$AA?$AA@ 00578a20     MSVCRTD:fp8.obj
 0003:0000fa54       ??_C@_1BI@DMMHIADH@?$AAi?$AAn?$AAt?$AAe?$AAl?$AA?2?$AAf?$AAp?$AA8?$AA?4?$AAc?$AA?$AA@ 00578a54     MSVCRTD:fp8.obj
 0003:0000ffd4       __tls_used                 00578fd4     MSVCRTD:tlssup.obj
 0003:00010260       ??_R4saPlugins@@6B@        00579260     main.obj
 0003:00010278       ??_R3saPlugins@@8          00579278     main.obj
 0003:0001028c       ??_R2saPlugins@@8          0057928c     main.obj
 0003:0001029c       ??_R1A@?0A@EA@saPlugins@@8 0057929c     main.obj
 0003:000102c0       ??_R1A@?0A@EA@vPluginLoader@@8 005792c0     main.obj
 0003:000102e4       ??_R3vPluginLoader@@8      005792e4     main.obj
 0003:000102f8       ??_R2vPluginLoader@@8      005792f8     main.obj
 0003:00010304       ??_R1A@?0A@EA@vTimer@@8    00579304     main.obj
 0003:00010328       ??_R3vTimer@@8             00579328     main.obj
 0003:0001033c       ??_R2vTimer@@8             0057933c     main.obj
 0003:00010344       ??_R4saExitFunction@@6BrmxData@@@ 00579344     main.obj
 0003:0001035c       ??_R3saExitFunction@@8     0057935c     main.obj
 0003:00010370       ??_R2saExitFunction@@8     00579370     main.obj
 0003:000103ac       ??_R1A@?0A@EA@saExitFunction@@8 005793ac     main.obj
 0003:000103d0       ??_R1A@?0A@EA@funcSingle@@8 005793d0     main.obj
 0003:000103f4       ??_R3funcSingle@@8         005793f4     main.obj
 0003:00010408       ??_R2funcSingle@@8         00579408     main.obj
 0003:00010440       ??_R1A@?0A@EA@funcPress@@8 00579440     main.obj
 0003:00010464       ??_R3funcPress@@8          00579464     main.obj
 0003:00010478       ??_R2funcPress@@8          00579478     main.obj
 0003:000104ac       ??_R1A@?0A@EA@funcBase@@8  005794ac     main.obj
 0003:000104d0       ??_R3funcBase@@8           005794d0     main.obj
 0003:000104e4       ??_R2funcBase@@8           005794e4     main.obj
 0003:00010510       ??_R1A@?0A@EA@cfgBase@@8   00579510     main.obj
 0003:00010534       ??_R3cfgBase@@8            00579534     main.obj
 0003:00010548       ??_R2cfgBase@@8            00579548     main.obj
 0003:00010570       ??_R1A@?0A@EA@prmBase@@8   00579570     main.obj
 0003:00010594       ??_R3prmBase@@8            00579594     main.obj
 0003:000105a8       ??_R2prmBase@@8            005795a8     main.obj
 0003:000105c4       ??_R1A@?0A@EA@rmxData@@8   005795c4     main.obj
 0003:000105e8       ??_R3rmxData@@8            005795e8     main.obj
 0003:000105fc       ??_R2rmxData@@8            005795fc     main.obj
 0003:00010604       ??_R1CI@?0A@EA@rmxString@@8 00579604     main.obj
 0003:00010628       ??_R3rmxString@@8          00579628     main.obj
 0003:0001063c       ??_R2rmxString@@8          0057963c     main.obj
 0003:0001064c       ??_R1A@?0A@EA@rmxString@@8 0057964c     main.obj
 0003:00010670       ??_R1A@?0A@EA@CBString@Bstrlib@@8 00579670     main.obj
 0003:00010694       ??_R3CBString@Bstrlib@@8   00579694     main.obj
 0003:000106a8       ??_R2CBString@Bstrlib@@8   005796a8     main.obj
 0003:000106b4       ??_R13?0A@EA@tagbstring@@8 005796b4     main.obj
 0003:000106d8       ??_R3tagbstring@@8         005796d8     main.obj
 0003:000106ec       ??_R2tagbstring@@8         005796ec     main.obj
 0003:000106f4       ??_R1A@?0A@EA@tagbstring@@8 005796f4     main.obj
 0003:00010718       ??_R1CI@?0A@EA@CBString@Bstrlib@@8 00579718     main.obj
 0003:0001073c       ??_R1CM@?0A@EA@tagbstring@@8 0057973c     main.obj
 0003:00010760       ??_R1EI@?0A@EA@cbBase@@8   00579760     main.obj
 0003:00010784       ??_R3cbBase@@8             00579784     main.obj
 0003:00010798       ??_R2cbBase@@8             00579798     main.obj
 0003:000107a4       ??_R1A@?0A@EA@cbBase@@8    005797a4     main.obj
 0003:000107c8       ??_R1A@?0A@EN@?$rmxList@PAVcfgBase@@@@8 005797c8     main.obj
 0003:000107ec       ??_R3?$rmxList@PAVcfgBase@@@@8 005797ec     main.obj
 0003:00010800       ??_R2?$rmxList@PAVcfgBase@@@@8 00579800     main.obj
 0003:00010808       ??_R1A@?0A@EA@?$rmxList@PAVcfgBase@@@@8 00579808     main.obj
 0003:0001082c       ??_R1EI@?0A@EN@?$rmxList@PAVcfgBase@@@@8 0057982c     main.obj
 0003:00010850       ??_R4saExitFunction@@6BrmxString@@@ 00579850     main.obj
 0003:00010868       ??_R4saExitFunction@@6B@   00579868     main.obj
 0003:00010880       ??_R4saTest@@6BrmxData@@@  00579880     main.obj
 0003:00010898       ??_R3saTest@@8             00579898     main.obj
 0003:000108ac       ??_R2saTest@@8             005798ac     main.obj
 0003:000108e8       ??_R1A@?0A@EA@saTest@@8    005798e8     main.obj
 0003:0001090c       ??_R4saTest@@6BrmxString@@@ 0057990c     main.obj
 0003:00010924       ??_R4saTest@@6B@           00579924     main.obj
 0003:0001093c       ??_R4saLaunch@@6BrmxData@@@ 0057993c     main.obj
 0003:00010954       ??_R3saLaunch@@8           00579954     main.obj
 0003:00010968       ??_R2saLaunch@@8           00579968     main.obj
 0003:000109a4       ??_R1A@?0A@EA@saLaunch@@8  005799a4     main.obj
 0003:000109c8       ??_R4saLaunch@@6BrmxString@@@ 005799c8     main.obj
 0003:000109e0       ??_R4saLaunch@@6B@         005799e0     main.obj
 0003:000109f8       ??_R4saLaunchThread@@6B@   005799f8     main.obj
 0003:00010a10       ??_R3saLaunchThread@@8     00579a10     main.obj
 0003:00010a24       ??_R2saLaunchThread@@8     00579a24     main.obj
 0003:00010a34       ??_R1A@?0A@EA@saLaunchThread@@8 00579a34     main.obj
 0003:00010a58       ??_R1A@?0A@EA@rmxThread@@8 00579a58     main.obj
 0003:00010a7c       ??_R3rmxThread@@8          00579a7c     main.obj
 0003:00010a90       ??_R2rmxThread@@8          00579a90     main.obj
 0003:00010a9c       ??_R1A@?0A@EA@rmxMutex@@8  00579a9c     main.obj
 0003:00010ac0       ??_R3rmxMutex@@8           00579ac0     main.obj
 0003:00010ad4       ??_R2rmxMutex@@8           00579ad4     main.obj
 0003:00010adc       ??_R4rmxString@@6B@        00579adc     main.obj
 0003:00010af4       ??_R4vPluginLoader@@6B@    00579af4     rmx core:Loader.obj
 0003:00010b0c       ??_R4rmx_server@@6BWebServerBaseClass@@@ 00579b0c     rmx core:Loader.obj
 0003:00010b24       ??_R3rmx_server@@8         00579b24     rmx core:Loader.obj
 0003:00010b38       ??_R2rmx_server@@8         00579b38     rmx core:Loader.obj
 0003:00010b48       ??_R1A@?0A@EA@rmx_server@@8 00579b48     rmx core:Loader.obj
 0003:00010b6c       ??_R1A@?0A@EA@WebServerBaseClass@@8 00579b6c     rmx core:Loader.obj
 0003:00010b90       ??_R3WebServerBaseClass@@8 00579b90     rmx core:Loader.obj
 0003:00010ba4       ??_R2WebServerBaseClass@@8 00579ba4     rmx core:Loader.obj
 0003:00010bac       ??_R1CI@?0A@EA@vTimer@@8   00579bac     rmx core:Loader.obj
 0003:00010bd0       ??_R4rmx_server@@6BvTimer@@@ 00579bd0     rmx core:Loader.obj
 0003:00010be8       ??_R4cfgLabel@@6BrmxData@@@ 00579be8     rmx core:Loader.obj
 0003:00010c00       ??_R3cfgLabel@@8           00579c00     rmx core:Loader.obj
 0003:00010c14       ??_R2cfgLabel@@8           00579c14     rmx core:Loader.obj
 0003:00010c40       ??_R1A@?0A@EA@cfgLabel@@8  00579c40     rmx core:Loader.obj
 0003:00010c64       ??_R4cfgLabel@@6BrmxString@@@ 00579c64     rmx core:Loader.obj
 0003:00010c7c       ??_R4cfgLabel@@6B@         00579c7c     rmx core:Loader.obj
 0003:00010c94       ??_R4vConsolePluginCallback@@6B@ 00579c94     rmx core:Loader.obj
 0003:00010cac       ??_R3vConsolePluginCallback@@8 00579cac     rmx core:Loader.obj
 0003:00010cc0       ??_R2vConsolePluginCallback@@8 00579cc0     rmx core:Loader.obj
 0003:00010ccc       ??_R1A@?0A@EA@vConsolePluginCallback@@8 00579ccc     rmx core:Loader.obj
 0003:00010cf0       ??_R1A@?0A@EA@vPluginCallback@@8 00579cf0     rmx core:Loader.obj
 0003:00010d14       ??_R3vPluginCallback@@8    00579d14     rmx core:Loader.obj
 0003:00010d28       ??_R2vPluginCallback@@8    00579d28     rmx core:Loader.obj
 0003:00010d30       ??_R4vPluginCallback@@6B@  00579d30     rmx core:Loader.obj
 0003:00010d48       ??_R4vFunctionPluginCallback@@6B@ 00579d48     rmx core:Loader.obj
 0003:00010d60       ??_R3vFunctionPluginCallback@@8 00579d60     rmx core:Loader.obj
 0003:00010d74       ??_R2vFunctionPluginCallback@@8 00579d74     rmx core:Loader.obj
 0003:00010d80       ??_R1A@?0A@EA@vFunctionPluginCallback@@8 00579d80     rmx core:Loader.obj
 0003:00010da4       ??_R4cbRootFunction@@6B@   00579da4     rmx core:Loader.obj
 0003:00010dbc       ??_R3cbRootFunction@@8     00579dbc     rmx core:Loader.obj
 0003:00010dd0       ??_R2cbRootFunction@@8     00579dd0     rmx core:Loader.obj
 0003:00010dec       ??_R1A@?0A@EA@cbRootFunction@@8 00579dec     rmx core:Loader.obj
 0003:00010e10       ??_R1A@?0A@EA@cbRoot@@8    00579e10     rmx core:Loader.obj
 0003:00010e34       ??_R3cbRoot@@8             00579e34     rmx core:Loader.obj
 0003:00010e48       ??_R2cbRoot@@8             00579e48     rmx core:Loader.obj
 0003:00010e5c       ??_R1A@?0A@EA@cbCore@@8    00579e5c     rmx core:Loader.obj
 0003:00010e80       ??_R3cbCore@@8             00579e80     rmx core:Loader.obj
 0003:00010e94       ??_R2cbCore@@8             00579e94     rmx core:Loader.obj
 0003:00010ea4       ??_R4cbRoot@@6B@           00579ea4     rmx core:Loader.obj
 0003:00010ebc       ??_R4sqlPluginCallback@@6B@ 00579ebc     rmx core:Loader.obj
 0003:00010ed4       ??_R3sqlPluginCallback@@8  00579ed4     rmx core:Loader.obj
 0003:00010ee8       ??_R2sqlPluginCallback@@8  00579ee8     rmx core:Loader.obj
 0003:00010ef4       ??_R1A@?0A@EA@sqlPluginCallback@@8 00579ef4     rmx core:Loader.obj
 0003:00010f18       ??_R4funcNone@@6BrmxData@@@ 00579f18     rmx core:Loader.obj
 0003:00010f30       ??_R3funcNone@@8           00579f30     rmx core:Loader.obj
 0003:00010f44       ??_R2funcNone@@8           00579f44     rmx core:Loader.obj
 0003:00010f78       ??_R1A@?0A@EA@funcNone@@8  00579f78     rmx core:Loader.obj
 0003:00010f9c       ??_R4funcNone@@6BrmxString@@@ 00579f9c     rmx core:Loader.obj
 0003:00010fb4       ??_R4funcNone@@6B@         00579fb4     rmx core:Loader.obj
 0003:00010fcc       ??_R4?$rmxList@PAVvPlugin@@@@6B@ 00579fcc     rmx core:Loader.obj
 0003:00010fe4       ??_R3?$rmxList@PAVvPlugin@@@@8 00579fe4     rmx core:Loader.obj
 0003:00010ff8       ??_R2?$rmxList@PAVvPlugin@@@@8 00579ff8     rmx core:Loader.obj
 0003:00011000       ??_R1A@?0A@EA@?$rmxList@PAVvPlugin@@@@8 0057a000     rmx core:Loader.obj
 0003:00011024       ??_R4?$rmxList@PAVvPluginCallback@@@@6B@ 0057a024     rmx core:Loader.obj
 0003:0001103c       ??_R3?$rmxList@PAVvPluginCallback@@@@8 0057a03c     rmx core:Loader.obj
 0003:00011050       ??_R2?$rmxList@PAVvPluginCallback@@@@8 0057a050     rmx core:Loader.obj
 0003:00011058       ??_R1A@?0A@EA@?$rmxList@PAVvPluginCallback@@@@8 0057a058     rmx core:Loader.obj
 0003:0001107c       ??_R4rmxMasterPlugin@@6BvPlugin@@@ 0057a07c     rmx core:rmxMasterPlugin.obj
 0003:00011094       ??_R3rmxMasterPlugin@@8    0057a094     rmx core:rmxMasterPlugin.obj
 0003:000110a8       ??_R2rmxMasterPlugin@@8    0057a0a8     rmx core:rmxMasterPlugin.obj
 0003:000110e4       ??_R1A@?0A@EA@rmxMasterPlugin@@8 0057a0e4     rmx core:rmxMasterPlugin.obj
 0003:00011108       ??_R1A@?0A@EA@vLocalPlugin@@8 0057a108     rmx core:rmxMasterPlugin.obj
 0003:0001112c       ??_R3vLocalPlugin@@8       0057a12c     rmx core:rmxMasterPlugin.obj
 0003:00011140       ??_R2vLocalPlugin@@8       0057a140     rmx core:rmxMasterPlugin.obj
 0003:00011178       ??_R1A@?0A@EA@vPlugin@@8   0057a178     rmx core:rmxMasterPlugin.obj
 0003:0001119c       ??_R3vPlugin@@8            0057a19c     rmx core:rmxMasterPlugin.obj
 0003:000111b0       ??_R2vPlugin@@8            0057a1b0     rmx core:rmxMasterPlugin.obj
 0003:000111b8       ??_R1MA@?0A@EA@cfgRoot@@8  0057a1b8     rmx core:rmxMasterPlugin.obj
 0003:000111dc       ??_R3cfgRoot@@8            0057a1dc     rmx core:rmxMasterPlugin.obj
 0003:000111f0       ??_R2cfgRoot@@8            0057a1f0     rmx core:rmxMasterPlugin.obj
 0003:0001121c       ??_R1A@?0A@EA@cfgRoot@@8   0057a21c     rmx core:rmxMasterPlugin.obj
 0003:00011240       ??_R1MA@?0A@EA@cfgBase@@8  0057a240     rmx core:rmxMasterPlugin.obj
 0003:00011264       ??_R1MA@?0A@EA@prmBase@@8  0057a264     rmx core:rmxMasterPlugin.obj
 0003:00011288       ??_R1MA@?0A@EA@rmxData@@8  0057a288     rmx core:rmxMasterPlugin.obj
 0003:000112ac       ??_R1OI@?0A@EA@rmxString@@8 0057a2ac     rmx core:rmxMasterPlugin.obj
 0003:000112d0       ??_R1OI@?0A@EA@CBString@Bstrlib@@8 0057a2d0     rmx core:rmxMasterPlugin.obj
 0003:000112f4       ??_R1OM@?0A@EA@tagbstring@@8 0057a2f4     rmx core:rmxMasterPlugin.obj
 0003:00011318       ??_R1BAI@?0A@EA@cbBase@@8  0057a318     rmx core:rmxMasterPlugin.obj
 0003:0001133c       ??_R1BAI@?0A@EN@?$rmxList@PAVcfgBase@@@@8 0057a33c     rmx core:rmxMasterPlugin.obj
 0003:00011360       ??_R4rmxMasterPlugin@@6BrmxData@@@ 0057a360     rmx core:rmxMasterPlugin.obj
 0003:00011378       ??_R4rmxMasterPlugin@@6BrmxString@@@ 0057a378     rmx core:rmxMasterPlugin.obj
 0003:00011390       ??_R4rmxMasterPlugin@@6BcfgRoot@@@ 0057a390     rmx core:rmxMasterPlugin.obj
 0003:000113a8       ??_R4vSqlite@@6B@          0057a3a8     rmx core:sqlite.obj
 0003:000113c0       ??_R3vSqlite@@8            0057a3c0     rmx core:sqlite.obj
 0003:000113d4       ??_R2vSqlite@@8            0057a3d4     rmx core:sqlite.obj
 0003:000113dc       ??_R1A@?0A@EA@vSqlite@@8   0057a3dc     rmx core:sqlite.obj
 0003:00011400       ??_R4timerString@@6BtimerDelete@@@ 0057a400     rmx core:sqlite.obj
 0003:00011418       ??_R3timerString@@8        0057a418     rmx core:sqlite.obj
 0003:0001142c       ??_R2timerString@@8        0057a42c     rmx core:sqlite.obj
 0003:00011450       ??_R1A@?0A@EA@timerString@@8 0057a450     rmx core:sqlite.obj
 0003:00011474       ??_R1A@?0A@EA@timerDelete@@8 0057a474     rmx core:sqlite.obj
 0003:00011498       ??_R3timerDelete@@8        0057a498     rmx core:sqlite.obj
 0003:000114ac       ??_R2timerDelete@@8        0057a4ac     rmx core:sqlite.obj
 0003:000114bc       ??_R1A@?0A@EA@vTimedCallback@@8 0057a4bc     rmx core:sqlite.obj
 0003:000114e0       ??_R3vTimedCallback@@8     0057a4e0     rmx core:sqlite.obj
 0003:000114f4       ??_R2vTimedCallback@@8     0057a4f4     rmx core:sqlite.obj
 0003:00011500       ??_R1CA@?0A@EA@rmxString@@8 0057a500     rmx core:sqlite.obj
 0003:00011524       ??_R1CA@?0A@EA@CBString@Bstrlib@@8 0057a524     rmx core:sqlite.obj
 0003:00011548       ??_R1CE@?0A@EA@tagbstring@@8 0057a548     rmx core:sqlite.obj
 0003:0001156c       ??_R4timerString@@6BrmxString@@@ 0057a56c     rmx core:sqlite.obj
 0003:00011584       ??_R4timerDelete@@6B@      0057a584     rmx core:sqlite.obj
 0003:0001159c       ??_R4rmxDataList@@6B@      0057a59c     rmx core:http.obj
 0003:000115b4       ??_R3rmxDataList@@8        0057a5b4     rmx core:http.obj
 0003:000115c8       ??_R2rmxDataList@@8        0057a5c8     rmx core:http.obj
 0003:000115d4       ??_R1A@?0A@EA@rmxDataList@@8 0057a5d4     rmx core:http.obj
 0003:000115f8       ??_R1A@?0A@EA@?$rmxList@PAVrmxData@@@@8 0057a5f8     rmx core:http.obj
 0003:0001161c       ??_R3?$rmxList@PAVrmxData@@@@8 0057a61c     rmx core:http.obj
 0003:00011630       ??_R2?$rmxList@PAVrmxData@@@@8 0057a630     rmx core:http.obj
 0003:00011638       ??_R4?$rmxList@PAVrmxData@@@@6B@ 0057a638     rmx core:http.obj
 0003:00011650       ??_R4vPluginTree@@6BrmxData@@@ 0057a650     rmx core:PluginTree.obj
 0003:00011668       ??_R3vPluginTree@@8        0057a668     rmx core:PluginTree.obj
 0003:0001167c       ??_R2vPluginTree@@8        0057a67c     rmx core:PluginTree.obj
 0003:000116b0       ??_R1A@?0A@EA@vPluginTree@@8 0057a6b0     rmx core:PluginTree.obj
 0003:000116d4       ??_R1A@?0A@EA@cfgTree@@8   0057a6d4     rmx core:PluginTree.obj
 0003:000116f8       ??_R3cfgTree@@8            0057a6f8     rmx core:PluginTree.obj
 0003:0001170c       ??_R2cfgTree@@8            0057a70c     rmx core:PluginTree.obj
 0003:00011738       ??_R4vPluginTree@@6BrmxString@@@ 0057a738     rmx core:PluginTree.obj
 0003:00011750       ??_R4vPluginTree@@6B@      0057a750     rmx core:PluginTree.obj
 0003:00011768       ??_R4cfgLine@@6BrmxData@@@ 0057a768     rmx core:PluginTree.obj
 0003:00011780       ??_R3cfgLine@@8            0057a780     rmx core:PluginTree.obj
 0003:00011794       ??_R2cfgLine@@8            0057a794     rmx core:PluginTree.obj
 0003:000117c0       ??_R1A@?0A@EA@cfgLine@@8   0057a7c0     rmx core:PluginTree.obj
 0003:000117e4       ??_R4cfgLine@@6BrmxString@@@ 0057a7e4     rmx core:PluginTree.obj
 0003:000117fc       ??_R4cfgLine@@6B@          0057a7fc     rmx core:PluginTree.obj
 0003:00011814       ??_R4vPluginManager@@6BrmxData@@@ 0057a814     rmx core:PluginTree.obj
 0003:0001182c       ??_R3vPluginManager@@8     0057a82c     rmx core:PluginTree.obj
 0003:00011840       ??_R2vPluginManager@@8     0057a840     rmx core:PluginTree.obj
 0003:00011874       ??_R1A@?0A@EA@vPluginManager@@8 0057a874     rmx core:PluginTree.obj
 0003:00011898       ??_R1A@?0A@EA@cfgBool@@8   0057a898     rmx core:PluginTree.obj
 0003:000118bc       ??_R3cfgBool@@8            0057a8bc     rmx core:PluginTree.obj
 0003:000118d0       ??_R2cfgBool@@8            0057a8d0     rmx core:PluginTree.obj
 0003:000118fc       ??_R4vPluginManager@@6BrmxString@@@ 0057a8fc     rmx core:PluginTree.obj
 0003:00011914       ??_R4vPluginManager@@6B@   0057a914     rmx core:PluginTree.obj
 0003:0001192c       ??_R4vPluginScanBtn@@6BrmxData@@@ 0057a92c     rmx core:PluginTree.obj
 0003:00011944       ??_R3vPluginScanBtn@@8     0057a944     rmx core:PluginTree.obj
 0003:00011958       ??_R2vPluginScanBtn@@8     0057a958     rmx core:PluginTree.obj
 0003:0001198c       ??_R1A@?0A@EA@vPluginScanBtn@@8 0057a98c     rmx core:PluginTree.obj
 0003:000119b0       ??_R1A@?0A@EA@cfgButton@@8 0057a9b0     rmx core:PluginTree.obj
 0003:000119d4       ??_R3cfgButton@@8          0057a9d4     rmx core:PluginTree.obj
 0003:000119e8       ??_R2cfgButton@@8          0057a9e8     rmx core:PluginTree.obj
 0003:00011a14       ??_R4vPluginScanBtn@@6BrmxString@@@ 0057aa14     rmx core:PluginTree.obj
 0003:00011a2c       ??_R4vPluginScanBtn@@6B@   0057aa2c     rmx core:PluginTree.obj
 0003:00011a44       ??_R4?$rmxList@PAVvPluginManager@@@@6B@ 0057aa44     rmx core:PluginTree.obj
 0003:00011a5c       ??_R3?$rmxList@PAVvPluginManager@@@@8 0057aa5c     rmx core:PluginTree.obj
 0003:00011a70       ??_R2?$rmxList@PAVvPluginManager@@@@8 0057aa70     rmx core:PluginTree.obj
 0003:00011a78       ??_R1A@?0A@EA@?$rmxList@PAVvPluginManager@@@@8 0057aa78     rmx core:PluginTree.obj
 0003:00011a9c       ??_R4rmxJsonParser@@6BrmxData@@@ 0057aa9c     rmx core:jsonParser.obj
 0003:00011ab4       ??_R3rmxJsonParser@@8      0057aab4     rmx core:jsonParser.obj
 0003:00011ac8       ??_R2rmxJsonParser@@8      0057aac8     rmx core:jsonParser.obj
 0003:00011b04       ??_R1A@?0A@EA@rmxJsonParser@@8 0057ab04     rmx core:jsonParser.obj
 0003:00011b28       ??_R4rmxJsonParser@@6BrmxString@@@ 0057ab28     rmx core:jsonParser.obj
 0003:00011b40       ??_R4rmxJsonParser@@6B@    0057ab40     rmx core:jsonParser.obj
 0003:00011b58       ??_R4cbCoreConsole@@6B@    0057ab58     rmx core:cbConsole.obj
 0003:00011b70       ??_R3cbCoreConsole@@8      0057ab70     rmx core:cbConsole.obj
 0003:00011b84       ??_R2cbCoreConsole@@8      0057ab84     rmx core:cbConsole.obj
 0003:00011b98       ??_R1A@?0A@EA@cbCoreConsole@@8 0057ab98     rmx core:cbConsole.obj
 0003:00011bbc       ??_R4cbRootConsole@@6B@    0057abbc     rmx core:cbConsole.obj
 0003:00011bd4       ??_R3cbRootConsole@@8      0057abd4     rmx core:cbConsole.obj
 0003:00011be8       ??_R2cbRootConsole@@8      0057abe8     rmx core:cbConsole.obj
 0003:00011c04       ??_R1A@?0A@EA@cbRootConsole@@8 0057ac04     rmx core:cbConsole.obj
 0003:00011c28       ??_R4?$rmxList@PAVcbCoreConsole@@@@6B@ 0057ac28     rmx core:cbConsole.obj
 0003:00011c40       ??_R3?$rmxList@PAVcbCoreConsole@@@@8 0057ac40     rmx core:cbConsole.obj
 0003:00011c54       ??_R2?$rmxList@PAVcbCoreConsole@@@@8 0057ac54     rmx core:cbConsole.obj
 0003:00011c5c       ??_R1A@?0A@EA@?$rmxList@PAVcbCoreConsole@@@@8 0057ac5c     rmx core:cbConsole.obj
 0003:00011c80       ??_R4cbCoreFunction@@6B@   0057ac80     rmx core:cbFunction.obj
 0003:00011c98       ??_R3cbCoreFunction@@8     0057ac98     rmx core:cbFunction.obj
 0003:00011cac       ??_R2cbCoreFunction@@8     0057acac     rmx core:cbFunction.obj
 0003:00011cc0       ??_R1A@?0A@EA@cbCoreFunction@@8 0057acc0     rmx core:cbFunction.obj
 0003:00011ce4       ??_R4?$rmxList@PBD@@6B@    0057ace4     rmx core:cbFunction.obj
 0003:00011cfc       ??_R3?$rmxList@PBD@@8      0057acfc     rmx core:cbFunction.obj
 0003:00011d10       ??_R2?$rmxList@PBD@@8      0057ad10     rmx core:cbFunction.obj
 0003:00011d18       ??_R1A@?0A@EA@?$rmxList@PBD@@8 0057ad18     rmx core:cbFunction.obj
 0003:00011d3c       ??_R4?$rmxList@PAVcbCoreFunction@@@@6B@ 0057ad3c     rmx core:cbFunction.obj
 0003:00011d54       ??_R3?$rmxList@PAVcbCoreFunction@@@@8 0057ad54     rmx core:cbFunction.obj
 0003:00011d68       ??_R2?$rmxList@PAVcbCoreFunction@@@@8 0057ad68     rmx core:cbFunction.obj
 0003:00011d70       ??_R1A@?0A@EA@?$rmxList@PAVcbCoreFunction@@@@8 0057ad70     rmx core:cbFunction.obj
 0003:00011d94       ??_R4sqlCallback@@6B@      0057ad94     rmx core:sqlCallback.obj
 0003:00011dac       ??_R3sqlCallback@@8        0057adac     rmx core:sqlCallback.obj
 0003:00011dc0       ??_R2sqlCallback@@8        0057adc0     rmx core:sqlCallback.obj
 0003:00011dd4       ??_R1A@?0A@EA@sqlCallback@@8 0057add4     rmx core:sqlCallback.obj
 0003:00011df8       ??_R4?$rmxList@PAVsqlCallback@@@@6B@ 0057adf8     rmx core:sqlCallback.obj
 0003:00011e10       ??_R3?$rmxList@PAVsqlCallback@@@@8 0057ae10     rmx core:sqlCallback.obj
 0003:00011e24       ??_R2?$rmxList@PAVsqlCallback@@@@8 0057ae24     rmx core:sqlCallback.obj
 0003:00011e2c       ??_R1A@?0A@EA@?$rmxList@PAVsqlCallback@@@@8 0057ae2c     rmx core:sqlCallback.obj
 0003:00011e50       ??_R4RmxPlugin@@6B@        0057ae50     rmx core:RmxPlugin.obj
 0003:00011e68       ??_R3RmxPlugin@@8          0057ae68     rmx core:RmxPlugin.obj
 0003:00011e7c       ??_R2RmxPlugin@@8          0057ae7c     rmx core:RmxPlugin.obj
 0003:00011e88       ??_R1A@?0A@EA@RmxPlugin@@8 0057ae88     rmx core:RmxPlugin.obj
 0003:00011eac       ??_R4vLocalPlugin@@6BvPlugin@@@ 0057aeac     rmx core:LocalPlugin.obj
 0003:00011ec4       ??_R4vLocalPlugin@@6BrmxData@@@ 0057aec4     rmx core:LocalPlugin.obj
 0003:00011edc       ??_R4vLocalPlugin@@6BrmxString@@@ 0057aedc     rmx core:LocalPlugin.obj
 0003:00011ef4       ??_R4vLocalPlugin@@6BcfgRoot@@@ 0057aef4     rmx core:LocalPlugin.obj
 0003:00011f0c       ??_R4vPlugin@@6B@          0057af0c     rmx core:Plugin.obj
 0003:00011f24       ??_R4?$rmxList@PAVplugCallback@@@@6B@ 0057af24     rmx core:Plugin.obj
 0003:00011f3c       ??_R3?$rmxList@PAVplugCallback@@@@8 0057af3c     rmx core:Plugin.obj
 0003:00011f50       ??_R2?$rmxList@PAVplugCallback@@@@8 0057af50     rmx core:Plugin.obj
 0003:00011f58       ??_R1A@?0A@EA@?$rmxList@PAVplugCallback@@@@8 0057af58     rmx core:Plugin.obj
 0003:00011f7c       ??_R4httpFile@@6B@         0057af7c     rmx core:file.obj
 0003:00011f94       ??_R3httpFile@@8           0057af94     rmx core:file.obj
 0003:00011fa8       ??_R2httpFile@@8           0057afa8     rmx core:file.obj
 0003:00011fb4       ??_R1A@?0A@EA@httpFile@@8  0057afb4     rmx core:file.obj
 0003:00011fd8       ??_R1A@?0A@EA@IPageGenerator@@8 0057afd8     rmx core:file.obj
 0003:00011ffc       ??_R3IPageGenerator@@8     0057affc     rmx core:file.obj
 0003:00012010       ??_R2IPageGenerator@@8     0057b010     rmx core:file.obj
 0003:00012018       ??_R4IPageGenerator@@6B@   0057b018     rmx core:file.obj
 0003:00012030       ??_R4httpApi@@6BIPageGenerator@@@ 0057b030     rmx core:api.obj
 0003:00012048       ??_R3httpApi@@8            0057b048     rmx core:api.obj
 0003:0001205c       ??_R2httpApi@@8            0057b05c     rmx core:api.obj
 0003:0001207c       ??_R1A@?0A@EA@httpApi@@8   0057b07c     rmx core:api.obj
 0003:000120a0       ??_R1A@?0A@EA@httpBase@@8  0057b0a0     rmx core:api.obj
 0003:000120c4       ??_R3httpBase@@8           0057b0c4     rmx core:api.obj
 0003:000120d8       ??_R2httpBase@@8           0057b0d8     rmx core:api.obj
 0003:000120f4       ??_R13?0A@EA@rmxString@@8  0057b0f4     rmx core:api.obj
 0003:00012118       ??_R13?0A@EA@CBString@Bstrlib@@8 0057b118     rmx core:api.obj
 0003:0001213c       ??_R17?0A@EA@tagbstring@@8 0057b13c     rmx core:api.obj
 0003:00012160       ??_R4httpApi@@6BrmxString@@@ 0057b160     rmx core:api.obj
 0003:00012178       ??_R4httpApiCore@@6BIPageGenerator@@@ 0057b178     rmx core:apiCore.obj
 0003:00012190       ??_R3httpApiCore@@8        0057b190     rmx core:apiCore.obj
 0003:000121a4       ??_R2httpApiCore@@8        0057b1a4     rmx core:apiCore.obj
 0003:000121c4       ??_R1A@?0A@EA@httpApiCore@@8 0057b1c4     rmx core:apiCore.obj
 0003:000121e8       ??_R4httpApiCore@@6BrmxString@@@ 0057b1e8     rmx core:apiCore.obj
 0003:00012200       ??_R4httpBase@@6BIPageGenerator@@@ 0057b200     rmx core:base.obj
 0003:00012218       ??_R4httpBase@@6BrmxString@@@ 0057b218     rmx core:base.obj
 0003:00012230       ??_R4funcSingle@@6BrmxData@@@ 0057b230     rmx sdk:funcSingle.obj
 0003:00012248       ??_R4funcSingle@@6BrmxString@@@ 0057b248     rmx sdk:funcSingle.obj
 0003:00012260       ??_R4funcSingle@@6B@       0057b260     rmx sdk:funcSingle.obj
 0003:00012278       ??_R4funcBase@@6BrmxData@@@ 0057b278     rmx sdk:funcBase.obj
 0003:00012290       ??_R4funcBase@@6BrmxString@@@ 0057b290     rmx sdk:funcBase.obj
 0003:000122a8       ??_R4funcBase@@6B@         0057b2a8     rmx sdk:funcBase.obj
 0003:000122c0       ??_R4cbBase@@6B@           0057b2c0     rmx sdk:cbBase.obj
 0003:000122d8       ??_R4?$rmxList@PAVcfgBase@@@@6B@ 0057b2d8     rmx sdk:cbBase.obj
 0003:000122f0       ??_R4rmxData@@6B@          0057b2f0     rmx sdk:rmxData.obj
 0003:00012308       ??_R4funcParam@@6BrmxData@@@ 0057b308     rmx sdk:funcParam.obj
 0003:00012320       ??_R3funcParam@@8          0057b320     rmx sdk:funcParam.obj
 0003:00012334       ??_R2funcParam@@8          0057b334     rmx sdk:funcParam.obj
 0003:00012360       ??_R1A@?0A@EA@funcParam@@8 0057b360     rmx sdk:funcParam.obj
 0003:00012384       ??_R4funcParam@@6BrmxString@@@ 0057b384     rmx sdk:funcParam.obj
 0003:0001239c       ??_R4funcParam@@6B@        0057b39c     rmx sdk:funcParam.obj
 0003:000123b4       ??_R4rmxThread@@6B@        0057b3b4     rmx sdk:rmxThread.obj
 0003:000123cc       ??_R4vTimer@@6B@           0057b3cc     rmx sdk:Timer.obj
 0003:000123e4       ??_R4vTimedCallback@@6B@   0057b3e4     rmx sdk:Timer.obj
 0003:000123fc       ??_R4vTimerList@@6B?$rmxList@PAVvTimer@@@@@ 0057b3fc     rmx sdk:Timer.obj
 0003:00012414       ??_R3vTimerList@@8         0057b414     rmx sdk:Timer.obj
 0003:00012428       ??_R2vTimerList@@8         0057b428     rmx sdk:Timer.obj
 0003:00012448       ??_R1A@?0A@EA@vTimerList@@8 0057b448     rmx sdk:Timer.obj
 0003:0001246c       ??_R1A@?0A@EA@?$rmxList@PAVvTimer@@@@8 0057b46c     rmx sdk:Timer.obj
 0003:00012490       ??_R3?$rmxList@PAVvTimer@@@@8 0057b490     rmx sdk:Timer.obj
 0003:000124a4       ??_R2?$rmxList@PAVvTimer@@@@8 0057b4a4     rmx sdk:Timer.obj
 0003:000124ac       ??_R1BE@?0A@EA@vMessageWnd@@8 0057b4ac     rmx sdk:Timer.obj
 0003:000124d0       ??_R3vMessageWnd@@8        0057b4d0     rmx sdk:Timer.obj
 0003:000124e4       ??_R2vMessageWnd@@8        0057b4e4     rmx sdk:Timer.obj
 0003:000124f8       ??_R1A@?0A@EA@vMessageWnd@@8 0057b4f8     rmx sdk:Timer.obj
 0003:0001251c       ??_R1BE@?0A@EA@rmxString@@8 0057b51c     rmx sdk:Timer.obj
 0003:00012540       ??_R1BE@?0A@EA@CBString@Bstrlib@@8 0057b540     rmx sdk:Timer.obj
 0003:00012564       ??_R1BI@?0A@EA@tagbstring@@8 0057b564     rmx sdk:Timer.obj
 0003:00012588       ??_R4vTimerList@@6BvMessageWnd@@@ 0057b588     rmx sdk:Timer.obj
 0003:000125a0       ??_R4?$rmxList@PAX@@6B@    0057b5a0     rmx sdk:Timer.obj
 0003:000125b8       ??_R3?$rmxList@PAX@@8      0057b5b8     rmx sdk:Timer.obj
 0003:000125cc       ??_R2?$rmxList@PAX@@8      0057b5cc     rmx sdk:Timer.obj
 0003:000125d4       ??_R1A@?0A@EA@?$rmxList@PAX@@8 0057b5d4     rmx sdk:Timer.obj
 0003:000125f8       ??_R4?$rmxList@PAVvTimer@@@@6B@ 0057b5f8     rmx sdk:Timer.obj
 0003:00012610       ??_R4cfgBase@@6BrmxData@@@ 0057b610     rmx sdk:cfgBase.obj
 0003:00012628       ??_R4cfgBase@@6BrmxString@@@ 0057b628     rmx sdk:cfgBase.obj
 0003:00012640       ??_R4cfgBase@@6B@          0057b640     rmx sdk:cfgBase.obj
 0003:00012658       ??_R4prmBase@@6BrmxData@@@ 0057b658     rmx sdk:cfgBase.obj
 0003:00012670       ??_R4prmBase@@6BrmxString@@@ 0057b670     rmx sdk:cfgBase.obj
 0003:00012688       ??_R4?$rmxList@PAVprmBase@@@@6B@ 0057b688     rmx sdk:cfgBase.obj
 0003:000126a0       ??_R3?$rmxList@PAVprmBase@@@@8 0057b6a0     rmx sdk:cfgBase.obj
 0003:000126b4       ??_R2?$rmxList@PAVprmBase@@@@8 0057b6b4     rmx sdk:cfgBase.obj
 0003:000126bc       ??_R1A@?0A@EA@?$rmxList@PAVprmBase@@@@8 0057b6bc     rmx sdk:cfgBase.obj
 0003:000126e0       ??_R4?$rmxList@PAVcbBase@@@@6B@ 0057b6e0     rmx sdk:cfgBase.obj
 0003:000126f8       ??_R3?$rmxList@PAVcbBase@@@@8 0057b6f8     rmx sdk:cfgBase.obj
 0003:0001270c       ??_R2?$rmxList@PAVcbBase@@@@8 0057b70c     rmx sdk:cfgBase.obj
 0003:00012714       ??_R1A@?0A@EA@?$rmxList@PAVcbBase@@@@8 0057b714     rmx sdk:cfgBase.obj
 0003:00012738       ??_R4cfgLink@@6BrmxData@@@ 0057b738     rmx sdk:cfgLink.obj
 0003:00012750       ??_R3cfgLink@@8            0057b750     rmx sdk:cfgLink.obj
 0003:00012764       ??_R2cfgLink@@8            0057b764     rmx sdk:cfgLink.obj
 0003:00012798       ??_R1A@?0A@EA@cfgLink@@8   0057b798     rmx sdk:cfgLink.obj
 0003:000127bc       ??_R1A@?0A@EA@cfgNull@@8   0057b7bc     rmx sdk:cfgLink.obj
 0003:000127e0       ??_R3cfgNull@@8            0057b7e0     rmx sdk:cfgLink.obj
 0003:000127f4       ??_R2cfgNull@@8            0057b7f4     rmx sdk:cfgLink.obj
 0003:00012820       ??_R4cfgLink@@6BrmxString@@@ 0057b820     rmx sdk:cfgLink.obj
 0003:00012838       ??_R4cfgLink@@6B@          0057b838     rmx sdk:cfgLink.obj
 0003:00012850       ??_R4cfgTree@@6BrmxData@@@ 0057b850     rmx sdk:cfgTree.obj
 0003:00012868       ??_R4cfgTree@@6BrmxString@@@ 0057b868     rmx sdk:cfgTree.obj
 0003:00012880       ??_R4cfgTree@@6B@          0057b880     rmx sdk:cfgTree.obj
 0003:00012898       ??_R4cfgStatusBar@@6BrmxData@@@ 0057b898     rmx sdk:cfgStatusBar.obj
 0003:000128b0       ??_R3cfgStatusBar@@8       0057b8b0     rmx sdk:cfgStatusBar.obj
 0003:000128c4       ??_R2cfgStatusBar@@8       0057b8c4     rmx sdk:cfgStatusBar.obj
 0003:000128f0       ??_R1A@?0A@EA@cfgStatusBar@@8 0057b8f0     rmx sdk:cfgStatusBar.obj
 0003:00012914       ??_R4cfgStatusBar@@6BrmxString@@@ 0057b914     rmx sdk:cfgStatusBar.obj
 0003:0001292c       ??_R4cfgStatusBar@@6B@     0057b92c     rmx sdk:cfgStatusBar.obj
 0003:00012944       ??_R4cbCore@@6B@           0057b944     rmx sdk:cbCore.obj
 0003:0001295c       ??_R4cfgBool@@6BrmxData@@@ 0057b95c     rmx sdk:cfgBool.obj
 0003:00012974       ??_R4cfgBool@@6BrmxString@@@ 0057b974     rmx sdk:cfgBool.obj
 0003:0001298c       ??_R4cfgBool@@6B@          0057b98c     rmx sdk:cfgBool.obj
 0003:000129a4       ??_R4cfgButton@@6BrmxData@@@ 0057b9a4     rmx sdk:cfgButton.obj
 0003:000129bc       ??_R4cfgButton@@6BrmxString@@@ 0057b9bc     rmx sdk:cfgButton.obj
 0003:000129d4       ??_R4cfgButton@@6B@        0057b9d4     rmx sdk:cfgButton.obj
 0003:000129ec       ??_R4cfgRoot@@6BrmxData@@@ 0057b9ec     rmx sdk:cfgRoot.obj
 0003:00012a04       ??_R4cfgRoot@@6BrmxString@@@ 0057ba04     rmx sdk:cfgRoot.obj
 0003:00012a1c       ??_R4cfgRoot@@6B@          0057ba1c     rmx sdk:cfgRoot.obj
 0003:00012a34       ??_R4funcPress@@6BrmxData@@@ 0057ba34     rmx sdk:funcPress.obj
 0003:00012a4c       ??_R4funcPress@@6BrmxString@@@ 0057ba4c     rmx sdk:funcPress.obj
 0003:00012a64       ??_R4funcPress@@6B@        0057ba64     rmx sdk:funcPress.obj
 0003:00012a7c       ??_R4funcCallback@@6B@     0057ba7c     rmx sdk:funcCallback.obj
 0003:00012a94       ??_R3funcCallback@@8       0057ba94     rmx sdk:funcCallback.obj
 0003:00012aa8       ??_R2funcCallback@@8       0057baa8     rmx sdk:funcCallback.obj
 0003:00012abc       ??_R1A@?0A@EA@funcCallback@@8 0057babc     rmx sdk:funcCallback.obj
 0003:00012ae0       ??_R4rmxMutex@@6B@         0057bae0     rmx sdk:rmxMutex.obj
 0003:00012af8       ??_R4vMessageWnd@@6B@      0057baf8     rmx sdk:MessageWnd.obj
 0003:00012b10       ??_R4cfgNull@@6BrmxData@@@ 0057bb10     rmx sdk:cfgNull.obj
 0003:00012b28       ??_R4cfgNull@@6BrmxString@@@ 0057bb28     rmx sdk:cfgNull.obj
 0003:00012b40       ??_R4cfgNull@@6B@          0057bb40     rmx sdk:cfgNull.obj
 0003:00012b58       ??_R4CBString@Bstrlib@@6B@ 0057bb58     bstring:bstrwrap.obj
 0003:00012b70       ??_R4CBStringException@Bstrlib@@6B@ 0057bb70     bstring:bstrwrap.obj
 0003:00012b88       ??_R3CBStringException@Bstrlib@@8 0057bb88     bstring:bstrwrap.obj
 0003:00012b9c       ??_R2CBStringException@Bstrlib@@8 0057bb9c     bstring:bstrwrap.obj
 0003:00012ba8       ??_R1A@?0A@EA@CBStringException@Bstrlib@@8 0057bba8     bstring:bstrwrap.obj
 0003:00012bcc       ??_R1A@?0A@EA@exception@std@@8 0057bbcc     bstring:bstrwrap.obj
 0003:00012bf0       ??_R3exception@std@@8      0057bbf0     bstring:bstrwrap.obj
 0003:00012c04       ??_R2exception@std@@8      0057bc04     bstring:bstrwrap.obj
 0003:00012c0c       ??_R4out_of_range@std@@6B@ 0057bc0c     bstring:bstrwrap.obj
 0003:00012c24       ??_R3out_of_range@std@@8   0057bc24     bstring:bstrwrap.obj
 0003:00012c38       ??_R2out_of_range@std@@8   0057bc38     bstring:bstrwrap.obj
 0003:00012c48       ??_R1A@?0A@EA@out_of_range@std@@8 0057bc48     bstring:bstrwrap.obj
 0003:00012c6c       ??_R1A@?0A@EA@logic_error@std@@8 0057bc6c     bstring:bstrwrap.obj
 0003:00012c90       ??_R3logic_error@std@@8    0057bc90     bstring:bstrwrap.obj
 0003:00012ca4       ??_R2logic_error@std@@8    0057bca4     bstring:bstrwrap.obj
 0003:00012cb0       ??_R4logic_error@std@@6B@  0057bcb0     bstring:bstrwrap.obj
 0003:00012cc8       ??_R4length_error@std@@6B@ 0057bcc8     bstring:bstrwrap.obj
 0003:00012ce0       ??_R3length_error@std@@8   0057bce0     bstring:bstrwrap.obj
 0003:00012cf4       ??_R2length_error@std@@8   0057bcf4     bstring:bstrwrap.obj
 0003:00012d04       ??_R1A@?0A@EA@length_error@std@@8 0057bd04     bstring:bstrwrap.obj
 0003:00012d28       ??_R4bad_alloc@std@@6B@    0057bd28     bstring:bstrwrap.obj
 0003:00012d40       ??_R3bad_alloc@std@@8      0057bd40     bstring:bstrwrap.obj
 0003:00012d54       ??_R2bad_alloc@std@@8      0057bd54     bstring:bstrwrap.obj
 0003:00012d60       ??_R1A@?0A@EA@bad_alloc@std@@8 0057bd60     bstring:bstrwrap.obj
 0003:00012d84       ??_R4cbRemote@@6B@         0057bd84     rmx_vs8_d:rmx_entry.obj
 0003:00012d9c       ??_R3cbRemote@@8           0057bd9c     rmx_vs8_d:rmx_entry.obj
 0003:00012db0       ??_R2cbRemote@@8           0057bdb0     rmx_vs8_d:rmx_entry.obj
 0003:00012dc0       ??_R1A@?0A@EA@cbRemote@@8  0057bdc0     rmx_vs8_d:rmx_entry.obj
 0003:00012de4       ??_R4plugBase@@6BrmxData@@@ 0057bde4     rmx_vs8_d:plugBase.obj
 0003:00012dfc       ??_R3plugBase@@8           0057bdfc     rmx_vs8_d:plugBase.obj
 0003:00012e10       ??_R2plugBase@@8           0057be10     rmx_vs8_d:plugBase.obj
 0003:00012e44       ??_R1A@?0A@EA@plugBase@@8  0057be44     rmx_vs8_d:plugBase.obj
 0003:00012e68       ??_R4plugBase@@6BrmxString@@@ 0057be68     rmx_vs8_d:plugBase.obj
 0003:00012e80       ??_R4plugBase@@6B@         0057be80     rmx_vs8_d:plugBase.obj
 0003:00012e98       ??_R4WebServerBaseClass@@6B@ 0057be98     jnetlib:webserver.obj
 0003:00012eb0       ??_R4type_info@@6B@        0057beb0     MSVCRTD:ti_inst.obj
 0003:00012ec8       ??_R3type_info@@8          0057bec8     MSVCRTD:ti_inst.obj
 0003:00012edc       ??_R2type_info@@8          0057bedc     MSVCRTD:ti_inst.obj
 0003:00012ee4       ??_R1A@?0A@EA@type_info@@8 0057bee4     MSVCRTD:ti_inst.obj
 0003:000130ec       ___rtc_iaa                 0057c0ec     MSVCRTD:initsect.obj
 0003:0001340c       ___rtc_izz                 0057c40c     MSVCRTD:initsect.obj
 0003:00013510       ___rtc_taa                 0057c510     MSVCRTD:initsect.obj
 0003:00013830       ___rtc_tzz                 0057c830     MSVCRTD:initsect.obj
 0003:00016110       __TI2?AUCBStringException@Bstrlib@@ 0057f110     bstring:bstrwrap.obj
 0003:00016168       __CTA2?AUCBStringException@Bstrlib@@ 0057f168     bstring:bstrwrap.obj
 0003:00016178       __CT??_R0?AUCBStringException@Bstrlib@@@8??0CBStringException@Bstrlib@@QAE@ABU01@@Z44 0057f178     bstring:bstrwrap.obj
 0003:00016198       __CT??_R0?AVexception@std@@@8??0exception@std@@QAE@ABV01@@Z12 0057f198     bstring:bstrwrap.obj
 0003:00018554       __TI3?AVout_of_range@std@@ 00581554     bstring:bstrwrap.obj
 0003:00018598       __CTA3?AVout_of_range@std@@ 00581598     bstring:bstrwrap.obj
 0003:000185ac       __CT??_R0?AVout_of_range@std@@@8??0out_of_range@std@@QAE@ABV01@@Z44 005815ac     bstring:bstrwrap.obj
 0003:000185cc       __CT??_R0?AVlogic_error@std@@@8??0logic_error@std@@QAE@ABV01@@Z44 005815cc     bstring:bstrwrap.obj
 0003:00018800       __TI3?AVlength_error@std@@ 00581800     bstring:bstrwrap.obj
 0003:00018844       __CTA3?AVlength_error@std@@ 00581844     bstring:bstrwrap.obj
 0003:00018858       __CT??_R0?AVlength_error@std@@@8??0length_error@std@@QAE@ABV01@@Z44 00581858     bstring:bstrwrap.obj
 0003:00018878       __TI2?AVbad_alloc@std@@    00581878     bstring:bstrwrap.obj
 0003:0001888c       __CTA2?AVbad_alloc@std@@   0058188c     bstring:bstrwrap.obj
 0003:0001889c       __CT??_R0?AVbad_alloc@std@@@8??0bad_alloc@std@@QAE@ABV01@@Z12 0058189c     bstring:bstrwrap.obj
 0004:00000004       ??_R0?AVsaPlugins@@@8      00583004     main.obj
 0004:00000020       ??_R0?AVvPluginLoader@@@8  00583020     main.obj
 0004:00000044       ??_R0?AVvTimer@@@8         00583044     main.obj
 0004:00000060       ??_R0?AVsaExitFunction@@@8 00583060     main.obj
 0004:00000084       ??_R0?AVfuncSingle@@@8     00583084     main.obj
 0004:000000a4       ??_R0?AVfuncPress@@@8      005830a4     main.obj
 0004:000000c0       ??_R0?AVfuncBase@@@8       005830c0     main.obj
 0004:000000dc       ??_R0?AVcfgBase@@@8        005830dc     main.obj
 0004:000000f8       ??_R0?AVprmBase@@@8        005830f8     main.obj
 0004:00000114       ??_R0?AVrmxData@@@8        00583114     main.obj
 0004:00000130       ??_R0?AVrmxString@@@8      00583130     main.obj
 0004:0000014c       ??_R0?AUCBString@Bstrlib@@@8 0058314c     main.obj
 0004:00000174       ??_R0?AUtagbstring@@@8     00583174     main.obj
 0004:00000194       ??_R0?AVcbBase@@@8         00583194     main.obj
 0004:000001b0       ??_R0?AV?$rmxList@PAVcfgBase@@@@@8 005831b0     main.obj
 0004:000001dc       ??_R0?AVsaTest@@@8         005831dc     main.obj
 0004:000001f8       ??_R0?AVsaLaunch@@@8       005831f8     main.obj
 0004:00000214       ??_R0?AVsaLaunchThread@@@8 00583214     main.obj
 0004:00000238       ??_R0?AVrmxThread@@@8      00583238     main.obj
 0004:00000254       ??_R0?AVrmxMutex@@@8       00583254     main.obj
 0004:00000274       ??_R0?AVrmx_server@@@8     00583274     rmx core:Loader.obj
 0004:00000294       ??_R0?AVWebServerBaseClass@@@8 00583294     rmx core:Loader.obj
 0004:000002bc       ??_R0?AVcfgLabel@@@8       005832bc     rmx core:Loader.obj
 0004:000002d8       ??_R0?AVvConsolePluginCallback@@@8 005832d8     rmx core:Loader.obj
 0004:00000304       ??_R0?AVvPluginCallback@@@8 00583304     rmx core:Loader.obj
 0004:00000328       ??_R0?AVvFunctionPluginCallback@@@8 00583328     rmx core:Loader.obj
 0004:00000358       ??_R0?AVcbRootFunction@@@8 00583358     rmx core:Loader.obj
 0004:0000037c       ??_R0?AVcbRoot@@@8         0058337c     rmx core:Loader.obj
 0004:00000398       ??_R0?AVcbCore@@@8         00583398     rmx core:Loader.obj
 0004:000003b4       ??_R0?AVsqlPluginCallback@@@8 005833b4     rmx core:Loader.obj
 0004:000003dc       ??_R0?AVfuncNone@@@8       005833dc     rmx core:Loader.obj
 0004:000003f8       ??_R0?AV?$rmxList@PAVvPlugin@@@@@8 005833f8     rmx core:Loader.obj
 0004:00000424       ??_R0?AV?$rmxList@PAVvPluginCallback@@@@@8 00583424     rmx core:Loader.obj
 0004:00000460       ??_R0?AVrmxMasterPlugin@@@8 00583460     rmx core:rmxMasterPlugin.obj
 0004:00000484       ??_R0?AVvLocalPlugin@@@8   00583484     rmx core:rmxMasterPlugin.obj
 0004:000004a4       ??_R0?AVvPlugin@@@8        005834a4     rmx core:rmxMasterPlugin.obj
 0004:000004c0       ??_R0?AVcfgRoot@@@8        005834c0     rmx core:rmxMasterPlugin.obj
 0004:000004e0       ??_R0?AVvSqlite@@@8        005834e0     rmx core:sqlite.obj
 0004:000004fc       ??_R0?AVtimerString@@@8    005834fc     rmx core:sqlite.obj
 0004:0000051c       ??_R0?AVtimerDelete@@@8    0058351c     rmx core:sqlite.obj
 0004:0000053c       ??_R0?AVvTimedCallback@@@8 0058353c     rmx core:sqlite.obj
 0004:00000568       ??_R0?AVrmxDataList@@@8    00583568     rmx core:http.obj
 0004:00000588       ??_R0?AV?$rmxList@PAVrmxData@@@@@8 00583588     rmx core:http.obj
 0004:000005b8       ??_R0?AVvPluginTree@@@8    005835b8     rmx core:PluginTree.obj
 0004:000005d8       ??_R0?AVcfgTree@@@8        005835d8     rmx core:PluginTree.obj
 0004:000005f4       ??_R0?AVcfgLine@@@8        005835f4     rmx core:PluginTree.obj
 0004:00000610       ??_R0?AVvPluginManager@@@8 00583610     rmx core:PluginTree.obj
 0004:00000634       ??_R0?AVcfgBool@@@8        00583634     rmx core:PluginTree.obj
 0004:00000650       ??_R0?AVvPluginScanBtn@@@8 00583650     rmx core:PluginTree.obj
 0004:00000674       ??_R0?AVcfgButton@@@8      00583674     rmx core:PluginTree.obj
 0004:00000690       ??_R0?AV?$rmxList@PAVvPluginManager@@@@@8 00583690     rmx core:PluginTree.obj
 0004:000006c8       ??_R0?AVrmxJsonParser@@@8  005836c8     rmx core:jsonParser.obj
 0004:000006f0       ??_R0?AVcbCoreConsole@@@8  005836f0     rmx core:cbConsole.obj
 0004:00000714       ??_R0?AVcbRootConsole@@@8  00583714     rmx core:cbConsole.obj
 0004:00000738       ??_R0?AV?$rmxList@PAVcbCoreConsole@@@@@8 00583738     rmx core:cbConsole.obj
 0004:00000770       ??_R0?AVcbCoreFunction@@@8 00583770     rmx core:cbFunction.obj
 0004:00000794       ??_R0?AV?$rmxList@PBD@@@8  00583794     rmx core:cbFunction.obj
 0004:000007b8       ??_R0?AV?$rmxList@PAVcbCoreFunction@@@@@8 005837b8     rmx core:cbFunction.obj
 0004:000007f0       ??_R0?AVsqlCallback@@@8    005837f0     rmx core:sqlCallback.obj
 0004:00000810       ??_R0?AV?$rmxList@PAVsqlCallback@@@@@8 00583810     rmx core:sqlCallback.obj
 0004:00000848       ??_R0?AVRmxPlugin@@@8      00583848     rmx core:RmxPlugin.obj
 0004:0000086c       ??_R0?AV?$rmxList@PAVplugCallback@@@@@8 0058386c     rmx core:Plugin.obj
 0004:000008a4       ??_R0?AVhttpFile@@@8       005838a4     rmx core:file.obj
 0004:000008c0       ??_R0?AVIPageGenerator@@@8 005838c0     rmx core:file.obj
 0004:000008e8       ??_R0?AVhttpApi@@@8        005838e8     rmx core:api.obj
 0004:00000904       ??_R0?AVhttpBase@@@8       00583904     rmx core:api.obj
 0004:00000924       ??_R0?AVhttpApiCore@@@8    00583924     rmx core:apiCore.obj
 0004:0000161c       ??_R0?AVfuncParam@@@8      0058461c     rmx sdk:funcParam.obj
 0004:0000163c       ??_R0?AVvTimerList@@@8     0058463c     rmx sdk:Timer.obj
 0004:0000165c       ??_R0?AV?$rmxList@PAVvTimer@@@@@8 0058465c     rmx sdk:Timer.obj
 0004:00001688       ??_R0?AVvMessageWnd@@@8    00584688     rmx sdk:Timer.obj
 0004:000016a8       ??_R0?AV?$rmxList@PAX@@@8  005846a8     rmx sdk:Timer.obj
 0004:000016d0       ??_R0?AV?$rmxList@PAVprmBase@@@@@8 005846d0     rmx sdk:cfgBase.obj
 0004:000016fc       ??_R0?AV?$rmxList@PAVcbBase@@@@@8 005846fc     rmx sdk:cfgBase.obj
 0004:0000172c       ??_R0?AVcfgLink@@@8        0058472c     rmx sdk:cfgLink.obj
 0004:00001748       ??_R0?AVcfgNull@@@8        00584748     rmx sdk:cfgLink.obj
 0004:0000176c       ??_R0?AVcfgStatusBar@@@8   0058476c     rmx sdk:cfgStatusBar.obj
 0004:00002f9c       ?__LINE__Var@?1??JSON_parser_char@@9@9 00585f9c     rmx sdk:JSON_parser.obj
 0004:00002fa0       ?__LINE__Var@?1??parse_parse_buffer@@9@9@1333fce0 00585fa0     rmx sdk:JSON_parser.obj
 0004:00002fa4       ?__LINE__Var@?1??decode_unicode_char@@9@9@1333fce0 00585fa4     rmx sdk:JSON_parser.obj
 0004:00002fa8       ?__LINE__Var@?1??add_escaped_char_to_parse_buffer@@9@9@1333fce0 00585fa8     rmx sdk:JSON_parser.obj
 0004:00002fbc       ??_R0?AVfuncCallback@@@8   00585fbc     rmx sdk:funcCallback.obj
 0004:00002fe8       ??_R0?AUCBStringException@Bstrlib@@@8 00585fe8     bstring:bstrwrap.obj
 0004:00003018       ??_R0?AVexception@std@@@8  00586018     bstring:bstrwrap.obj
 0004:0000303c       ?__LINE__Var@?1???1CBString@Bstrlib@@UAE@XZ@4JA 0058603c     bstring:bstrwrap.obj
 0004:00003040       ??_R0?AVout_of_range@std@@@8 00586040     bstring:bstrwrap.obj
 0004:00003068       ??_R0?AVlogic_error@std@@@8 00586068     bstring:bstrwrap.obj
 0004:0000308c       ??_R0?AVlength_error@std@@@8 0058608c     bstring:bstrwrap.obj
 0004:000030b4       ??_R0?AVbad_alloc@std@@@8  005860b4     bstring:bstrwrap.obj
 0004:000030d8       ?__LINE__Var@?1??bdestroy@@9@9 005860d8     bstring:bstrlib.obj
 0004:000030e0       ??_R0?AVcbRemote@@@8       005860e0     rmx_vs8_d:rmx_entry.obj
 0004:00003100       ??_R0?AVplugBase@@@8       00586100     rmx_vs8_d:plugBase.obj
 0004:00003134       ?_RTC_ErrorLevels@@3PAHA   00586134     MSVCRTD:error.obj
 0004:00003168       ___security_cookie         00586168     MSVCRTD:gs_cookie.obj
 0004:0000316c       ___security_cookie_complement 0058616c     MSVCRTD:gs_cookie.obj
 0004:00003170       ??_R0?AVtype_info@@@8      00586170     MSVCRTD:ti_inst.obj
 0004:00003194       ___globallocalestatus      00586194     MSVCRTD:xthdloc.obj
 0004:00003198       ___defaultmatherr          00586198     MSVCRTD:merr.obj
 0004:0000319c       ___native_dllmain_reason   0058619c     MSVCRTD:natstart.obj
 0004:000031a0       ___native_vcclrit_reason   005861a0     MSVCRTD:natstart.obj
 0004:00003320       ?plg@@3PAVvPluginLoader@@A 00586320     rmx core:Loader.obj
 0004:00003324       ?mainconsole@cbCoreConsole@@0PAV1@A 00586324     rmx core:cbConsole.obj
 0004:00003328       ?items@cbCoreConsole@@0V?$rmxList@PAVcbCoreConsole@@@@A 00586328     rmx core:cbConsole.obj
 0004:0000333c       ?stack@cbCoreConsole@@0V?$rmxList@PAVcbCoreConsole@@@@A 0058633c     rmx core:cbConsole.obj
 0004:00003358       ?que_depth@cbCoreFunction@@0HA 00586358     rmx core:cbFunction.obj
 0004:0000335c       ?rootfunctions@cbCoreFunction@@0V?$rmxList@PAVcbCoreFunction@@@@A 0058635c     rmx core:cbFunction.obj
 0004:00003790       _sqlite3_temp_directory    00586790     sqlite:sqlite3.obj
 0004:00003868       ?hInstance@vWin32@@0PAUHINSTANCE__@@A 00586868     rmx sdk:Win32.obj
 0004:0000386c       ?fileName@vWin32@@0PADA    0058686c     rmx sdk:Win32.obj
 0004:00003870       ?windowsversion@vWin32@@0U_OSVERSIONINFOW@@A 00586870     rmx sdk:Win32.obj
 0004:00003988       ?filePath@vWin32@@0PADA    00586988     rmx sdk:Win32.obj
 0004:00003afc       ?list@vTimer@@1PAVvTimerList@@A 00586afc     rmx sdk:Timer.obj
 0004:00003b00       ?rootlist@cfgBase@@0PAV1@A 00586b00     rmx sdk:cfgBase.obj
 0004:00003b04       ?rmx@@3P6AXPAUrmxMsg@@@ZA  00586b04     rmx_vs8_d:rmx_msg.obj
 0004:00003b08       ?xmlStatus@@3IA            00586b08     rmx_vs8_d:rmx_entry.obj
 0004:00003b0c       ?plugin@@3PAVplugBase@@A   00586b0c     rmx_vs8_d:plugBase.obj
 0004:00003b10       ?wsprintffp@@3P6AHPADPBDZZA 00586b10     MSVCRTD:error.obj
 0004:00003b40       __tls_index                00586b40     MSVCRTD:tlssup.obj
 0004:00003f24       __forceCRTManifest         00586f24     MSVCRTD:crtmanifest.obj
 0004:00003f28       __commode                  00586f28     MSVCRTD:xncommod.obj
 0004:00003f2c       __fmode                    00586f2c     MSVCRTD:xtxtmode.obj
 0004:00003f30       __dowildcard               00586f30     MSVCRTD:wildcard.obj
 0004:00003f34       __newmode                  00586f34     MSVCRTD:_newmode.obj
 0004:00003f40       _winSysInfo                00586f40     <common>
 0004:00003f74       ___sse2_available          00586f74     <common>
 0004:00003f80       ___native_startup_state    00586f80     <common>
 0004:00003f90       ___native_startup_lock     00586f90     <common>
 0004:00003f94       __adjust_fdiv              00586f94     <common>
 0004:00003fa0       ___onexitend               00586fa0     <common>
 0004:00003fb0       ___onexitbegin             00586fb0     <common>
 0004:00003fb4       ___dyn_tls_init_callback   00586fb4     <common>
 0005:00000000       __IMPORT_DESCRIPTOR_KERNEL32 00587000     kernel32:KERNEL32.dll
 0005:00000014       __IMPORT_DESCRIPTOR_USER32 00587014     user32:USER32.dll
 0005:00000028       __IMPORT_DESCRIPTOR_SHELL32 00587028     shell32:SHELL32.dll
 0005:0000003c       __IMPORT_DESCRIPTOR_MSVCP80D 0058703c     msvcprtd:MSVCP80D.dll
 0005:00000050       __IMPORT_DESCRIPTOR_MSVCR80D 00587050     MSVCRTD:MSVCR80D.dll
 0005:00000064       __IMPORT_DESCRIPTOR_WS2_32 00587064     WS2_32:WS2_32.dll
 0005:00000078       __NULL_IMPORT_DESCRIPTOR   00587078     kernel32:KERNEL32.dll
 0005:0000058c       __imp__SetProcessWorkingSetSize@12 0058758c     kernel32:KERNEL32.dll
 0005:00000590       __imp__GetCurrentProcess@0 00587590     kernel32:KERNEL32.dll
 0005:00000594       __imp__IsDebuggerPresent@0 00587594     kernel32:KERNEL32.dll
 0005:00000598       __imp__DebugBreak@0        00587598     kernel32:KERNEL32.dll
 0005:0000059c       __imp__RaiseException@16   0058759c     kernel32:KERNEL32.dll
 0005:000005a0       __imp__ReleaseMutex@4      005875a0     kernel32:KERNEL32.dll
 0005:000005a4       __imp__CreateMutexW@12     005875a4     kernel32:KERNEL32.dll
 0005:000005a8       __imp__GetThreadPriority@4 005875a8     kernel32:KERNEL32.dll
 0005:000005ac       __imp__SetThreadPriority@8 005875ac     kernel32:KERNEL32.dll
 0005:000005b0       __imp__WaitForSingleObject@8 005875b0     kernel32:KERNEL32.dll
 0005:000005b4       __imp__CreateThread@24     005875b4     kernel32:KERNEL32.dll
 0005:000005b8       __imp__GetModuleFileNameW@12 005875b8     kernel32:KERNEL32.dll
 0005:000005bc       __imp__GetVersionExW@4     005875bc     kernel32:KERNEL32.dll
 0005:000005c0       __imp__CreateFileMappingA@24 005875c0     kernel32:KERNEL32.dll
 0005:000005c4       __imp__MapViewOfFile@20    005875c4     kernel32:KERNEL32.dll
 0005:000005c8       __imp__GetSystemInfo@4     005875c8     kernel32:KERNEL32.dll
 0005:000005cc       __imp__CreateFileW@28      005875cc     kernel32:KERNEL32.dll
 0005:000005d0       __imp__CreateFileA@28      005875d0     kernel32:KERNEL32.dll
 0005:000005d4       __imp__UnmapViewOfFile@4   005875d4     kernel32:KERNEL32.dll
 0005:000005d8       __imp__GetDiskFreeSpaceW@20 005875d8     kernel32:KERNEL32.dll
 0005:000005dc       __imp__GetDiskFreeSpaceA@20 005875dc     kernel32:KERNEL32.dll
 0005:000005e0       __imp__GetFullPathNameW@16 005875e0     kernel32:KERNEL32.dll
 0005:000005e4       __imp__GetFullPathNameA@16 005875e4     kernel32:KERNEL32.dll
 0005:000005e8       __imp__GetFileAttributesExW@12 005875e8     kernel32:KERNEL32.dll
 0005:000005ec       __imp__DeleteFileW@4       005875ec     kernel32:KERNEL32.dll
 0005:000005f0       __imp__GetFileAttributesW@4 005875f0     kernel32:KERNEL32.dll
 0005:000005f4       __imp__DeleteFileA@4       005875f4     kernel32:KERNEL32.dll
 0005:000005f8       __imp__GetFileAttributesA@4 005875f8     kernel32:KERNEL32.dll
 0005:000005fc       __imp__GetTempPathW@8      005875fc     kernel32:KERNEL32.dll
 0005:00000600       __imp__GetTempPathA@8      00587600     kernel32:KERNEL32.dll
 0005:00000604       __imp__GetFileSize@8       00587604     kernel32:KERNEL32.dll
 0005:00000608       __imp__FlushFileBuffers@4  00587608     kernel32:KERNEL32.dll
 0005:0000060c       __imp__SetEndOfFile@4      0058760c     kernel32:KERNEL32.dll
 0005:00000610       __imp__WriteFile@20        00587610     kernel32:KERNEL32.dll
 0005:00000614       __imp__ReadFile@20         00587614     kernel32:KERNEL32.dll
 0005:00000618       __imp__CloseHandle@4       00587618     kernel32:KERNEL32.dll
 0005:0000061c       __imp__SetFilePointer@16   0058761c     kernel32:KERNEL32.dll
 0005:00000620       __imp__FormatMessageW@28   00587620     kernel32:KERNEL32.dll
 0005:00000624       __imp__FormatMessageA@28   00587624     kernel32:KERNEL32.dll
 0005:00000628       __imp__LocalFree@4         00587628     kernel32:KERNEL32.dll
 0005:0000062c       __imp__GetSystemTimeAsFileTime@4 0058762c     kernel32:KERNEL32.dll
 0005:00000630       __imp__GetSystemTime@4     00587630     kernel32:KERNEL32.dll
 0005:00000634       __imp__GetCurrentProcessId@0 00587634     kernel32:KERNEL32.dll
 0005:00000638       __imp__GetTickCount@0      00587638     kernel32:KERNEL32.dll
 0005:0000063c       __imp__QueryPerformanceCounter@4 0058763c     kernel32:KERNEL32.dll
 0005:00000640       __imp__LoadLibraryW@4      00587640     kernel32:KERNEL32.dll
 0005:00000644       __imp__UnlockFileEx@20     00587644     kernel32:KERNEL32.dll
 0005:00000648       __imp__LockFileEx@24       00587648     kernel32:KERNEL32.dll
 0005:0000064c       __imp__LockFile@20         0058764c     kernel32:KERNEL32.dll
 0005:00000650       __imp__UnlockFile@20       00587650     kernel32:KERNEL32.dll
 0005:00000654       __imp__AreFileApisANSI@0   00587654     kernel32:KERNEL32.dll
 0005:00000658       __imp__WideCharToMultiByte@32 00587658     kernel32:KERNEL32.dll
 0005:0000065c       __imp__MultiByteToWideChar@24 0058765c     kernel32:KERNEL32.dll
 0005:00000660       __imp__GetVersionExA@4     00587660     kernel32:KERNEL32.dll
 0005:00000664       __imp__LeaveCriticalSection@4 00587664     kernel32:KERNEL32.dll
 0005:00000668       __imp__EnterCriticalSection@4 00587668     kernel32:KERNEL32.dll
 0005:0000066c       __imp__DeleteCriticalSection@4 0058766c     kernel32:KERNEL32.dll
 0005:00000670       __imp__InterlockedCompareExchange@12 00587670     kernel32:KERNEL32.dll
 0005:00000674       __imp__InitializeCriticalSection@4 00587674     kernel32:KERNEL32.dll
 0005:00000678       __imp__Sleep@4             00587678     kernel32:KERNEL32.dll
 0005:0000067c       __imp__SetErrorMode@4      0058767c     kernel32:KERNEL32.dll
 0005:00000680       __imp__LoadLibraryA@4      00587680     kernel32:KERNEL32.dll
 0005:00000684       __imp__DisableThreadLibraryCalls@4 00587684     kernel32:KERNEL32.dll
 0005:00000688       __imp__FreeLibrary@4       00587688     kernel32:KERNEL32.dll
 0005:0000068c       __imp__SetLastError@4      0058768c     kernel32:KERNEL32.dll
 0005:00000690       __imp__GetProcAddress@8    00587690     kernel32:KERNEL32.dll
 0005:00000694       __imp__GetLastError@0      00587694     kernel32:KERNEL32.dll
 0005:00000698       __imp__CreateDirectoryA@8  00587698     kernel32:KERNEL32.dll
 0005:0000069c       __imp__InterlockedExchange@8 0058769c     kernel32:KERNEL32.dll
 0005:000006a0       __imp__GetStartupInfoA@4   005876a0     kernel32:KERNEL32.dll
 0005:000006a4       __imp__HeapFree@12         005876a4     kernel32:KERNEL32.dll
 0005:000006a8       __imp__HeapAlloc@12        005876a8     kernel32:KERNEL32.dll
 0005:000006ac       __imp__GetProcessHeap@0    005876ac     kernel32:KERNEL32.dll
 0005:000006b0       __imp__VirtualQuery@12     005876b0     kernel32:KERNEL32.dll
 0005:000006b4       __imp__TerminateProcess@8  005876b4     kernel32:KERNEL32.dll
 0005:000006b8       __imp__UnhandledExceptionFilter@4 005876b8     kernel32:KERNEL32.dll
 0005:000006bc       __imp__SetUnhandledExceptionFilter@4 005876bc     kernel32:KERNEL32.dll
 0005:000006c0       __imp__GetCurrentThreadId@0 005876c0     kernel32:KERNEL32.dll
 0005:000006c4       __imp__lstrlenA@4          005876c4     kernel32:KERNEL32.dll
 0005:000006c8       \177KERNEL32_NULL_THUNK_DATA 005876c8     kernel32:KERNEL32.dll
 0005:00000730       __imp_?_Debug_message@std@@YAXPB_W0I@Z 00587730     msvcprtd:MSVCP80D.dll
 0005:00000734       __imp_??0_Lockit@std@@QAE@H@Z 00587734     msvcprtd:MSVCP80D.dll
 0005:00000738       __imp_??1_Lockit@std@@QAE@XZ 00587738     msvcprtd:MSVCP80D.dll
 0005:0000073c       __imp_?get@?$basic_istream@DU?$char_traits@D@std@@@std@@QAEAAV12@AAD@Z 0058773c     msvcprtd:MSVCP80D.dll
 0005:00000740       __imp_?eof@ios_base@std@@QBE_NXZ 00587740     msvcprtd:MSVCP80D.dll
 0005:00000744       __imp_?write@?$basic_ostream@DU?$char_traits@D@std@@@std@@QAEAAV12@PBDH@Z 00587744     msvcprtd:MSVCP80D.dll
 0005:00000748       __imp_?c_str@?$basic_string@DU?$char_traits@D@std@@V?$allocator@D@2@@std@@QBEPBDXZ 00587748     msvcprtd:MSVCP80D.dll
 0005:0000074c       __imp_??0?$basic_string@DU?$char_traits@D@std@@V?$allocator@D@2@@std@@QAE@ABV01@@Z 0058774c     msvcprtd:MSVCP80D.dll
 0005:00000750       __imp_??0?$basic_string@DU?$char_traits@D@std@@V?$allocator@D@2@@std@@QAE@PBD@Z 00587750     msvcprtd:MSVCP80D.dll
 0005:00000754       __imp_??1?$basic_string@DU?$char_traits@D@std@@V?$allocator@D@2@@std@@QAE@XZ 00587754     msvcprtd:MSVCP80D.dll
 0005:00000758       __imp_?_Orphan_all@_Container_base@std@@QBEXXZ 00587758     msvcprtd:MSVCP80D.dll
 0005:0000075c       \177MSVCP80D_NULL_THUNK_DATA 0058775c     msvcprtd:MSVCP80D.dll
 0005:00000790       __imp___CrtSetCheckCount   00587790     MSVCRTD:MSVCR80D.dll
 0005:00000794       __imp___initterm           00587794     MSVCRTD:MSVCR80D.dll
 0005:00000798       __imp___initterm_e         00587798     MSVCRTD:MSVCR80D.dll
 0005:0000079c       __imp___stricmp            0058779c     MSVCRTD:MSVCR80D.dll
 0005:0000079c       __imp___strcmpi            0058779c     MSVCRTD:MSVCR80D.dll
 0005:000007a0       __imp___unlock             005877a0     MSVCRTD:MSVCR80D.dll
 0005:000007a4       __imp____dllonexit         005877a4     MSVCRTD:MSVCR80D.dll
 0005:000007a8       __imp___adjust_fdiv        005877a8     MSVCRTD:MSVCR80D.dll
 0005:000007ac       __imp___acmdln             005877ac     MSVCRTD:MSVCR80D.dll
 0005:000007b0       __imp___decode_pointer     005877b0     MSVCRTD:MSVCR80D.dll
 0005:000007b4       __imp___except_handler4_common 005877b4     MSVCRTD:MSVCR80D.dll
 0005:000007b8       __imp___crt_debugger_hook  005877b8     MSVCRTD:MSVCR80D.dll
 0005:000007bc       __imp_?terminate@@YAXXZ    005877bc     MSVCRTD:MSVCR80D.dll
 0005:000007c0       __imp_?_type_info_dtor_internal_method@type_info@@QAEXXZ 005877c0     MSVCRTD:MSVCR80D.dll
 0005:000007c4       __imp___controlfp_s        005877c4     MSVCRTD:MSVCR80D.dll
 0005:000007c8       __imp___invoke_watson      005877c8     MSVCRTD:MSVCR80D.dll
 0005:000007cc       __imp___ismbblead          005877cc     MSVCRTD:MSVCR80D.dll
 0005:000007d0       __imp__exit                005877d0     MSVCRTD:MSVCR80D.dll
 0005:000007d4       __imp___cexit              005877d4     MSVCRTD:MSVCR80D.dll
 0005:000007d8       __imp___XcptFilter         005877d8     MSVCRTD:MSVCR80D.dll
 0005:000007dc       __imp___exit               005877dc     MSVCRTD:MSVCR80D.dll
 0005:000007e0       __imp____getmainargs       005877e0     MSVCRTD:MSVCR80D.dll
 0005:000007e4       __imp___amsg_exit          005877e4     MSVCRTD:MSVCR80D.dll
 0005:000007e8       __imp____set_app_type      005877e8     MSVCRTD:MSVCR80D.dll
 0005:000007ec       __imp___encode_pointer     005877ec     MSVCRTD:MSVCR80D.dll
 0005:000007f0       __imp____p__fmode          005877f0     MSVCRTD:MSVCR80D.dll
 0005:000007f4       __imp___onexit             005877f4     MSVCRTD:MSVCR80D.dll
 0005:000007f8       __imp____p__commode        005877f8     MSVCRTD:MSVCR80D.dll
 0005:000007fc       __imp____setusermatherr    005877fc     MSVCRTD:MSVCR80D.dll
 0005:00000800       __imp___configthreadlocale 00587800     MSVCRTD:MSVCR80D.dll
 0005:00000804       __imp___CRT_RTC_INITW      00587804     MSVCRTD:MSVCR80D.dll
 0005:00000808       __imp__strcpy              00587808     MSVCRTD:MSVCR80D.dll
 0005:0000080c       __imp__strcat              0058780c     MSVCRTD:MSVCR80D.dll
 0005:00000810       __imp___strnicmp           00587810     MSVCRTD:MSVCR80D.dll
 0005:00000810       __imp__strnicmp            00587810     MSVCRTD:MSVCR80D.dll
 0005:00000814       __imp___time64             00587814     MSVCRTD:MSVCR80D.dll
 0005:00000818       __imp__memchr              00587818     MSVCRTD:MSVCR80D.dll
 0005:0000081c       __imp__memcmp              0058781c     MSVCRTD:MSVCR80D.dll
 0005:00000820       __imp__tolower             00587820     MSVCRTD:MSVCR80D.dll
 0005:00000824       __imp__toupper             00587824     MSVCRTD:MSVCR80D.dll
 0005:00000828       __imp_?what@exception@std@@UBEPBDXZ 00587828     MSVCRTD:MSVCR80D.dll
 0005:0000082c       __imp_??0exception@std@@QAE@ABQBD@Z 0058782c     MSVCRTD:MSVCR80D.dll
 0005:00000830       __imp___CrtDbgReportW      00587830     MSVCRTD:MSVCR80D.dll
 0005:00000834       __imp___invalid_parameter  00587834     MSVCRTD:MSVCR80D.dll
 0005:00000838       __imp__isspace             00587838     MSVCRTD:MSVCR80D.dll
 0005:0000083c       __imp___vsnprintf          0058783c     MSVCRTD:MSVCR80D.dll
 0005:00000840       __imp_??0exception@std@@QAE@XZ 00587840     MSVCRTD:MSVCR80D.dll
 0005:00000844       __imp_??1exception@std@@UAE@XZ 00587844     MSVCRTD:MSVCR80D.dll
 0005:00000848       __imp_??0exception@std@@QAE@ABV01@@Z 00587848     MSVCRTD:MSVCR80D.dll
 0005:0000084c       __imp___CxxThrowException@8 0058784c     MSVCRTD:MSVCR80D.dll
 0005:00000850       __imp__sscanf              00587850     MSVCRTD:MSVCR80D.dll
 0005:00000854       __imp___wassert            00587854     MSVCRTD:MSVCR80D.dll
 0005:00000858       __imp__localeconv          00587858     MSVCRTD:MSVCR80D.dll
 0005:0000085c       __imp__rand_s              0058785c     MSVCRTD:MSVCR80D.dll
 0005:00000860       __imp__rand                00587860     MSVCRTD:MSVCR80D.dll
 0005:00000864       __imp___stat64i32          00587864     MSVCRTD:MSVCR80D.dll
 0005:00000868       __imp__strtod              00587868     MSVCRTD:MSVCR80D.dll
 0005:0000086c       __imp__sscanf_s            0058786c     MSVCRTD:MSVCR80D.dll
 0005:00000870       __imp__strncmp             00587870     MSVCRTD:MSVCR80D.dll
 0005:00000874       __imp__memmove             00587874     MSVCRTD:MSVCR80D.dll
 0005:00000878       __imp__realloc             00587878     MSVCRTD:MSVCR80D.dll
 0005:0000087c       __imp___localtime64_s      0058787c     MSVCRTD:MSVCR80D.dll
 0005:00000880       __imp__fread               00587880     MSVCRTD:MSVCR80D.dll
 0005:00000884       __imp__fclose              00587884     MSVCRTD:MSVCR80D.dll
 0005:00000888       __imp___purecall           00587888     MSVCRTD:MSVCR80D.dll
 0005:0000088c       __imp__fopen_s             0058788c     MSVCRTD:MSVCR80D.dll
 0005:00000890       __imp__memcpy              00587890     MSVCRTD:MSVCR80D.dll
 0005:00000894       __imp__malloc              00587894     MSVCRTD:MSVCR80D.dll
 0005:00000898       __imp__free                00587898     MSVCRTD:MSVCR80D.dll
 0005:0000089c       __imp___findfirst64i32     0058789c     MSVCRTD:MSVCR80D.dll
 0005:000008a0       __imp___findnext64i32      005878a0     MSVCRTD:MSVCR80D.dll
 0005:000008a4       __imp___findclose          005878a4     MSVCRTD:MSVCR80D.dll
 0005:000008a8       __imp__strlen              005878a8     MSVCRTD:MSVCR80D.dll
 0005:000008ac       __imp__strncpy_s           005878ac     MSVCRTD:MSVCR80D.dll
 0005:000008b0       __imp__strncat_s           005878b0     MSVCRTD:MSVCR80D.dll
 0005:000008b4       __imp__strcmp              005878b4     MSVCRTD:MSVCR80D.dll
 0005:000008b8       __imp__srand               005878b8     MSVCRTD:MSVCR80D.dll
 0005:000008bc       __imp____CxxFrameHandler3  005878bc     MSVCRTD:MSVCR80D.dll
 0005:000008c0       __imp__sprintf_s           005878c0     MSVCRTD:MSVCR80D.dll
 0005:000008c4       __imp_??3@YAXPAX@Z         005878c4     MSVCRTD:MSVCR80D.dll
 0005:000008c8       __imp_??2@YAPAXI@Z         005878c8     MSVCRTD:MSVCR80D.dll
 0005:000008cc       __imp__memset              005878cc     MSVCRTD:MSVCR80D.dll
 0005:000008d0       __imp___lock               005878d0     MSVCRTD:MSVCR80D.dll
 0005:000008d4       \177MSVCR80D_NULL_THUNK_DATA 005878d4     MSVCRTD:MSVCR80D.dll
 0005:00000940       __imp__ShellExecuteW@24    00587940     shell32:SHELL32.dll
 0005:00000944       \177SHELL32_NULL_THUNK_DATA 00587944     shell32:SHELL32.dll
 0005:00000970       __imp__SetWindowLongW@12   00587970     user32:USER32.dll
 0005:00000974       __imp__CreateWindowExW@48  00587974     user32:USER32.dll
 0005:00000978       __imp__RegisterClassExW@4  00587978     user32:USER32.dll
 0005:0000097c       __imp__GetClassInfoExW@12  0058797c     user32:USER32.dll
 0005:00000980       __imp__SendMessageA@16     00587980     user32:USER32.dll
 0005:00000984       __imp__PostMessageW@16     00587984     user32:USER32.dll
 0005:00000988       __imp__PostMessageA@16     00587988     user32:USER32.dll
 0005:0000098c       __imp__GetWindowLongW@8    0058798c     user32:USER32.dll
 0005:00000990       __imp__DefWindowProcW@16   00587990     user32:USER32.dll
 0005:00000994       __imp__DestroyWindow@4     00587994     user32:USER32.dll
 0005:00000998       __imp__KillTimer@8         00587998     user32:USER32.dll
 0005:0000099c       __imp__PostQuitMessage@4   0058799c     user32:USER32.dll
 0005:000009a0       __imp__FindWindowA@8       005879a0     user32:USER32.dll
 0005:000009a4       __imp__SendMessageW@16     005879a4     user32:USER32.dll
 0005:000009a8       __imp__ShowWindow@8        005879a8     user32:USER32.dll
 0005:000009ac       __imp__GetMessageW@16      005879ac     user32:USER32.dll
 0005:000009b0       __imp__MessageBoxW@16      005879b0     user32:USER32.dll
 0005:000009b4       __imp__TranslateMessage@4  005879b4     user32:USER32.dll
 0005:000009b8       __imp__DispatchMessageW@4  005879b8     user32:USER32.dll
 0005:000009bc       __imp__SetTimer@16         005879bc     user32:USER32.dll
 0005:000009c0       \177USER32_NULL_THUNK_DATA 005879c0     user32:USER32.dll
 0005:000009fc       __imp__getsockname@12      005879fc     WS2_32:WS2_32.dll
 0005:00000a00       __imp__connect@12          00587a00     WS2_32:WS2_32.dll
 0005:00000a04       __imp__WSAGetLastError@0   00587a04     WS2_32:WS2_32.dll
 0005:00000a08       __imp__select@20           00587a08     WS2_32:WS2_32.dll
 0005:00000a0c       __imp____WSAFDIsSet@8      00587a0c     WS2_32:WS2_32.dll
 0005:00000a10       __imp__send@16             00587a10     WS2_32:WS2_32.dll
 0005:00000a14       __imp__recv@16             00587a14     WS2_32:WS2_32.dll
 0005:00000a18       __imp__shutdown@8          00587a18     WS2_32:WS2_32.dll
 0005:00000a1c       __imp__accept@12           00587a1c     WS2_32:WS2_32.dll
 0005:00000a20       __imp__socket@12           00587a20     WS2_32:WS2_32.dll
 0005:00000a24       __imp__ioctlsocket@12      00587a24     WS2_32:WS2_32.dll
 0005:00000a28       __imp__htons@4             00587a28     WS2_32:WS2_32.dll
 0005:00000a2c       __imp__bind@12             00587a2c     WS2_32:WS2_32.dll
 0005:00000a30       __imp__closesocket@4       00587a30     WS2_32:WS2_32.dll
 0005:00000a34       __imp__listen@8            00587a34     WS2_32:WS2_32.dll
 0005:00000a38       __imp__gethostbyname@4     00587a38     WS2_32:WS2_32.dll
 0005:00000a3c       __imp__gethostbyaddr@12    00587a3c     WS2_32:WS2_32.dll
 0005:00000a40       __imp__inet_ntoa@4         00587a40     WS2_32:WS2_32.dll
 0005:00000a44       __imp__inet_addr@4         00587a44     WS2_32:WS2_32.dll
 0005:00000a48       __imp__WSAStartup@8        00587a48     WS2_32:WS2_32.dll
 0005:00000a4c       __imp__WSACleanup@0        00587a4c     WS2_32:WS2_32.dll
 0005:00000a50       \177WS2_32_NULL_THUNK_DATA 00587a50     WS2_32:WS2_32.dll
 0006:00000000       __tls_start                00589000     MSVCRTD:tlssup.obj
 0006:00000108       ?buffer@rmxData@@0PADA     00589108     rmx sdk:rmxData.obj
 0006:00000158       ?extrmxmsg@@3UrmxMsg@@A    00589158     rmx_vs8_d:rmx_msg.obj
 0006:000002e9       __tls_end                  005892e9     MSVCRTD:tlssup.obj

 entry point at        0002:000016c1

